 ConEmu

 Timestamp is 5a10238d (Sat Nov 18 15:11:57 2017)

 Preferred load address is 00400000

 Start         Length     Name                   Class
 0001:00000000 00000080H .text$di                CODE
 0001:00000080 001065a5H .text$mn                CODE
 0001:00106625 000061ccH .text$x                 CODE
 0001:0010c7f1 000000d9H .text$yd                CODE
 0002:00000000 000007fcH .idata$5                DATA
 0002:000007fc 00000004H .00cfg                  DATA
 0002:00000800 00000004H .CRT$XCA                DATA
 0002:00000804 00000004H .CRT$XCAA               DATA
 0002:00000808 00000020H .CRT$XCU                DATA
 0002:00000828 00000004H .CRT$XCZ                DATA
 0002:0000082c 00000004H .CRT$XIA                DATA
 0002:00000830 00000004H .CRT$XIAA               DATA
 0002:00000834 00000004H .CRT$XIAC               DATA
 0002:00000838 00000010H .CRT$XIC                DATA
 0002:00000848 00000004H .CRT$XIZ                DATA
 0002:0000084c 00000004H .CRT$XLA                DATA
 0002:00000850 00000004H .CRT$XLZ                DATA
 0002:00000854 00000004H .CRT$XPA                DATA
 0002:00000858 00000008H .CRT$XPX                DATA
 0002:00000860 00000004H .CRT$XPXA               DATA
 0002:00000864 00000004H .CRT$XPZ                DATA
 0002:00000868 00000004H .CRT$XTA                DATA
 0002:0000086c 00000004H .CRT$XTZ                DATA
 0002:00000870 00000000H .gfids$x                DATA
 0002:00000870 00000000H .gfids$y                DATA
 0002:00000870 0005d9f0H .rdata                  DATA
 0002:0005e260 00000018H .rdata$T                DATA
 0002:0005e278 00002728H .rdata$r                DATA
 0002:000609a0 00000710H .rdata$sxdata           DATA
 0002:000610b0 000003ccH .rdata$zzzdbg           DATA
 0002:0006147c 00000004H .rtc$IAA                DATA
 0002:00061480 00000004H .rtc$IZZ                DATA
 0002:00061484 00000004H .rtc$TAA                DATA
 0002:00061488 00000004H .rtc$TZZ                DATA
 0002:0006148c 00000004H .tls                    DATA
 0002:00061490 00000004H .tls$                   DATA
 0002:00061494 00000004H .tls$ZZZ                DATA
 0002:00061498 0000621cH .xdata$x                DATA
 0002:000676b4 00000000H .edata                  DATA
 0002:000676b4 00000104H .idata$2                DATA
 0002:000677b8 00000014H .idata$3                DATA
 0002:000677cc 000007fcH .idata$4                DATA
 0002:00067fc8 00002348H .idata$6                DATA
 0003:00000000 00002dd0H .data                   DATA
 0003:00002dd0 00000e88H .data$r                 DATA
 0003:00003c58 0002e830H .bss                    DATA
 0004:00000000 000011c0H .rsrc$01                DATA
 0004:000011c0 000455d0H .rsrc$02                DATA

  Address         Publics by Value              Rva+Base       Lib:Object

 0000:00000000       __except_list              00000000     <absolute>
 0000:00000000       ___guard_longjmp_count     00000000     <absolute>
 0000:00000000       ___enclave_config          00000000     <absolute>
 0000:00000000       ___guard_longjmp_table     00000000     <absolute>
 0000:00000000       ___guard_iat_table         00000000     <absolute>
 0000:00000000       ___guard_iat_count         00000000     <absolute>
 0000:00000000       ___hybrid_auxiliary_iat    00000000     <absolute>
 0000:00000000       ___guard_fids_count        00000000     <absolute>
 0000:00000000       ___guard_fids_table        00000000     <absolute>
 0000:00000000       ___hybrid_code_map_count   00000000     <absolute>
 0000:00000000       ___hybrid_code_map         00000000     <absolute>
 0000:00000000       ___dynamic_value_reloc_table 00000000     <absolute>
 0000:0000002c       __tls_array                0000002c     <absolute>
 0000:00000100       ___guard_flags             00000100     <absolute>
 0000:000001c4       ___safe_se_handler_count   000001c4     <absolute>
 0000:00000000       ___ImageBase               00400000     <linker-defined>
 0001:00000080       ??$SafeDelete@VCImgButtons@@@@YAXAAPAVCImgButtons@@@Z 00401080 f i AboutDlg.obj
 0001:000000bd       ?InitCommCtrls@ConEmuAbout@@YAXXZ 004010bd f   AboutDlg.obj
 0001:000000ee       ?LogStartEnvInt@ConEmuAbout@@YAXPB_WJ_N1@Z 004010ee f   AboutDlg.obj
 0001:0000014b       ?OnInfo_About@ConEmuAbout@@YAXPB_W@Z 0040114b f   AboutDlg.obj
 0001:000002cf       ?OnInfo_Donate@ConEmuAbout@@YAXXZ 004012cf f   AboutDlg.obj
 0001:000002ee       ?OnInfo_DonateLink@ConEmuAbout@@YAXXZ 004012ee f   AboutDlg.obj
 0001:00000323       ?OnInfo_DownloadPage@ConEmuAbout@@YAXXZ 00401323 f   AboutDlg.obj
 0001:00000359       ?OnInfo_FirstStartPage@ConEmuAbout@@YAXXZ 00401359 f   AboutDlg.obj
 0001:0000038f       ?OnInfo_Help@ConEmuAbout@@YAXXZ 0040138f f   AboutDlg.obj
 0001:0000041b       ?OnInfo_HomePage@ConEmuAbout@@YAXXZ 0040141b f   AboutDlg.obj
 0001:00000451       ?OnInfo_OnlineWiki@ConEmuAbout@@YAXPB_W@Z 00401451 f   AboutDlg.obj
 0001:000004ca       ?OnInfo_ReportBug@ConEmuAbout@@YAXXZ 004014ca f   AboutDlg.obj
 0001:00000500       ?OnInfo_ReportCrash@ConEmuAbout@@YAXPB_W@Z 00401500 f   AboutDlg.obj
 0001:00000588       ?OnInfo_ThrowTrapException@ConEmuAbout@@YAX_N@Z 00401588 f   AboutDlg.obj
 0001:0000061a       ?OnInfo_WhatsNew@ConEmuAbout@@YAX_N@Z 0040161a f   AboutDlg.obj
 0001:000006ef       ?ReloadSysInfo@ConEmuAbout@@YAXXZ 004016ef f   AboutDlg.obj
 0001:0000073c       ?StringCchCatW@@YGJPA_WIPB_W@Z 0040173c f i AboutDlg.obj
 0001:0000077c       ?StringCchCopyW@@YGJPA_WIPB_W@Z 0040177c f i AboutDlg.obj
 0001:0000082d       ?TabSelected@ConEmuAbout@@YAXPAUHWND__@@H@Z 0040182d f   AboutDlg.obj
 0001:000008d1       ?ToString@LoadStartupEnvEx@@SAXPAUCEStartupEnv@@P6AXPB_WJ_N2@ZJ@Z 004018d1 f i AboutDlg.obj
 0001:00001483       ?aboutProc@ConEmuAbout@@YGHPAUHWND__@@IIJ@Z 00402483 f   AboutDlg.obj
 0001:00001a3b       ?searchProc@ConEmuAbout@@YAXPAUHWND__@@0_N@Z 00402a3b f   AboutDlg.obj
 0001:00001cd7       ??0CAltNumpad@@QAE@PAVCConEmuMain@@@Z 00402cd7 f   AltNumpad.obj
 0001:00001d05       ?ClearAltNumber@CAltNumpad@@IAEX_N@Z 00402d05 f   AltNumpad.obj
 0001:00001d8c       ?DumpAltNumber@CAltNumpad@@IAE?AW4AltCharAction@@XZ 00402d8c f   AltNumpad.obj
 0001:00001e90       ?DumpChars@CAltNumpad@@IAEXPA_W@Z 00402e90 f   AltNumpad.obj
 0001:00001f17       ?DumpStatus@CAltNumpad@@IAEXXZ 00402f17 f   AltNumpad.obj
 0001:0000202b       ?GetChars@CAltNumpad@@IAEHAAY02_W@Z 0040302b f   AltNumpad.obj
 0001:000020b8       ?OnKeyboard@CAltNumpad@@QAE_NPAUHWND__@@IIJ@Z 004030b8 f   AltNumpad.obj
 0001:00002451       ?StartCapture@CAltNumpad@@QAEXII_N@Z 00403451 f   AltNumpad.obj
 0001:0000254f       ?isAltNumpad@CAltNumpad@@IAE_NXZ 0040354f f   AltNumpad.obj
 0001:000025b0       ?isUseAltGrayPlus@CAltNumpad@@IAE_NXZ 004035b0 f   AltNumpad.obj
 0001:00002613       ??$SafeDelete@VCDpiForDialog@@@@YAXAAPAVCDpiForDialog@@@Z 00403613 f i Attach.obj
 0001:00002653       ??$wcscat_c@$0BEE@@@YAHAAY0BEE@_WPB_W@Z 00403653 f i Attach.obj
 0001:00002668       ??$wcscpy_c@$0BAE@@@YAHAAY0BAE@_WPB_W@Z 00403668 f i Attach.obj
 0001:0000267d       ??$wcscpy_c@$0PP@@@YAHAAY0PP@_WPB_W@Z 0040367d f i Attach.obj
 0001:00002692       ??0CAttachDlg@@QAE@XZ      00403692 f   Attach.obj
 0001:000026c0       ??0CProcessData@@QAE@XZ    004036c0 f i Attach.obj
 0001:0000271f       ??1CAttachDlg@@QAE@XZ      0040371f f   Attach.obj
 0001:00002755       ??1CProcessData@@QAE@XZ    00403755 f i Attach.obj
 0001:000027bf       ?AttachDlg@CAttachDlg@@QAEXXZ 004037bf f   Attach.obj
 0001:00002861       ?AttachDlgEnumWin@CAttachDlg@@SGHPAUHWND__@@J@Z 00403861 f   Attach.obj
 0001:00002a58       ?AttachDlgProc@CAttachDlg@@SGHPAUHWND__@@IIJ@Z 00403a58 f   Attach.obj
 0001:00003462       ?AttachFromMacro@CAttachDlg@@SA?AW4AttachMacroRet@1@K_N@Z 00404462 f   Attach.obj
 0001:000036a0       ?CanAttachWindow@CAttachDlg@@KA_NPAUHWND__@@KPAVCProcessData@@AAUAttachWndInfo@1@@Z 004046a0 f   Attach.obj
 0001:00003ab7       ?Close@CAttachDlg@@QAEXXZ  00404ab7 f   Attach.obj
 0001:00003b17       ?FindProcessName@CProcessData@@IAE_NKPA_WK@Z 00404b17 f i Attach.obj
 0001:00003bdb       ?GetHWND@CAttachDlg@@QAEPAUHWND__@@XZ 00404bdb f   Attach.obj
 0001:00003be5       ?GetInternalProcessData@CProcessData@@IAEHPAXPAUModuleData@1@AAPAUPROCESS_PARAMETERS@1@AAPAD_N@Z 00404be5 f i Attach.obj
 0001:00003d25       ?GetOpenProcessData@CProcessData@@IAEXPAXPA_WK1K1K@Z 00404d25 f i Attach.obj
 0001:00003f05       ?GetProcessName@CProcessData@@QAE_NKPA_WK0KPAH@Z 00404f05 f i Attach.obj
 0001:000040fc       ?LoadPerfData@CProcessData@@IAE_NXZ 004050fc f i Attach.obj
 0001:0000434f       ?OnStartAttach@CAttachDlg@@IAE_NXZ 0040534f f   Attach.obj
 0001:00004701       ?StartAttach@CAttachDlg@@KA_NPAUHWND__@@KKW4AttachProcessType@@HH@Z 00405701 f   Attach.obj
 0001:00004d74       ?StartAttachThread@CAttachDlg@@SGKPAUAttachParm@@@Z 00405d74 f   Attach.obj
 0001:00004ddc       ?fNtQueryInformationProcess@CProcessData@@KGJPAXW4_PROCESSINFOCLASS@1@0KPAK@Z 00405ddc f i Attach.obj
 0001:00004de4       ?getModuleFileNameEx@CProcessData@@IAEKPAXPAUHINSTANCE__@@PA_WK@Z 00405de4 f i Attach.obj
 0001:00004e56       ?getcounter@CProcessData@@KAHPA_W@Z 00405e56 f i Attach.obj
 0001:00004e8d       ?push_back@?$MArray@UAttachParm@@@@QAEHABUAttachParm@@@Z 00405e8d f i Attach.obj
 0001:00004e8d       ?push_back@?$MArray@UHighlightRect@CVirtualConsole@@@@QAEHABUHighlightRect@CVirtualConsole@@@Z 00405e8d f i VirtualConsole.obj
 0001:00004edd       ?queryFullProcessImageName@CProcessData@@IAE_NPAXKPA_WK@Z 00405edd f i Attach.obj
 0001:00004f1a       ??$SafeDelete@VMSection@@@@YAXAAPAVMSection@@@Z 00405f1a f i Background.obj
 0001:00004f5a       ??0CBackground@@QAE@XZ     00405f5a f   Background.obj
 0001:00004fa0       ??0CBackgroundInfo@@IAE@PB_W@Z 00405fa0 f   Background.obj
 0001:0000501a       ??1CBackground@@UAE@XZ     0040601a f   Background.obj
 0001:000050d6       ??1CBackgroundInfo@@MAE@XZ 004060d6 f   Background.obj
 0001:00005164       ??1CVConRelease@@UAE@XZ    00406164 f i VirtualConsole.obj
 0001:00005164       ??1CRefRelease@@MAE@XZ     00406164 f i Background.obj
 0001:0000516b       ??_GCBackground@@UAEPAXI@Z 0040616b f i Background.obj
 0001:0000516b       ??_ECBackground@@UAEPAXI@Z 0040616b f i Background.obj
 0001:0000518d       ??_ECBackgroundInfo@@MAEPAXI@Z 0040618d f i Background.obj
 0001:0000518d       ??_GCBackgroundInfo@@MAEPAXI@Z 0040618d f i Background.obj
 0001:000051b2       ??_ECRefRelease@@MAEPAXI@Z 004061b2 f i Background.obj
 0001:000051b2       ??_GCRefRelease@@MAEPAXI@Z 004061b2 f i Background.obj
 0001:000051d5       ?BgImage@CBackgroundInfo@@QAEPB_WXZ 004061d5 f   Background.obj
 0001:000051e2       ?CreateBackgroundObject@CBackgroundInfo@@SAPAV1@PB_W_N@Z 004061e2 f   Background.obj
 0001:000052e3       ?CreateField@CBackground@@QAE_NHH@Z 004062e3 f   Background.obj
 0001:000053ee       ?Destroy@CBackground@@AAEXXZ 004063ee f   Background.obj
 0001:00005435       ?FillBackground@CBackground@@QAE_NPBUtagBITMAPFILEHEADER@@JJJJW4BackgroundOp@@_N@Z 00406435 f   Background.obj
 0001:0000582a       ?FinalRelease@CVConGroup@@MAEXXZ 0040682a f   VConGroup.obj
 0001:0000582a       ?FinalRelease@CFont@@MAEXXZ 0040682a f   Font.obj
 0001:0000582a       ?FinalRelease@CTabID@@MAEXXZ 0040682a f   TabID.obj
 0001:0000582a       ?FinalRelease@CRConData@@MAEXXZ 0040682a f   RConData.obj
 0001:0000582a       ?FinalRelease@CBackgroundInfo@@UAEXXZ 0040682a f   Background.obj
 0001:00005836       ?GetBgImgData@CBackgroundInfo@@QAEPBUtagBITMAPFILEHEADER@@XZ 00406836 f   Background.obj
 0001:00005844       ?HasPluginBackgroundImage@CBackground@@QAE_NPAJ0@Z 00406844 f   Background.obj
 0001:00005892       ?IsBackgroundValid@CBackground@@SAIPBUCESERVER_REQ_SETBACKGROUND@@PA_N@Z 00406892 f   Background.obj
 0001:00005912       ?LoadBackgroundFile@CBackgroundInfo@@QAE_N_N@Z 00406912 f   Background.obj
 0001:00005a9b       ?NeedBackgroundUpdate@CBackground@@QAEXXZ 00406a9b f   Background.obj
 0001:00005aa4       ?PollBackgroundFile@CBackgroundInfo@@QAE_NXZ 00406aa4 f   Background.obj
 0001:00005b75       ?PrepareBackground@CBackground@@QAE_NPAVCVirtualConsole@@AAPAUHDC__@@AAU_COORD@@@Z 00406b75 f   Background.obj
 0001:00005f60       ?PutPluginBackgroundImage@CBackground@@AAE_NJJJJ@Z 00406f60 f   Background.obj
 0001:000061a2       ?Release@CRefRelease@@QAEHXZ 004071a2 f i Background.obj
 0001:000061d9       ?SetPluginBackgroundImageData@CBackground@@QAEHPAUCESERVER_REQ_SETBACKGROUND@@AA_N@Z 004071d9 f   Background.obj
 0001:000063a9       ??0CBaseDropTarget@@QAE@XZ 004073a9 f   BaseDragDrops.obj
 0001:000063b9       ??0CDataObject@@QAE@PAUtagFORMATETC@@PAUtagSTGMEDIUM@@H@Z 004073b9 f   BaseDragDrops.obj
 0001:00006462       ??0CDropSource@@QAE@PAVCDragDropData@@@Z 00407462 f   BaseDragDrops.obj
 0001:00006489       ??0CEnumFormatEtc@@QAE@PAUtagFORMATETC@@H@Z 00407489 f   BaseDragDrops.obj
 0001:000064f1       ??1CBaseDropTarget@@UAE@XZ 004074f1 f   BaseDragDrops.obj
 0001:000064f8       ??1CDataObject@@UAE@XZ     004074f8 f   BaseDragDrops.obj
 0001:0000657d       ??1CEnumFormatEtc@@UAE@XZ  0040757d f   BaseDragDrops.obj
 0001:00006605       ??_GCBaseDropTarget@@UAEPAXI@Z 00407605 f i BaseDragDrops.obj
 0001:00006605       ??_ECBaseDropTarget@@UAEPAXI@Z 00407605 f i BaseDragDrops.obj
 0001:00006628       ??_ECDataObject@@UAEPAXI@Z 00407628 f i BaseDragDrops.obj
 0001:00006628       ??_GCDataObject@@UAEPAXI@Z 00407628 f i BaseDragDrops.obj
 0001:0000664a       ??_GCDropSource@@UAEPAXI@Z 0040764a f i BaseDragDrops.obj
 0001:0000664a       ??_ECDropSource@@UAEPAXI@Z 0040764a f i BaseDragDrops.obj
 0001:0000666d       ??_GCEnumFormatEtc@@UAEPAXI@Z 0040766d f i BaseDragDrops.obj
 0001:0000666d       ??_ECEnumFormatEtc@@UAEPAXI@Z 0040766d f i BaseDragDrops.obj
 0001:0000668f       ?AddRef@CDataObject@@UAGKXZ 0040768f f   BaseDragDrops.obj
 0001:0000668f       ?AddRef@CEnumFormatEtc@@UAGKXZ 0040768f f   BaseDragDrops.obj
 0001:0000668f       ?AddRef@CBaseDropTarget@@UAGKXZ 0040768f f   BaseDragDrops.obj
 0001:000066a3       ?AddRef@CDropSource@@UAGKXZ 004076a3 f   BaseDragDrops.obj
 0001:000066b7       ?Clone@CEnumFormatEtc@@UAGJPAPAUIEnumFORMATETC@@@Z 004076b7 f   BaseDragDrops.obj
 0001:000066e3       ?CreateDataObject@@YAJPAUtagFORMATETC@@PAUtagSTGMEDIUM@@IPAPAVCDataObject@@@Z 004076e3 f   BaseDragDrops.obj
 0001:00006737       ?CreateDropSource@@YAJPAPAUIDropSource@@PAVCDragDropData@@@Z 00407737 f   BaseDragDrops.obj
 0001:00006779       ?CreateEnumFormatEtc@@YAJIPAUtagFORMATETC@@PAPAUIEnumFORMATETC@@@Z 00407779 f   BaseDragDrops.obj
 0001:000067d6       ?DAdvise@CDataObject@@UAGJPAUtagFORMATETC@@KPAUIAdviseSink@@PAK@Z 004077d6 f   BaseDragDrops.obj
 0001:00006817       ?DragLeave@CBaseDropTarget@@UAGJXZ 00407817 f   BaseDragDrops.obj
 0001:0000681c       ?DragOver@CBaseDropTarget@@UAGJKU_POINTL@@PAK@Z 0040781c f   BaseDragDrops.obj
 0001:00006821       ?DragEnter@CBaseDropTarget@@UAGJPAUIDataObject@@KU_POINTL@@PAK@Z 00407821 f   BaseDragDrops.obj
 0001:00006821       ?Drop@CBaseDropTarget@@UAGJPAUIDataObject@@KU_POINTL@@PAK@Z 00407821 f   BaseDragDrops.obj
 0001:00006826       ?DupMem@@YAPAXPAX@Z        00407826 f   BaseDragDrops.obj
 0001:00006870       ?DUnadvise@CDataObject@@UAGJK@Z 00407870 f   BaseDragDrops.obj
 0001:00006870       ?EnumDAdvise@CDataObject@@UAGJPAPAUIEnumSTATDATA@@@Z 00407870 f   BaseDragDrops.obj
 0001:00006878       ?EnumFormatEtc@CDataObject@@UAGJKPAPAUIEnumFORMATETC@@@Z 00407878 f   BaseDragDrops.obj
 0001:0000692b       ?GetCanonicalFormatEtc@CDataObject@@UAGJPAUtagFORMATETC@@0@Z 0040792b f   BaseDragDrops.obj
 0001:0000693e       ?GetData@CDataObject@@UAGJPAUtagFORMATETC@@PAUtagSTGMEDIUM@@@Z 0040793e f   BaseDragDrops.obj
 0001:000069e8       ?GetDataHere@CDataObject@@UAGJPAUtagFORMATETC@@PAUtagSTGMEDIUM@@@Z 004079e8 f   BaseDragDrops.obj
 0001:000069f0       ?GiveFeedback@CDropSource@@UAGJK@Z 004079f0 f   BaseDragDrops.obj
 0001:00006a8e       ?LookupFormatEtc@CDataObject@@AAEHPAUtagFORMATETC@@@Z 00407a8e f   BaseDragDrops.obj
 0001:00006ad8       ?Next@CEnumFormatEtc@@UAGJKPAUtagFORMATETC@@PAK@Z 00407ad8 f   BaseDragDrops.obj
 0001:00006b38       ?QueryContinueDrag@CDropSource@@UAGJHK@Z 00407b38 f   BaseDragDrops.obj
 0001:00006ba1       ?QueryGetData@CDataObject@@UAGJPAUtagFORMATETC@@@Z 00407ba1 f   BaseDragDrops.obj
 0001:00006bc2       ?QueryInterface@CBaseDropTarget@@UAGJABU_GUID@@PAPAX@Z 00407bc2 f   BaseDragDrops.obj
 0001:00006c17       ?QueryInterface@CDataObject@@UAGJABU_GUID@@PAPAX@Z 00407c17 f   BaseDragDrops.obj
 0001:00006c6c       ?QueryInterface@CDropSource@@UAGJABU_GUID@@PAPAX@Z 00407c6c f   BaseDragDrops.obj
 0001:00006cc1       ?QueryInterface@CEnumFormatEtc@@UAGJABU_GUID@@PAPAX@Z 00407cc1 f   BaseDragDrops.obj
 0001:00006d16       ?Release@CDataObject@@UAGKXZ 00407d16 f   BaseDragDrops.obj
 0001:00006d3f       ?Release@CDropSource@@UAGKXZ 00407d3f f   BaseDragDrops.obj
 0001:00006d68       ?Release@CEnumFormatEtc@@UAGKXZ 00407d68 f   BaseDragDrops.obj
 0001:00006d68       ?Release@CBaseDropTarget@@UAGKXZ 00407d68 f   BaseDragDrops.obj
 0001:00006d91       ?Reset@CEnumFormatEtc@@UAGJXZ 00407d91 f   BaseDragDrops.obj
 0001:00006da1       ?SetData@CDataObject@@UAGJPAUtagFORMATETC@@PAUtagSTGMEDIUM@@H@Z 00407da1 f   BaseDragDrops.obj
 0001:00006e51       ?SetDataInt@CDataObject@@QAEJPB_WPBXK@Z 00407e51 f   BaseDragDrops.obj
 0001:00006ec4       ?Skip@CEnumFormatEtc@@UAGJK@Z 00407ec4 f   BaseDragDrops.obj
 0001:00006ede       ?alloc@?$MArray@UDragData@CDataObject@@@@QAE_NH@Z 00407ede f i BaseDragDrops.obj
 0001:00006ede       ?alloc@?$MArray@PAX@@QAE_NH@Z 00407ede f i TaskBar.obj
 0001:00006ede       ?alloc@?$MArray@H@@QAE_NH@Z 00407ede f i CmdHistory.obj
 0001:00006ede       ?alloc@?$MArray@ULngRcItem@CLngRc@@@@QAE_NH@Z 00407ede f i LngRc.obj
 0001:00006f1c       ??0CommandHistory@@QAE@H@Z 00407f1c f   CmdHistory.obj
 0001:00006f49       ??1CommandHistory@@QAE@XZ  00407f49 f   CmdHistory.obj
 0001:00006f8e       ?Add@CommandHistory@@QAEXPB_W_N@Z 00407f8e f   CmdHistory.obj
 0001:00007095       ?Compare@CommandHistory@@QAEHHPB_W@Z 00408095 f   CmdHistory.obj
 0001:000070d1       ?CreateMSZ@CommandHistory@@QAEIAAPA_W@Z 004080d1 f   CmdHistory.obj
 0001:000071f5       ?FreeItems@CommandHistory@@QAEXXZ 004081f5 f   CmdHistory.obj
 0001:0000722f       ?Get@CommandHistory@@QAEPB_WH@Z 0040822f f   CmdHistory.obj
 0001:0000725a       ?ParseMSZ@CommandHistory@@QAEXPB_W@Z 0040825a f   CmdHistory.obj
 0001:000072b0       ?insert@?$MArray@PAVCTabID@@@@QAEXHABQAVCTabID@@@Z 004082b0 f i TabBar.obj
 0001:000072b0       ?insert@?$MArray@PA_W@@QAEXHABQA_W@Z 004082b0 f i CmdHistory.obj
 0001:00007327       ??0ColorFix@@QAE@K@Z       00408327 f   ColorFix.obj
 0001:0000733e       ??0ColorFix@@QAE@XZ        0040833e f   ColorFix.obj
 0001:00007350       ??0dE00@@QAE@UColorFix@@0NNN@Z 00408350 f i ColorFix.obj
 0001:00007605       ?DeltaE@ColorFix@@QAENU1@@Z 00408605 f   ColorFix.obj
 0001:00007667       ?DeltaE@ColorSpace@@YANUColorFix@@0@Z 00408667 f   ColorFix.obj
 0001:000076ec       ?PerceivableColor@ColorFix@@QAE_NKAAU1@PAN1@Z 004086ec f   ColorFix.obj
 0001:00007846       ?ToLab@ColorFix@@QAEXXZ    00408846 f   ColorFix.obj
 0001:00007892       ?ToRGB@ColorFix@@QAEXXZ    00408892 f   ColorFix.obj
 0001:000078b2       ?_gethPrimeFn@dE00@@QAENNN@Z 004088b2 f i ColorFix.obj
 0001:00007911       ?getDeltaE@dE00@@QAENXZ    00408911 f i ColorFix.obj
 0001:00007b0f       ?getDeltahPrime@dE00@@QAENXZ 00408b0f f i ColorFix.obj
 0001:00007b86       ?getHBarPrime@dE00@@QAENXZ 00408b86 f i ColorFix.obj
 0001:00007bec       ?getRsubT@dE00@@QAENXZ     00408bec f i ColorFix.obj
 0001:00007cab       ?getT@dE00@@QAENXZ         00408cab f i ColorFix.obj
 0001:00007d99       ?lab2rgb@ColorSpace@@YAXNNNAAK@Z 00408d99 f   ColorFix.obj
 0001:00007e35       ?lab2rgb@ColorSpace@@YAXNNNAAN00@Z 00408e35 f   ColorFix.obj
 0001:000080d0       ?min_max@ColorSpace@@YAEN@Z 004090d0 f   ColorFix.obj
 0001:000080f9       ?rgb2lab@ColorSpace@@YAXNNNAAN00@Z 004090f9 f   ColorFix.obj
 0001:00008383       ??$GetPageObj@VCSetPgInfo@@@CSettings@@QAE_NAAPAVCSetPgInfo@@@Z 00409383 f i ConEmu.obj
 0001:000083b2       ??$SafeDelete@UCEFindDlg@@@@YAXAAPAUCEFindDlg@@@Z 004093b2 f i ConEmu.obj
 0001:000083e1       ??$SafeDelete@UMSectionLockSimple@@@@YAXAAPAUMSectionLockSimple@@@Z 004093e1 f i ConEmu.obj
 0001:0000841e       ??$SafeDelete@UMSectionSimple@@@@YAXAAPAUMSectionSimple@@@Z 0040941e f i ConEmu.obj
 0001:0000845b       ??$SafeDelete@VCAltNumpad@@@@YAXAAPAVCAltNumpad@@@Z 0040945b f i ConEmu.obj
 0001:00008498       ??$SafeDelete@VCAttachDlg@@@@YAXAAPAVCAttachDlg@@@Z 00409498 f i ConEmu.obj
 0001:000084d5       ??$SafeDelete@VCConEmuMenu@@@@YAXAAPAVCConEmuMenu@@@Z 004094d5 f i ConEmu.obj
 0001:00008512       ??$SafeDelete@VCDefaultTerminal@@@@YAXAAPAVCDefaultTerminal@@@Z 00409512 f i ConEmu.obj
 0001:00008543       ??$SafeDelete@VCRecreateDlg@@@@YAXAAPAVCRecreateDlg@@@Z 00409543 f i ConEmu.obj
 0001:00008583       ??$SafeDelete@VCRunQueue@@@@YAXAAPAVCRunQueue@@@Z 00409583 f i ConEmu.obj
 0001:000085c0       ??$wcscat_c@$0BAE@@@YAHAAY0BAE@_WPB_W@Z 004095c0 f i ConEmu.obj
 0001:000085d5       ??$wcscat_c@$0BAF@@@YAHAAY0BAF@_WPB_W@Z 004095d5 f i ConEmu.obj
 0001:000085ea       ??$wcscpy_add@$0BCE@@@YAHPA_WAAY0BCE@_WPB_W@Z 004095ea f i ConEmu.obj
 0001:00008617       ??$wcscpy_c@$0BAF@@@YAHAAY0BAF@_WPB_W@Z 00409617 f i ConEmu.obj
 0001:0000862c       ??$wcscpy_c@$0BBA@@@YAHAAY0BBA@_WPB_W@Z 0040962c f i ConEmu.obj
 0001:00008641       ??$wcscpy_c@$0BCE@@@YAHAAY0BCE@_WPB_W@Z 00409641 f i ConEmu.obj
 0001:00008656       ??0CConEmuMain@@QAE@XZ     00409656 f   ConEmu.obj
 0001:000094a0       ??0CallMainThreadArg@@QAE@JH@Z 0040a4a0 f i ConEmu.obj
 0001:000094d5       ??0MWow64Disable@@QAE@XZ   0040a4d5 f i ConEmu.obj
 0001:0000951b       ??1?$MArray@UGuiMacroArg@@@@QAE@XZ 0040a51b f i Macro.obj
 0001:0000951b       ??1?$MArray@U_ThInfo@CDragDrop@@@@QAE@XZ 0040a51b f i DragDrop.obj
 0001:0000951b       ??1?$MArray@UTabIconCache@CIconList@@@@QAE@XZ 0040a51b f i IconList.obj
 0001:0000951b       ??1?$MArray@PAUSwitch@@@@QAE@XZ 0040a51b f i SetPgIntegr.obj
 0001:0000951b       ??1?$MArray@H@@QAE@XZ      0040a51b f i CmdHistory.obj
 0001:0000951b       ??1?$MArray@UCmdTaskPopupItem@CConEmuMenu@@@@QAE@XZ 0040a51b f i Menu.obj
 0001:0000951b       ??1?$MArray@USshAgent@CConEmuMain@@@@QAE@XZ 0040a51b f i ConEmu.obj
 0001:0000951b       ??1?$MArray@PAVCTabID@@@@QAE@XZ 0040a51b f i TabBar.obj
 0001:0000951b       ??1?$MArray@URunQueueItem@CRunQueue@@@@QAE@XZ 0040a51b f i RunQueue.obj
 0001:0000951b       ??1?$MArray@PAUHWND__@@@@QAE@XZ 0040a51b f i ConEmu.obj
 0001:0000951b       ??1?$MArray@PAVCVConGuard@@@@QAE@XZ 0040a51b f i Macro.obj
 0001:0000951b       ??1?$MArray@PAVCFont@@@@QAE@XZ 0040a51b f i FontMgr.obj
 0001:0000951b       ??1?$MArray@UFontHeightInfo@@@@QAE@XZ 0040a51b f i FontMgr.obj
 0001:0000951b       ??1?$MArray@UAttachParm@@@@QAE@XZ 0040a51b f i Attach.obj
 0001:0000951b       ??1?$MArray@PA_W@@QAE@XZ   0040a51b f i ConEmu.obj
 0001:0000951b       ??1?$MArray@PAVCVConGroup@@@@QAE@XZ 0040a51b f i VConGroup.obj
 0001:0000951b       ??1?$MArray@URegFont@@@@QAE@XZ 0040a51b f i FontMgr.obj
 0001:0000951b       ??1?$MArray@UVarDef@CVarDefs@@@@QAE@XZ 0040a51b f i OptionsFast.obj
 0001:0000951b       ??1?$MArray@UDragData@CDataObject@@@@QAE@XZ 0040a51b f i BaseDragDrops.obj
 0001:00009551       ??1CConEmuMain@@UAE@XZ     0040a551 f   ConEmu.obj
 0001:00009817       ??1MWow64Disable@@QAE@XZ   0040a817 f i ConEmu.obj
 0001:0000984d       ??_ECConEmuMain@@WBBE@AEPAXI@Z 0040a84d f i ConEmu.obj
 0001:00009858       ??_ECConEmuMain@@WBEE@AEPAXI@Z 0040a858 f i ConEmu.obj
 0001:00009863       ??_ECConEmuMain@@WBIA@AEPAXI@Z 0040a863 f i ConEmu.obj
 0001:0000986e       ??_ECConEmuMain@@WDAM@AEPAXI@Z 0040a86e f i ConEmu.obj
 0001:00009879       ??_ECConEmuMain@@WJE@AEPAXI@Z 0040a879 f i ConEmu.obj
 0001:00009884       ??_ECConEmuMain@@WMI@AEPAXI@Z 0040a884 f i ConEmu.obj
 0001:0000988f       ??_ECConEmuMain@@UAEPAXI@Z 0040a88f f i ConEmu.obj
 0001:0000988f       ??_GCConEmuMain@@UAEPAXI@Z 0040a88f f i ConEmu.obj
 0001:000098b4       ?Activate@CConEmuMain@@QAEHPAVCVirtualConsole@@@Z 0040a8b4 f   ConEmu.obj
 0001:0000991c       ?ActiveConNum@CConEmuMain@@QAEHXZ 0040a91c f   ConEmu.obj
 0001:00009921       ?AddPostGuiRConMacro@CConEmuMain@@QAEXPB_W@Z 0040a921 f   ConEmu.obj
 0001:00009939       ?AppendExtraArgs@CConEmuMain@@QAEXPB_W0@Z 0040a939 f   ConEmu.obj
 0001:000099a8       ?AppendHKL@CConEmuMain@@IAEXPA_WIPAPAUHKL__@@H@Z 0040a9a8 f   ConEmu.obj
 0001:00009a1b       ?AppendRegisteredLayouts@CConEmuMain@@IAEXPA_WI@Z 0040aa1b f   ConEmu.obj
 0001:00009aa6       ?AskChangeAlternative@CConEmuMain@@QAEXXZ 0040aaa6 f   ConEmu.obj
 0001:00009b2e       ?AskChangeBufferHeight@CConEmuMain@@QAEXXZ 0040ab2e f   ConEmu.obj
 0001:00009bf2       ?AttachToDialog@CConEmuMain@@QAEXXZ 0040abf2 f   ConEmu.obj
 0001:00009c40       ?CallMainThread@CConEmuMain@@QAEJ_NP6AJJ@ZJ@Z 0040ac40 f   ConEmu.obj
 0001:00009cd9       ?CanSetChildFocus@CConEmuMain@@QAE_NXZ 0040acd9 f   ConEmu.obj
 0001:00009ce5       ?ChangeWorkDir@CConEmuMain@@QAE_NPB_W@Z 0040ace5 f   ConEmu.obj
 0001:00009d20       ?CheckActiveLayoutName@CConEmuMain@@IAEXXZ 0040ad20 f   ConEmu.obj
 0001:00009ebc       ?CheckAllowAutoChildFocus@CConEmuMain@@QAEXK@Z 0040aebc f   ConEmu.obj
 0001:00009f5c       ?CheckBaseDir@CConEmuMain@@AAE_NXZ 0040af5c f   ConEmu.obj
 0001:00009fe3       ?CheckDosBoxExists@CConEmuMain@@AAEHXZ 0040afe3 f   ConEmu.obj
 0001:0000a090       ?CheckFocus@CConEmuMain@@QAEXPB_W@Z 0040b090 f   ConEmu.obj
 0001:0000a354       ?CheckForeground@CDefTermBase@@QAE_NPAUHWND__@@K_N1@Z 0040b354 f i ConEmu.obj
 0001:0000a785       ?CheckNeedRepaint@CConEmuMain@@QAEXXZ 0040b785 f   ConEmu.obj
 0001:0000a7f6       ?CheckNeedUpdateTitle@CConEmuMain@@QAEXPB_W@Z 0040b7f6 f   ConEmu.obj
 0001:0000a851       ?CheckPanelDrag@CConEmuMain@@QAE?AW4DragPanelBorder@@U_COORD@@@Z 0040b851 f   ConEmu.obj
 0001:0000a9d0       ?CheckRequiredFiles@CConEmuMain@@QAE_NXZ 0040b9d0 f   ConEmu.obj
 0001:0000adc3       ?CheckShellWindow@CDefTermBase@@IAE_NXZ 0040bdc3 f i ConEmu.obj
 0001:0000af18       ?CheckUpdates@CConEmuMain@@QAEXI@Z 0040bf18 f   ConEmu.obj
 0001:0000af76       ?ClearProcessed@CDefTermBase@@IAEX_N@Z 0040bf76 f i ConEmu.obj
 0001:0000b02c       ?CloseConfirmFlags@CConEmuMain@@QAEEXZ 0040c02c f   ConEmu.obj
 0001:0000b044       ?ConActivate@CConEmuMain@@QAE_NH@Z 0040c044 f   ConEmu.obj
 0001:0000b054       ?ConActivateByName@CConEmuMain@@QAE_NPB_W@Z 0040c054 f   ConEmu.obj
 0001:0000b064       ?ConActivateNext@CConEmuMain@@QAE_N_N@Z 0040c064 f   ConEmu.obj
 0001:0000b074       ?ConEmuCExeFull@CConEmuMain@@QAEPB_WPB_W@Z 0040c074 f   ConEmu.obj
 0001:0000b4cf       ?ConEmuIni@CConEmuMain@@QAEPA_WXZ 0040c4cf f   ConEmu.obj
 0001:0000b5c0       ?ConEmuXml@CConEmuMain@@QAEPA_WPA_N@Z 0040c5c0 f   ConEmu.obj
 0001:0000b79f       ?CreateCon@CConEmuMain@@QAEPAVCVirtualConsole@@PAURConStartArgsEx@@_N1@Z 0040c79f f   ConEmu.obj
 0001:0000b7c4       ?CreateConGroup@CConEmuMain@@QAEPAVCVirtualConsole@@PB_W_N0PBURConStartArgsEx@@@Z 0040c7c4 f   ConEmu.obj
 0001:0000bc3e       ?CreateGhostVCon@CConEmuMain@@QAEXPAVCVirtualConsole@@@Z 0040cc3e f   ConEmu.obj
 0001:0000bc5c       ?CreateGuiAttachMapping@CConEmuMain@@QAEXK@Z 0040cc5c f   ConEmu.obj
 0001:0000bca8       ?CreateLog@CConEmuMain@@QAE_NXZ 0040cca8 f   ConEmu.obj
 0001:0000bdc0       ?CreateMainWindow@CConEmuMain@@QAEHXZ 0040cdc0 f   ConEmu.obj
 0001:0000c348       ?CreateStartupConsoles@CConEmuMain@@IAE_NXZ 0040d348 f   ConEmu.obj
 0001:0000c66b       ?CreateWnd@CConEmuMain@@QAE_NPAURConStartArgsEx@@@Z 0040d66b f   ConEmu.obj
 0001:0000c934       ?CreateWorkWindow@CConEmuMain@@QAEHXZ 0040d934 f   ConEmu.obj
 0001:0000c9c5       ?CtrlWinAltSpace@CConEmuMain@@QAEXXZ 0040d9c5 f   ConEmu.obj
 0001:0000ca17       ?DebugStep@CConEmuMain@@QAEXPB_WH@Z 0040da17 f   ConEmu.obj
 0001:0000cab8       ?DeinitOnDestroy@CConEmuMain@@AAEXPAUHWND__@@_N@Z 0040dab8 f   ConEmu.obj
 0001:0000cc3e       ?DeleteVConMainThread@CConEmuMain@@QAEXPAVCVirtualConsole@@@Z 0040dc3e f   ConEmu.obj
 0001:0000cc5c       ?Destroy@CConEmuMain@@QAEX_N@Z 0040dc5c f   ConEmu.obj
 0001:0000cd10       ?DestroyAllChildWindows@CConEmuMain@@AAEXXZ 0040dd10 f   ConEmu.obj
 0001:0000cd75       ?Disable@MWow64Disable@@QAEXXZ 0040dd75 f i ConEmu.obj
 0001:0000cd8f       ?DoFlashWindow@CConEmuMain@@QAEXPAUCESERVER_REQ_FLASHWINFO@@_N@Z 0040dd8f f   ConEmu.obj
 0001:0000ce19       ?EnterAltNumpadMode@CConEmuMain@@QAEXI@Z 0040de19 f   ConEmu.obj
 0001:0000ce5f       ?EnumKeysValues@?$MMap@IPBD$0A@@@QAE_NP6A_NABIABQBDJ@ZJ@Z 0040de5f f i ConEmu.obj
 0001:0000cee5       ?EnumWindowsOverQuake@CConEmuMain@@KGHPAUHWND__@@J@Z 0040dee5 f   ConEmu.obj
 0001:0000cfed       ?ExecPostGuiMacro@CConEmuMain@@QAEXXZ 0040dfed f   ConEmu.obj
 0001:0000d10f       ?isLogging@CDefTermBase@@UAE_NXZ 0040e10f f   DefaultTerm.obj
 0001:0000d10f       ?ExecuteProcessPrepare@CConEmuMain@@IAE_NXZ 0040e10f f   ConEmu.obj
 0001:0000d1be       ?FillConEmuMainFont@CConEmuMain@@AAEXPAUConEmuMainFont@@@Z 0040e1be f   ConEmu.obj
 0001:0000d270       ?FixWindowStyle@CConEmuMain@@QAEKKW4ConEmuWindowMode@@@Z 0040e270 f   ConEmu.obj
 0001:0000d30f       ?ForceSelectionModifierPressed@CConEmuMain@@QAEXK@Z 0040e30f f   ConEmu.obj
 0001:0000d329       ?ForceShowTabs@CConEmuMain@@QAEXH@Z 0040e329 f   ConEmu.obj
 0001:0000d39a       ?GetActiveKeyboardLayout@CConEmuMain@@QAEKXZ 0040e39a f   ConEmu.obj
 0001:0000d3a7       ?GetActiveVCon@CConEmuMain@@QAEHPAVCVConGuard@@PAH@Z 0040e3a7 f   ConEmu.obj
 0001:0000d3bb       ?GetAnsiLogInfo@CConEmuMain@@QAEXAAUConEmuAnsiLog@@@Z 0040e3bb f   ConEmu.obj
 0001:0000d400       ?GetComSpecCopy@CConEmuMain@@QAEXAAUConEmuComspec@@@Z 0040e400 f   ConEmu.obj
 0001:0000d41b       ?GetConCount@CConEmuMain@@QAEHXZ 0040e41b f   ConEmu.obj
 0001:0000d424       ?GetCurrentVConIcon@CConEmuMain@@QAEPAUHICON__@@XZ 0040e424 f   ConEmu.obj
 0001:0000d488       ?GetDefaultTabLabel@CConEmuMain@@QAEPB_WXZ 0040e488 f   ConEmu.obj
 0001:0000d48e       ?GetDefaultTitle@CConEmuMain@@QAEPB_WXZ 0040e48e f   ConEmu.obj
 0001:0000d495       ?GetFarPID@CConEmuMain@@QAEK_N@Z 0040e495 f   ConEmu.obj
 0001:0000d4a5       ?GetGuiInfo@CConEmuMain@@QAEXAAUConEmuGuiMapping@@@Z 0040e4a5 f   ConEmu.obj
 0001:0000d4c3       ?GetLastTitle@CConEmuMain@@QAEPB_W_N@Z 0040e4c3 f   ConEmu.obj
 0001:0000d4ed       ?GetRegisteredMessage@CConEmuMain@@QAEIPBDPB_W@Z 0040e4ed f   ConEmu.obj
 0001:0000d530       ?GetRootHWND@CConEmuMain@@QAEPAUHWND__@@XZ 0040e530 f   ConEmu.obj
 0001:0000d54e       ?GetWindowStyle@CConEmuMain@@QAEKXZ 0040e54e f   ConEmu.obj
 0001:0000d56a       ?GetWindowStyleEx@CConEmuMain@@QAEKXZ 0040e56a f   ConEmu.obj
 0001:0000d5ad       ?GlobalHotKeyChanged@CConEmuMain@@QAEXXZ 0040e5ad f   ConEmu.obj
 0001:0000d5d5       ?InCreateWindow@CConEmuMain@@QAE_NXZ 0040e5d5 f   ConEmu.obj
 0001:0000d5e0       ?InQuakeAnimation@CConEmuMain@@QAE_NXZ 0040e5e0 f   ConEmu.obj
 0001:0000d5eb       ?Init@CConEmuMain@@QAEHXZ  0040e5eb f   ConEmu.obj
 0001:0000d68d       ?InitComSpecStr@CConEmuMain@@QAEXAAUConEmuComspec@@@Z 0040e68d f   ConEmu.obj
 0001:0000d6c6       ?InitInactiveDC@CConEmuMain@@QAEXPAVCVirtualConsole@@@Z 0040e6c6 f   ConEmu.obj
 0001:0000d6e4       ?InternalOpenCreate@?$MFileMapping@UConEmuGuiMapping@@@@IAEPAUConEmuGuiMapping@@HHH@Z 0040e6e4 f i ConEmu.obj
 0001:0000d7ff       ?Invalidate@CConEmuMain@@QAEXPAUtagRECT@@H@Z 0040e7ff f   ConEmu.obj
 0001:0000d818       ?InvalidateAll@CConEmuMain@@QAEXXZ 0040e818 f   ConEmu.obj
 0001:0000d845       ?InvalidateGaps@CConEmuMain@@QAEXXZ 0040e845 f   ConEmu.obj
 0001:0000d85b       ?IsActiveConAdmin@CConEmuMain@@QAE_NXZ 0040e85b f   ConEmu.obj
 0001:0000d8af       ?IsAllowSaveSettingsOnExit@CConEmuMain@@QAE_NXZ 0040e8af f   ConEmu.obj
 0001:0000d8cc       ?IsAppMonitored@CDefTermBase@@IAE_NPB_W@Z 0040e8cc f i ConEmu.obj
 0001:0000d908       ?IsAppMonitored@CDefTermBase@@QAE_NPAUHWND__@@K_NPAUtagPROCESSENTRY32W@@PA_W@Z 0040e908 f i ConEmu.obj
 0001:0000db05       ?IsChildFocusAllowed@CConEmuMain@@QAE_NPAUHWND__@@@Z 0040eb05 f   ConEmu.obj
 0001:0000db8d       ?IsConsoleBatchOrTask@CConEmuMain@@SA_WPB_W@Z 0040eb8d f   ConEmu.obj
 0001:0000dc0d       ?IsExplorerWindowClass@CDefTermBase@@SA_NPB_W@Z 0040ec0d f i ConEmu.obj
 0001:0000dc42       ?IsFastSetupDisabled@CConEmuMain@@QAE_NXZ 0040ec42 f   ConEmu.obj
 0001:0000dc5f       ?IsKeyboardHookRegistered@CConEmuMain@@QAE_NXZ 0040ec5f f   ConEmu.obj
 0001:0000dc6a       ?IsQuakeVisible@CConEmuMain@@QAEIXZ 0040ec6a f   ConEmu.obj
 0001:0000dde2       ?IsReady@CDefTermBase@@QAE_NXZ 0040ede2 f i ConEmu.obj
 0001:0000ddf8       ?IsResetBasicSettings@CConEmuMain@@QAE_NXZ 0040edf8 f   ConEmu.obj
 0001:0000de04       ?IsShellTrayWindowClass@CDefTermBase@@SA_NPB_W@Z 0040ee04 f i ConEmu.obj
 0001:0000de27       ?IsWindowResponsive@CDefTermBase@@SA_NPAUHWND__@@@Z 0040ee27 f i ConEmu.obj
 0001:0000de4f       ?LoadConEmuCD@CConEmuMain@@IAEPAUHINSTANCE__@@XZ 0040ee4f f   ConEmu.obj
 0001:0000dedc       ?LoadConsoleBatch@CConEmuMain@@QAEPA_WPB_WPAURConStartArgsEx@@@Z 0040eedc f   ConEmu.obj
 0001:0000dfad       ?LoadConsoleBatch_Drops@CConEmuMain@@AAEPA_WPB_W@Z 0040efad f   ConEmu.obj
 0001:0000e497       ?LoadConsoleBatch_File@CConEmuMain@@AAEPA_WPB_W@Z 0040f497 f   ConEmu.obj
 0001:0000e6c6       ?LoadConsoleBatch_Task@CConEmuMain@@AAEPA_WPB_WPAURConStartArgsEx@@@Z 0040f6c6 f   ConEmu.obj
 0001:0000ea8a       ?LoadIcons@CConEmuMain@@QAEXXZ 0040fa8a f   ConEmu.obj
 0001:0000ed95       ?LockConhostStart@CConEmuMain@@QAE_NXZ 0040fd95 f   ConEmu.obj
 0001:0000eddc       ?Log@ConEmuMsgLogger@@YAXABUtagMSG@@W4Source@1@@Z 0040fddc f i ConEmu.obj
 0001:0000ee39       ?Log@SessionInfo@CConEmuMain@@QAEXIJ@Z 0040fe39 f   ConEmu.obj
 0001:0000ee7d       ?LogFocusInfo@@YAXPB_WH@Z  0040fe7d f   ConEmu.obj
 0001:0000ef27       ?LogMessage@CConEmuMain@@QAEXPAUHWND__@@IIJ@Z 0040ff27 f   ConEmu.obj
 0001:0000f317       ?LogPos@ConEmuMsgLogger@@YAXABUtagMSG@@W4Source@1@@Z 00410317 f   ConEmu.obj
 0001:0000f466       ?LogString@CConEmuMain@@QAEXPBD_N1@Z 00410466 f   ConEmu.obj
 0001:0000f48d       ?LogString@CConEmuMain@@QAEXPB_W_N1@Z 0041048d f   ConEmu.obj
 0001:0000f4b2       ?LogWindowPos@CConEmuMain@@QAEXPB_WPAUtagRECT@@@Z 004104b2 f   ConEmu.obj
 0001:0000f665       ?MainWndProc@CConEmuMain@@SGJPAUHWND__@@IIJ@Z 00410665 f   ConEmu.obj
 0001:0000f702       ?MakeConEmuStartArgs@CConEmuMain@@QAEPB_WAAUCEStr@@PB_W@Z 00410702 f   ConEmu.obj
 0001:0000f8d7       ?MemoryDumpActiveProcess@CConEmuMain@@QAE_N_N@Z 004108d7 f   ConEmu.obj
 0001:0000f981       ?MoveActiveTab@CConEmuMain@@QAEXPAVCVirtualConsole@@_N@Z 00410981 f   ConEmu.obj
 0001:0000f995       ?OnActivateByMouse@CConEmuMain@@QAEJPAUHWND__@@IIJ@Z 00410995 f   ConEmu.obj
 0001:0000fc2c       ?OnActivateSplitChanged@CConEmuMain@@QAEXXZ 00410c2c f   ConEmu.obj
 0001:0000fca2       ?OnActiveConWndStore@CConEmuMain@@QAEXPAUHWND__@@@Z 00410ca2 f   ConEmu.obj
 0001:0000fcf5       ?OnAllGhostClosed@CConEmuMain@@QAEXXZ 00410cf5 f   ConEmu.obj
 0001:0000fd64       ?OnAllVConClosed@CConEmuMain@@QAEXXZ 00410d64 f   ConEmu.obj
 0001:0000fe2a       ?OnAlwaysShowScrollbar@CConEmuMain@@QAEX_N@Z 00410e2a f   ConEmu.obj
 0001:0000fe3a       ?OnBufferHeight@CConEmuMain@@QAEXXZ 00410e3a f   ConEmu.obj
 0001:0000fef9       ?OnCreate@CConEmuMain@@QAEJPAUHWND__@@PAUtagCREATESTRUCTW@@@Z 00410ef9 f   ConEmu.obj
 0001:00010171       ?OnDefaultTermChanged@CConEmuMain@@QAEXXZ 00411171 f   ConEmu.obj
 0001:00010199       ?OnDestroy@CConEmuMain@@QAEJPAUHWND__@@@Z 00411199 f   ConEmu.obj
 0001:0001023e       ?OnFlashWindow@CConEmuMain@@QAEJIJ@Z 0041123e f   ConEmu.obj
 0001:0001026a       ?OnFocus@CConEmuMain@@QAEJPAUHWND__@@IIJPB_W_N@Z 0041126a f   ConEmu.obj
 0001:00010f4e       ?OnGhostCreated@CConEmuMain@@QAEXPAVCVirtualConsole@@PAUHWND__@@@Z 00411f4e f   ConEmu.obj
 0001:00010fd2       ?OnGlobalSettingsChanged@CConEmuMain@@QAEXXZ 00411fd2 f   ConEmu.obj
 0001:00010fed       ?OnHideCaption@CConEmuMain@@QAEXXZ 00411fed f   ConEmu.obj
 0001:000112fb       ?OnHookedListChanged@CDefTermBase@@QAEXXZ 004122fb f i ConEmu.obj
 0001:00011359       ?OnKeyboard@CConEmuMain@@QAEJPAUHWND__@@IIJ@Z 00412359 f   ConEmu.obj
 0001:00011ac2       ?OnKeyboardHook@CConEmuMain@@QAEJK@Z 00412ac2 f   ConEmu.obj
 0001:00011b4f       ?OnKeyboardIme@CConEmuMain@@QAEJPAUHWND__@@IIJ@Z 00412b4f f   ConEmu.obj
 0001:00011d5b       ?OnLangChange@CConEmuMain@@QAEJIIJ@Z 00412d5b f   ConEmu.obj
 0001:00011f2a       ?OnLangChangeConsole@CConEmuMain@@QAEJPAVCVirtualConsole@@K@Z 00412f2a f   ConEmu.obj
 0001:00012516       ?OnMainCreateFinished@CConEmuMain@@IAEXXZ 00413516 f   ConEmu.obj
 0001:0001271d       ?OnMouse@CConEmuMain@@QAEJPAUHWND__@@IIJ@Z 0041371d f   ConEmu.obj
 0001:0001366a       ?OnMouse_LBtnDblClk@CConEmuMain@@QAEJPAVCVirtualConsole@@PAUHWND__@@AAIIJUtagPOINT@@U_COORD@@@Z 0041466a f   ConEmu.obj
 0001:0001377e       ?OnMouse_LBtnDown@CConEmuMain@@QAEJPAVCVirtualConsole@@PAUHWND__@@IIJUtagPOINT@@U_COORD@@@Z 0041477e f   ConEmu.obj
 0001:0001397a       ?OnMouse_LBtnUp@CConEmuMain@@QAEJPAVCVirtualConsole@@PAUHWND__@@IIJUtagPOINT@@U_COORD@@@Z 0041497a f   ConEmu.obj
 0001:00013a0a       ?OnMouse_Move@CConEmuMain@@QAEJPAVCVirtualConsole@@PAUHWND__@@IIJUtagPOINT@@U_COORD@@@Z 00414a0a f   ConEmu.obj
 0001:00013e3f       ?OnMouse_NCBtnDblClk@CConEmuMain@@QAEHPAUHWND__@@AAIIJ@Z 00414e3f f   ConEmu.obj
 0001:00013e8a       ?OnMouse_RBtnDblClk@CConEmuMain@@QAEJPAVCVirtualConsole@@PAUHWND__@@AAIIJUtagPOINT@@U_COORD@@@Z 00414e8a f   ConEmu.obj
 0001:00013eb1       ?OnMouse_RBtnDown@CConEmuMain@@QAEJPAVCVirtualConsole@@PAUHWND__@@IIJUtagPOINT@@U_COORD@@@Z 00414eb1 f   ConEmu.obj
 0001:000140f1       ?OnMouse_RBtnUp@CConEmuMain@@QAEJPAVCVirtualConsole@@PAUHWND__@@IIJUtagPOINT@@U_COORD@@@Z 004150f1 f   ConEmu.obj
 0001:00014666       ?OnOurDialogClosed@CConEmuMain@@QAEXXZ 00415666 f   ConEmu.obj
 0001:0001466e       ?OnOurDialogOpened@CConEmuMain@@QAEXXZ 0041566e f   ConEmu.obj
 0001:00014676       ?OnPanelViewSettingsChanged@CConEmuMain@@QAEXH@Z 00415676 f   ConEmu.obj
 0001:0001474a       ?OnQueryEndSession@CConEmuMain@@QAEJPAUHWND__@@IIJ@Z 0041574a f   ConEmu.obj
 0001:000147db       ?OnRConStartedSuccess@CConEmuMain@@QAEXPAVCRealConsole@@@Z 004157db f   ConEmu.obj
 0001:000147f6       ?OnScClose@CConEmuMain@@QAE_NXZ 004157f6 f   ConEmu.obj
 0001:00014827       ?OnSessionChanged@CConEmuMain@@QAEJPAUHWND__@@IIJ@Z 00415827 f   ConEmu.obj
 0001:000149af       ?OnSetCursor@CConEmuMain@@QAEJIJ@Z 004159af f   ConEmu.obj
 0001:00014d3a       ?OnShellHook@CConEmuMain@@QAEJIJ@Z 00415d3a f   ConEmu.obj
 0001:00014e5c       ?OnSwitchGuiFocus@CConEmuMain@@QAEXW4SwitchGuiFocusOp@@@Z 00415e5c f   ConEmu.obj
 0001:00014f2f       ?OnTabbarActivated@CConEmuMain@@QAEX_N0@Z 00415f2f f   ConEmu.obj
 0001:00015142       ?OnTaskbarButtonCreated@CConEmuMain@@QAEXXZ 00416142 f   ConEmu.obj
 0001:000151bd       ?OnTaskbarCreated@CConEmuMain@@QAEXXZ 004161bd f   ConEmu.obj
 0001:00015208       ?OnTaskbarSettingsChanged@CConEmuMain@@QAEXXZ 00416208 f   ConEmu.obj
 0001:000152af       ?OnTimer@CConEmuMain@@QAEJIJ@Z 004162af f   ConEmu.obj
 0001:0001538a       ?OnTimer_ActivateSplit@CConEmuMain@@QAEXXZ 0041638a f   ConEmu.obj
 0001:00015543       ?OnTimer_AdmShield@CConEmuMain@@QAEXXZ 00416543 f   ConEmu.obj
 0001:000155aa       ?OnTimer_Background@CConEmuMain@@QAEXXZ 004165aa f   ConEmu.obj
 0001:000155d2       ?OnTimer_ConRedraw@CConEmuMain@@QAEXPAVCVirtualConsole@@@Z 004165d2 f   ConEmu.obj
 0001:000155fb       ?OnTimer_FrameAppearDisappear@CConEmuMain@@QAEXI@Z 004165fb f   ConEmu.obj
 0001:00015634       ?OnTimer_Main@CConEmuMain@@QAEXPAVCVirtualConsole@@@Z 00416634 f   ConEmu.obj
 0001:00015adf       ?OnTimer_QuakeFocus@CConEmuMain@@QAEXXZ 00416adf f   ConEmu.obj
 0001:00015b7e       ?OnTransparent@CConEmuMain@@QAEXXZ 00416b7e f   ConEmu.obj
 0001:00015bae       ?OnTransparent@CConEmuMain@@QAEX_N0@Z 00416bae f   ConEmu.obj
 0001:00015cc8       ?OnTransparentSeparate@CConEmuMain@@QAEX_N@Z 00416cc8 f   ConEmu.obj
 0001:00015d05       ?OnUpdateScrollInfo@CConEmuMain@@QAEJH@Z 00416d05 f   ConEmu.obj
 0001:00015d31       ?DragFeedBack@CBaseDropTarget@@UAEXK@Z 00416d31 f   BaseDragDrops.obj
 0001:00015d31       ?OnUseTheming@CConEmuMain@@MAEX_N@Z 00416d31 f   ConEmu.obj
 0001:00015d31       ?ExecuteProcessFinished@CConEmuMain@@IAEX_N@Z 00416d31 f   ConEmu.obj
 0001:00015d31       ?OnUseGlass@CConEmuMain@@MAEX_N@Z 00416d31 f   ConEmu.obj
 0001:00015d31       ?OnPostLocalize@CSetPgBase@@UAEXPAUHWND__@@@Z 00416d31 f   SetPgANSI.obj
 0001:00015d31       ?ChCp@CStartEnvTitle@@UAEXPB_W@Z 00416d31 f   common-user32:ProcessSetEnv.obj
 0001:00015d31       ?OnUseDwm@CConEmuMain@@MAEX_N@Z 00416d31 f   ConEmu.obj
 0001:00015d34       ?OnVConCreated@CConEmuMain@@QAEXPAVCVirtualConsole@@PBURConStartArgsEx@@@Z 00416d34 f   ConEmu.obj
 0001:00015d8b       ?OnWmHotkey@CConEmuMain@@QAEXIK@Z 00416d8b f   ConEmu.obj
 0001:00015f0a       ?ParseScriptLineOptions@CConEmuMain@@QAEPB_WPB_WPA_NPAURConStartArgsEx@@@Z 00416f0a f   ConEmu.obj
 0001:00016284       ?PatchMouseEvent@CConEmuMain@@IAE_NIAAUtagPOINT@@0IAA_N@Z 00417284 f   ConEmu.obj
 0001:00016564       ?PostChangeCurPalette@CConEmuMain@@QAEXPB_W_N1@Z 00417564 f   ConEmu.obj
 0001:000165a7       ?PostCheckThread@CDefTermBase@@KGKPAX@Z 004175a7 f i ConEmu.obj
 0001:000165f0       ?PostCreate@CConEmuMain@@QAEX_N@Z 004175f0 f   ConEmu.obj
 0001:00016a2c       ?PostCreateCon@CConEmuMain@@QAEXPAURConStartArgsEx@@@Z 00417a2c f   ConEmu.obj
 0001:00016a56       ?PostCreateView@CConEmuMain@@QAEPAUHWND__@@PAVCConEmuChild@@@Z 00417a56 f   ConEmu.obj
 0001:00016a90       ?PostDisplayRConError@CConEmuMain@@QAEXPAVCRealConsole@@PA_W@Z 00417a90 f   ConEmu.obj
 0001:00016ac1       ?PostDragCopy@CConEmuMain@@QAEX_N0@Z 00417ac1 f   ConEmu.obj
 0001:00016b2d       ?PostFontSetSize@CConEmuMain@@QAEXHH@Z 00417b2d f   ConEmu.obj
 0001:00016b4c       ?PostMacro@CConEmuMain@@QAEXPB_W@Z 00417b4c f   ConEmu.obj
 0001:00016ba2       ?PostMacroFontSetName@CConEmuMain@@QAEXPA_WGGH@Z 00417ba2 f   ConEmu.obj
 0001:00016c14       ?PostScClose@CConEmuMain@@QAEXXZ 00417c14 f   ConEmu.obj
 0001:00016c2b       ?PreWndProc@CConEmuMain@@QAEXI@Z 00417c2b f   ConEmu.obj
 0001:00016c35       ?RecheckForegroundWindow@CConEmuMain@@IAE_NPB_WPAPAUHWND__@@PAU2@@Z 00417c35 f   ConEmu.obj
 0001:00016f71       ?RecreateAction@CConEmuMain@@QAE_NW4RecreateActionParm@@HW4RConBoolArg@@@Z 00417f71 f   ConEmu.obj
 0001:00017359       ?RecreateDlg@CConEmuMain@@QAEHPAURConStartArgsEx@@_N@Z 00418359 f   ConEmu.obj
 0001:000173ed       ?RegisterGlobalHotKeys@CConEmuMain@@IAEX_N@Z 004183ed f   ConEmu.obj
 0001:000175ad       ?RegisterHooks@CConEmuMain@@QAEXXZ 004185ad f   ConEmu.obj
 0001:0001776c       ?RegisterHotKeys@CConEmuMain@@IAEXXZ 0041876c f   ConEmu.obj
 0001:000177ad       ?RegisterMessage@CConEmuMain@@AAEIPBDPB_W@Z 004187ad f   ConEmu.obj
 0001:000177f1       ?RegisterMessages@CConEmuMain@@AAEXXZ 004187f1 f   ConEmu.obj
 0001:00017b03       ?RegisterMinRestore@CConEmuMain@@QAEX_N@Z 00418b03 f   ConEmu.obj
 0001:00017e0d       ?RegisterSshAgent@CConEmuMain@@QAEXK@Z 00418e0d f   ConEmu.obj
 0001:00017ee0       ?ReleaseConhostDelay@CConEmuMain@@QAEXXZ 00418ee0 f   ConEmu.obj
 0001:00017ee8       ?ReloadWheelScroll@<unnamed-type-mouse>@CConEmuMain@@QAEXXZ 00418ee8 f i ConEmu.obj
 0001:00017f2d       ?ReportOldCmdVersion@CConEmuMain@@QAEXKKHK_KK@Z 00418f2d f   ConEmu.obj
 0001:00018312       ?RequestPostUpdateTabs@CConEmuMain@@QAEXXZ 00419312 f   ConEmu.obj
 0001:0001833f       ?Restore@MWow64Disable@@QAEXXZ 0041933f f i ConEmu.obj
 0001:00018356       ?RightClickingPaint@CConEmuMain@@QAEXPAUHDC__@@PAVCVirtualConsole@@@Z 00419356 f   ConEmu.obj
 0001:000186d6       ?RightClickingProc@CConEmuMain@@KGJPAUHWND__@@IIJ@Z 004196d6 f   ConEmu.obj
 0001:00018747       ?RunSingleInstance@CConEmuMain@@QAEHPAUHWND__@@PB_W@Z 00419747 f   ConEmu.obj
 0001:00018c51       ?SessionChanged@SessionInfo@CConEmuMain@@QAEXIJ@Z 00419c51 f   ConEmu.obj
 0001:00018c6b       ?Set@?$MMap@PAUHWND__@@PAVCVirtualConsole@@$0A@@@QAE_NABQAUHWND__@@ABQAVCVirtualConsole@@@Z 00419c6b f i VConChild.obj
 0001:00018c6b       ?Set@?$MMap@HPAV?$MArray@UDlgItem@CDpiForDialog@@@@$0A@@@QAE_NABHABQAV?$MArray@UDlgItem@CDpiForDialog@@@@@Z 00419c6b f i DpiAware.obj
 0001:00018c6b       ?Set@?$MMap@IPBD$0A@@@QAE_NABIABQBD@Z 00419c6b f i ConEmu.obj
 0001:00018c6b       ?Set@?$MMap@PAUHWND__@@P6GJPAU1@IIJ@Z$0A@@@QAE_NABQAUHWND__@@ABQ6GJPAU2@IIJ@Z@Z 00419c6b f i SetDlgColors.obj
 0001:00018c6b       ?Set@?$MMap@PAUHWND__@@PAVCDynDialog@@$0A@@@QAE_NABQAUHWND__@@ABQAVCDynDialog@@@Z 00419c6b f i DynDialog.obj
 0001:00018c6b       ?Set@?$MMap@PAUHWND__@@PAVCFindPanel@@$0A@@@QAE_NABQAUHWND__@@ABQAVCFindPanel@@@Z 00419c6b f i FindPanel.obj
 0001:00018c6b       ?Set@?$MMap@PAVCVConGroup@@PAVCVirtualConsole@@$0A@@@QAE_NABQAVCVConGroup@@ABQAVCVirtualConsole@@@Z 00419c6b f i TabBar.obj
 0001:00018c6b       ?Set@?$MMap@KH$0A@@@QAE_NABKABH@Z 00419c6b f i RealConsole.obj
 0001:00018d59       ?Set@CESize@@QAE_N_NW4CESizeStyle@@H@Z 00419d59 f i ConEmu.obj
 0001:00018dcc       ?SetAppID@CConEmuMain@@QAEXPB_W@Z 00419dcc f   ConEmu.obj
 0001:00019000       ?SetConfigFile@CConEmuMain@@QAE_NPB_W_N1@Z 0041a000 f   ConEmu.obj
 0001:00019277       ?SetDragCursor@CConEmuMain@@QAEXPAUHICON__@@@Z 0041a277 f   ConEmu.obj
 0001:0001929d       ?SetForceUseRegistry@CConEmuMain@@QAEXXZ 0041a29d f   ConEmu.obj
 0001:000192a5       ?SetFrom@?$MFileMapping@UConEmuGuiMapping@@@@QAE_NPBUConEmuGuiMapping@@H@Z 0041a2a5 f i ConEmu.obj
 0001:000192f1       ?SetFrom@?$MFileMapping@UPanelViewSetMapping@@@@QAE_NPBUPanelViewSetMapping@@H@Z 0041a2f1 f i ConEmu.obj
 0001:0001933d       ?SetKillTimer@CConEmuMain@@QAEI_NII@Z 0041a33d f   ConEmu.obj
 0001:0001936f       ?SetParent@CConEmuMain@@QAE_NPAUHWND__@@@Z 0041a36f f   ConEmu.obj
 0001:000193be       ?SetPostGuiMacro@CConEmuMain@@QAEXPB_W@Z 0041a3be f   ConEmu.obj
 0001:000193d6       ?SetScClosePending@CConEmuMain@@QAEX_N@Z 0041a3d6 f   ConEmu.obj
 0001:000193e6       ?SetSessionNotification@SessionInfo@CConEmuMain@@QAEX_N@Z 0041a3e6 f   ConEmu.obj
 0001:000194b6       ?SetSkipMouseEvent@CConEmuMain@@QAEXIII@Z 0041a4b6 f   ConEmu.obj
 0001:000194d8       ?SetSkipOnFocus@CConEmuMain@@QAE_N_N@Z 0041a4d8 f   ConEmu.obj
 0001:000194ee       ?SetTaskbarIcon@CConEmuMain@@QAEXPAUHICON__@@@Z 0041a4ee f   ConEmu.obj
 0001:000195a1       ?SetTitle@CConEmuMain@@QAEXPAUHWND__@@PB_W_N@Z 0041a5a1 f   ConEmu.obj
 0001:000196e4       ?SetTitleTemplate@CConEmuMain@@QAEXPB_W@Z 0041a6e4 f   ConEmu.obj
 0001:0001970b       ?SetTransparent@CConEmuMain@@QAE_NPAUHWND__@@I_NK1@Z 0041a70b f   ConEmu.obj
 0001:000199de       ?SetWindowIcon@CConEmuMain@@QAEXPB_W@Z 0041a9de f   ConEmu.obj
 0001:00019ada       ?SetWindowStyle@CConEmuMain@@QAEXK@Z 0041aada f   ConEmu.obj
 0001:00019af2       ?SetWindowStyle@CConEmuMain@@QAEXPAUHWND__@@K@Z 0041aaf2 f   ConEmu.obj
 0001:00019b07       ?SetWindowStyleEx@CConEmuMain@@QAEXK@Z 0041ab07 f   ConEmu.obj
 0001:00019b1c       ?SetWindowStyleEx@CConEmuMain@@QAEXPAUHWND__@@K@Z 0041ab1c f   ConEmu.obj
 0001:00019ba2       ?StartDebugActiveProcess@CConEmuMain@@QAE_NXZ 0041aba2 f   ConEmu.obj
 0001:00019c41       ?StartDebugLogConsole@CConEmuMain@@QAE_NXZ 0041ac41 f   ConEmu.obj
 0001:00019d7a       ?StartDefTermHooker@CDefTermBase@@AAEHKAAPAXAAKPB_W1@Z 0041ad7a f i ConEmu.obj
 0001:0001a114       ?StartRightClickingPaint@CConEmuMain@@IAEXXZ 0041b114 f   ConEmu.obj
 0001:0001a151       ?StopRightClickingPaint@CConEmuMain@@IAEXXZ 0041b151 f   ConEmu.obj
 0001:0001a19b       ?StoreLayoutName@CConEmuMain@@IAEXHKPAUHKL__@@@Z 0041b19b f   ConEmu.obj
 0001:0001a2a1       ?StoreWorkDir@CConEmuMain@@QAEXPB_W@Z 0041b2a1 f   ConEmu.obj
 0001:0001a48e       ?SwitchKeyboardLayout@CConEmuMain@@QAEXK@Z 0041b48e f   ConEmu.obj
 0001:0001a624       ?SyncExecMacro@CConEmuMain@@QAEJIJ@Z 0041b624 f   ConEmu.obj
 0001:0001a643       ?SyncNtvdm@CConEmuMain@@QAEXXZ 0041b643 f   ConEmu.obj
 0001:0001a65a       ?TerminateSshAgents@CConEmuMain@@IAEXXZ 0041b65a f   ConEmu.obj
 0001:0001a78d       ?TrackMouse@CConEmuMain@@QAEHXZ 0041b78d f   ConEmu.obj
 0001:0001a7d9       ?UnRegisterHooks@CConEmuMain@@QAEX_N@Z 0041b7d9 f   ConEmu.obj
 0001:0001a83b       ?UnlockConhostStart@CConEmuMain@@QAEXXZ 0041b83b f   ConEmu.obj
 0001:0001a855       ?Update@CConEmuMain@@QAEX_N@Z 0041b855 f   ConEmu.obj
 0001:0001a865       ?UpdateActiveGhost@CConEmuMain@@QAEXPAVCVirtualConsole@@@Z 0041b865 f   ConEmu.obj
 0001:0001a8c1       ?UpdateCaretPos@CConEmuMain@@QAEXAAVCVirtualConsole@@ABUtagRECT@@@Z 0041b8c1 f   ConEmu.obj
 0001:0001a91f       ?UpdateCursorInfo@CConEmuMain@@QAEXPBUConsoleInfoArg@@@Z 0041b91f f   ConEmu.obj
 0001:0001a9a1       ?UpdateGuiInfoMapping@CConEmuMain@@AAEXXZ 0041b9a1 f   ConEmu.obj
 0001:0001aeb8       ?UpdateGuiInfoMappingActive@CConEmuMain@@AAEX_N0@Z 0041beb8 f   ConEmu.obj
 0001:0001afed       ?UpdateImeComposition@CConEmuMain@@IAEXXZ 0041bfed f   ConEmu.obj
 0001:0001b159       ?UpdateProcessDisplay@CConEmuMain@@QAEX_N@Z 0041c159 f   ConEmu.obj
 0001:0001b434       ?UpdateProgress@CConEmuMain@@QAEXXZ 0041c434 f   ConEmu.obj
 0001:0001b764       ?UpdateSizes@CConEmuMain@@QAEXXZ 0041c764 f   ConEmu.obj
 0001:0001b8e5       ?UpdateTitle@CConEmuMain@@QAEXXZ 0041c8e5 f   ConEmu.obj
 0001:0001b9e5       ?UpdateWinHookSettings@CConEmuMain@@QAEXXZ 0041c9e5 f   ConEmu.obj
 0001:0001ba3e       ?UpdateWindowChild@CConEmuMain@@QAEXPAVCVirtualConsole@@@Z 0041ca3e f   ConEmu.obj
 0001:0001ba4e       ?WinEventProc@CConEmuMain@@KGXPAUHWINEVENTHOOK__@@KPAUHWND__@@JJKK@Z 0041ca4e f   ConEmu.obj
 0001:0001ba87       ?WndProc@CConEmuMain@@QAEJPAUHWND__@@IIJ@Z 0041ca87 f   ConEmu.obj
 0001:0001cd99       ?WorkDir@CConEmuMain@@QAEPB_WPB_W@Z 0041dd99 f   ConEmu.obj
 0001:0001cdc5       ?WorkWndProc@CConEmuMain@@SGJPAUHWND__@@IIJ@Z 0041ddc5 f   ConEmu.obj
 0001:0001cef6       ?erase@?$MArray@UProcessInfo@CDefTermBase@@@@QAEXH@Z 0041def6 f i ConEmu.obj
 0001:0001cf43       ?isCloseConfirmed@CConEmuMain@@QAE_NXZ 0041df43 f   ConEmu.obj
 0001:0001cf66       ?isDestroyOnClose@CConEmuMain@@QAE_N_N@Z 0041df66 f   ConEmu.obj
 0001:0001d074       ?isDialogMessage@CConEmuMain@@QAEHAAUtagMSG@@@Z 0041e074 f   ConEmu.obj
 0001:0001d107       ?isDragging@CConEmuMain@@QAE_NXZ 0041e107 f   ConEmu.obj
 0001:0001d132       ?isFirstInstance@CConEmuMain@@QAE_N_N@Z 0041e132 f   ConEmu.obj
 0001:0001d295       ?isInImeComposition@CConEmuMain@@QAE_NXZ 0041e295 f   ConEmu.obj
 0001:0001d29c       ?isInputGrouped@CConEmuMain@@QBE_NXZ 0041e29c f   ConEmu.obj
 0001:0001d2a3       ?isInside@CConEmuMain@@QAE_NXZ 0041e2a3 f   ConEmu.obj
 0001:0001d2bc       ?isInsideInvalid@CConEmuMain@@QAE_NXZ 0041e2bc f   ConEmu.obj
 0001:0001d2eb       ?isMSysStartup@CConEmuMain@@QAE_NXZ 0041e2eb f   ConEmu.obj
 0001:0001d2f7       ?isMeForeground@CConEmuMain@@QAE_N_N0PAPAUHWND__@@@Z 0041e2f7 f   ConEmu.obj
 0001:0001d343       ?isMenuActive@CConEmuMain@@QAE_NXZ 0041e343 f   ConEmu.obj
 0001:0001d354       ?isMingwMode@CConEmuMain@@QAE_NXZ 0041e354 f   ConEmu.obj
 0001:0001d35d       ?isMouseOverFrame@CConEmuMain@@QAE_N_N@Z 0041e35d f   ConEmu.obj
 0001:0001d490       ?isNtvdm@CConEmuMain@@QAE_NH@Z 0041e490 f   ConEmu.obj
 0001:0001d4a0       ?isOurConsoleWindow@CConEmuMain@@QAE_NPAUHWND__@@@Z 0041e4a0 f   ConEmu.obj
 0001:0001d4b0       ?isPictureView@CConEmuMain@@QAE_NXZ 0041e4b0 f   ConEmu.obj
 0001:0001d4b5       ?isProcessCreated@CConEmuMain@@QAE_NXZ 0041e4b5 f   ConEmu.obj
 0001:0001d4bc       ?isRightClickingPaint@CConEmuMain@@QAE_NXZ 0041e4bc f   ConEmu.obj
 0001:0001d4c3       ?isSelectionModifierPressed@CConEmuMain@@QAEK_N@Z 0041e4c3 f   ConEmu.obj
 0001:0001d595       ?isSkipNcMessage@CConEmuMain@@QAE_NABUtagMSG@@@Z 0041e595 f   ConEmu.obj
 0001:0001d61c       ?isTabsShown@CConEmuMain@@QAE_NXZ 0041e61c f   ConEmu.obj
 0001:0001d643       ?isUpdateAllowed@CConEmuMain@@QAE_NXZ 0041e643 f   ConEmu.obj
 0001:0001d64e       ?isVConExists@CConEmuMain@@QAE_NH@Z 0041e64e f   ConEmu.obj
 0001:0001d65e       ?isVConValid@CConEmuMain@@QAEHPAVCVirtualConsole@@@Z 0041e65e f   ConEmu.obj
 0001:0001d677       ?isValid@CConEmuMain@@QAE_NPAVCRealConsole@@@Z 0041e677 f   ConEmu.obj
 0001:0001d687       ?isValid@CConEmuMain@@QAE_NPAVCVirtualConsole@@@Z 0041e687 f   ConEmu.obj
 0001:0001d697       ?push_back@?$MArray@H@@QAEHABH@Z 0041e697 f i CmdHistory.obj
 0001:0001d697       ?push_back@?$MArray@PAUSwitch@@@@QAEHABQAUSwitch@@@Z 0041e697 f i SetPgIntegr.obj
 0001:0001d697       ?push_back@?$MArray@PAVCFont@@@@QAEHABQAVCFont@@@Z 0041e697 f i FontMgr.obj
 0001:0001d697       ?push_back@?$MArray@PAVCVConGroup@@@@QAEHABQAVCVConGroup@@@Z 0041e697 f i VConGroup.obj
 0001:0001d697       ?push_back@?$MArray@PAVCTabID@@@@QAEHABQAVCTabID@@@Z 0041e697 f i TabBar.obj
 0001:0001d697       ?push_back@?$MArray@URunQueueItem@CRunQueue@@@@QAEHABURunQueueItem@CRunQueue@@@Z 0041e697 f i RunQueue.obj
 0001:0001d697       ?push_back@?$MArray@PAX@@QAEHABQAX@Z 0041e697 f i TaskBar.obj
 0001:0001d697       ?push_back@?$MArray@PAUHWND__@@@@QAEHABQAUHWND__@@@Z 0041e697 f i ConEmu.obj
 0001:0001d697       ?push_back@?$MArray@PAVCBackgroundInfo@@@@QAEHABQAVCBackgroundInfo@@@Z 0041e697 f i Background.obj
 0001:0001d697       ?push_back@?$MArray@PA_W@@QAEHABQA_W@Z 0041e697 f i CmdHistory.obj
 0001:0001d697       ?push_back@?$MArray@PAVCustomFont@@@@QAEHABQAVCustomFont@@@Z 0041e697 f i CustomFonts.obj
 0001:0001d697       ?push_back@?$MArray@PAVCVConGuard@@@@QAEHABQAVCVConGuard@@@Z 0041e697 f i VConGroup.obj
 0001:0001d6e7       ?push_back@?$MArray@UDlgItem@CDpiForDialog@@@@QAEHABUDlgItem@CDpiForDialog@@@Z 0041e6e7 f i DpiAware.obj
 0001:0001d6e7       ?push_back@?$MArray@UProcessInfo@CDefTermBase@@@@QAEHABUProcessInfo@CDefTermBase@@@Z 0041e6e7 f i ConEmu.obj
 0001:0001d737       ?push_back@?$MArray@UThreadHandle@CDefTermBase@@@@QAEHABUThreadHandle@CDefTermBase@@@Z 0041e737 f i ConEmu.obj
 0001:0001d737       ?push_back@?$MArray@USshAgent@CConEmuMain@@@@QAEHABUSshAgent@CConEmuMain@@@Z 0041e737 f i ConEmu.obj
 0001:0001d737       ?push_back@?$MArray@UTabIconCache@CIconList@@@@QAEHABUTabIconCache@CIconList@@@Z 0041e737 f i IconList.obj
 0001:0001d737       ?push_back@?$MArray@UFoundFile@@@@QAEHABUFoundFile@@@Z 0041e737 f i OptionsFast.obj
 0001:0001d787       ?setFocus@CConEmuMain@@QAEXXZ 0041e787 f   ConEmu.obj
 0001:0001d864       ??$SafeDelete@VCConEmuMain@@@@YAXAAPAVCConEmuMain@@@Z 0041e864 f i ConEmuApp.obj
 0001:0001d895       ??$SafeDelete@VCConEmuUpdate@@@@YAXAAPAVCConEmuUpdate@@@Z 0041e895 f i ConEmuApp.obj
 0001:0001d8d5       ??$SafeDelete@VCFontMgr@@@@YAXAAPAVCFontMgr@@@Z 0041e8d5 f i ConEmuApp.obj
 0001:0001d915       ??$SafeDelete@VCLngRc@@@@YAXAAPAVCLngRc@@@Z 0041e915 f i ConEmuApp.obj
 0001:0001d955       ??$SafeDelete@VCTabPanelBase@@@@YAXAAPAVCTabPanelBase@@@Z 0041e955 f i TabBar.obj
 0001:0001d955       ??$SafeDelete@VCBackground@@@@YAXAAPAVCBackground@@@Z 0041e955 f i VirtualConsole.obj
 0001:0001d955       ??$SafeDelete@VMFileLog@@@@YAXAAPAVMFileLog@@@Z 0041e955 f i RealConsole.obj
 0001:0001d955       ??$SafeDelete@VCVConGuard@@@@YAXAAPAVCVConGuard@@@Z 0041e955 f i VConGroup.obj
 0001:0001d955       ??$SafeDelete@URConStartArgsEx@@@@YAXAAPAURConStartArgsEx@@@Z 0041e955 f i GuiServer.obj
 0001:0001d955       ??$SafeDelete@VCStatus@@@@YAXAAPAVCStatus@@@Z 0041e955 f i ConEmu.obj
 0001:0001d955       ??$SafeDelete@VCToolTip@@@@YAXAAPAVCToolTip@@@Z 0041e955 f i ConEmu.obj
 0001:0001d955       ??$SafeDelete@VCFormatCopy@@@@YAXAAPAVCFormatCopy@@@Z 0041e955 f i RealBuffer.obj
 0001:0001d955       ??$SafeDelete@VCSetPgBase@@@@YAXAAPAVCSetPgBase@@@Z 0041e955 f i OptionsClass.obj
 0001:0001d955       ??$SafeDelete@VCConEmuInside@@@@YAXAAPAVCConEmuInside@@@Z 0041e955 f i ConEmu.obj
 0001:0001d955       ??$SafeDelete@VCSettings@@@@YAXAAPAVCSettings@@@Z 0041e955 f i ConEmuApp.obj
 0001:0001d955       ??$SafeDelete@VCTaskSchedulerBase@@@@YAXAAPAVCTaskSchedulerBase@@@Z 0041e955 f i TaskScheduler.obj
 0001:0001d955       ??$SafeDelete@VCTabBarClass@@@@YAXAAPAVCTabBarClass@@@Z 0041e955 f i ConEmu.obj
 0001:0001d955       ??$SafeDelete@VCRConPalette@@@@YAXAAPAVCRConPalette@@@Z 0041e955 f i RealConsole.obj
 0001:0001d955       ??$SafeDelete@VCDynDialog@@@@YAXAAPAVCDynDialog@@@Z 0041e955 f i Attach.obj
 0001:0001d955       ??$SafeDelete@VMFileLogEx@@@@YAXAAPAVMFileLogEx@@@Z 0041e955 f i ConEmu.obj
 0001:0001d985       ??$SafeDelete@VConEmuHotKeyList@@@@YAXAAPAVConEmuHotKeyList@@@Z 0041e985 f i ConEmuApp.obj
 0001:0001d9cf       ??$wcscat_c@$0EAA@@@YAHAAY0EAA@_WPB_W@Z 0041e9cf f i ConEmuApp.obj
 0001:0001d9e4       ??0DontEnable@@QAE@_N@Z    0041e9e4 f   ConEmuApp.obj
 0001:0001da26       ??1DontEnable@@QAE@XZ      0041ea26 f   ConEmuApp.obj
 0001:0001da43       ?AllocEnv@LoadStartupEnv@@KAPAUCEStartupEnv@@I@Z 0041ea43 f i ConEmuApp.obj
 0001:0001da5c       ?AppWndProc@@YGJPAUHWND__@@IIJ@Z 0041ea5c f   ConEmuApp.obj
 0001:0001db02       ?AssertBox@@YAXPB_W0IPAU_EXCEPTION_POINTERS@@@Z 0041eb02 f   ConEmuApp.obj
 0001:0001df19       ?CenterInParent@@YA?AUtagRECT@@U1@PAUHWND__@@@Z 0041ef19 f   ConEmuApp.obj
 0001:0001e005       ?CheckCreateAppWindow@@YAHXZ 0041f005 f   ConEmuApp.obj
 0001:0001e1a3       ?CheckForDebugArgs@@YAHPB_W@Z 0041f1a3 f   ConEmuApp.obj
 0001:0001e325       ?CheckZoneIdentifiers@@YAH_N@Z 0041f325 f   ConEmuApp.obj
 0001:0001e6f0       ?Create@LoadStartupEnvEx@@SAPAUCEStartupEnv@@XZ 0041f6f0 f i ConEmuApp.obj
 0001:0001e93a       ?CreateDumpForReport@@YAKPAU_EXCEPTION_POINTERS@@AAY0EAA@_WAAY0BEE@_WPA_W@Z 0041f93a f   ConEmuApp.obj
 0001:0001ed6a       ?CreateDumpOnException@@YGJPAU_EXCEPTION_POINTERS@@@Z 0041fd6a f   ConEmuApp.obj
 0001:0001ee93       ?CreateNullIcon@@YAPAUHICON__@@XZ 0041fe93 f   ConEmuApp.obj
 0001:0001ef19       ?DisplayLastError@@YAHPB_WKK0PAUHWND__@@@Z 0041ff19 f   ConEmuApp.obj
 0001:0001f03a       ?DupCygwinPath@@YAPA_WPB_W_N0@Z 0042003a f   ConEmuApp.obj
 0001:0001f1f9       ?EscapeChar@@YAX_NAAPB_WAAPA_W@Z 004201f9 f   ConEmuApp.obj
 0001:0001f218       ?FindProcessWindow@@YAPAUHWND__@@K@Z 00420218 f   ConEmuApp.obj
 0001:0001f27b       ?FindTopExplorerWindow@@YAPAUHWND__@@XZ 0042027b f   ConEmuApp.obj
 0001:0001f2f6       ?FixDirEndSlash@@YA_NPA_W@Z 004202f6 f   ConEmuApp.obj
 0001:0001f344       ?GetColorRef@@YA_NPB_WPAK@Z 00420344 f   ConEmuApp.obj
 0001:0001f551       ?GetDlgItemSigned@@YA_NPAUHWND__@@GAAHHH@Z 00420551 f   ConEmuApp.obj
 0001:0001f5a2       ?GetDlgItemTextPtr@@YAPA_WPAUHWND__@@G@Z 004205a2 f   ConEmuApp.obj
 0001:0001f5cc       ?GetWindowModeName@@YAPB_WW4ConEmuWindowMode@@@Z 004205cc f   ConEmuApp.obj
 0001:0001f61c       ?IntFromString@@YA_NAAHPB_WHPAPB_W@Z 0042061c f   ConEmuApp.obj
 0001:0001f6a3       ?Load@LoadStartupEnv@@KA_NIAAPAUCEStartupEnv@@AAPAE@Z 004206a3 f i ConEmuApp.obj
 0001:0001fbf6       ?LoadAutoruns@LoadStartupEnvEx@@KAPA_WXZ 00420bf6 f i ConEmuApp.obj
 0001:0001fcbc       ?LoadAutorunsKey@LoadStartupEnvEx@@KAXAAPAUHKEY__@@AAPA_WPB_W@Z 00420cbc f i ConEmuApp.obj
 0001:0001fd69       ?LoadFonts@LoadStartupEnvEx@@KAPA_WXZ 00420d69 f i ConEmuApp.obj
 0001:0001ffb7       ?LoadStartupEnv_FillMonitors@LoadStartupEnvEx@@KGHPAUHMONITOR__@@PAUHDC__@@PAUtagRECT@@J@Z 00420fb7 f i ConEmuApp.obj
 0001:000200dd       ?LogString@@YAXPB_W_N1@Z   004210dd f   ConEmuApp.obj
 0001:000200f6       ?MakeStraightSlashPath@@YAPA_WPB_W@Z 004210f6 f   ConEmuApp.obj
 0001:0002012f       ?MakeWinPath@@YAPB_WPB_W0AAUCEStr@@@Z 0042112f f   ConEmuApp.obj
 0001:000202a4       ?MessageLoop@@YAXXZ        004212a4 f   ConEmuApp.obj
 0001:000202ec       ?MoveWindowRect@@YAHPAUHWND__@@ABUtagRECT@@H@Z 004212ec f   ConEmuApp.obj
 0001:0002035c       ?MsgBox@@YAHPB_WI0PAUHWND__@@_N@Z 0042135c f   ConEmuApp.obj
 0001:0002046f       ?MyGetDlgItemText@@YAIPAUHWND__@@GAAIAAPA_W@Z 0042146f f   ConEmuApp.obj
 0001:00020520       ?MySetDlgItemText@@YAHPAUHWND__@@HPB_W@Z 00421520 f   ConEmuApp.obj
 0001:00020534       ?PatchMsgBoxIcon@@YAXPAUHWND__@@IIJ@Z 00421534 f   ConEmuApp.obj
 0001:000205f2       ?ProcessCmdArg@@YAHPB_W_N1AAUCEStr@@AA_N@Z 004215f2 f   ConEmuApp.obj
 0001:000207cd       ?ProcessMessage@@YA_NAAUtagMSG@@@Z 004217cd f   ConEmuApp.obj
 0001:000208f7       ?PtMouseDblClickTest@@YA_NABUtagMSG@@U1@@Z 004218f7 f   ConEmuApp.obj
 0001:000209f0       ?RaiseTestException@@YAXXZ 004219f0 f   ConEmuApp.obj
 0001:000209f6       ?ResetEnvironmentVariables@@YAXXZ 004219f6 f   ConEmuApp.obj
 0001:00020a11       ?SelectFile@@YAPA_WPB_W00PAUHWND__@@0K@Z 00421a11 f   ConEmuApp.obj
 0001:00020bdd       ?SelectFolder@@YAPA_WPB_W0PAUHWND__@@K@Z 00421bdd f   ConEmuApp.obj
 0001:00020d92       ?ShutdownGuiStep@@YAXPB_WHHHH@Z 00421d92 f   ConEmuApp.obj
 0001:00020e32       ?SkipOneShowWindow@@YAXXZ  00421e32 f   ConEmuApp.obj
 0001:0002100f       ?StripLines@@YAXPA_WPB_W@Z 0042200f f   ConEmuApp.obj
 0001:00021107       ?StripWords@@YAXPA_WPB_W@Z 00422107 f   ConEmuApp.obj
 0001:0002121d       ?UpdateAppUserModelID@@YAJXZ 0042221d f   ConEmuApp.obj
 0001:00021522       ?UpdateWin7TaskList@@YA_N_N0@Z 00422522 f   ConEmuApp.obj
 0001:00021b97       ?WarnCreateWindowFail@@YAXPB_WPAUHWND__@@K@Z 00422b97 f   ConEmuApp.obj
 0001:00021d0c       ?_CreateSeparatorLink@@YAJPAPAUIShellLinkW@@@Z 00422d0c f   ConEmuApp.obj
 0001:000224ea       ?getFocusedExplorerWindowPath@@YAPA_WXZ 004234ea f   ConEmuApp.obj
 0001:000227e5       ?getForegroundWindow@@YAPAUHWND__@@XZ 004237e5 f   ConEmuApp.obj
 0001:00022823       ?isDontEnable@DontEnable@@SA_NXZ 00423823 f   ConEmuApp.obj
 0001:0002282e       ?isKey@@YA_NKK@Z           0042382e f   ConEmuApp.obj
 0001:0002287c       ?isMainThread@@YA_NXZ      0042387c f   ConEmuApp.obj
 0001:0002288c       _WinMain@16                0042388c f   ConEmuApp.obj
 0001:0002378d       ??0CConEmuCtrl@@QAE@XZ     0042478d f   ConEmuCtrl.obj
 0001:000237c6       ??1CConEmuCtrl@@UAE@XZ     004247c6 f   ConEmuCtrl.obj
 0001:000237cd       ??_ECConEmuCtrl@@UAEPAXI@Z 004247cd f i ConEmuCtrl.obj
 0001:000237cd       ??_GCConEmuCtrl@@UAEPAXI@Z 004247cd f i ConEmuCtrl.obj
 0001:000237f0       ?ChooseTabFromMenu@CConEmuCtrl@@SAXHUtagPOINT@@K@Z 004247f0 f   ConEmuCtrl.obj
 0001:000238f9       ?ChordFromVk@CConEmuCtrl@@QAE?AUConEmuChord@@K@Z 004248f9 f   ConEmuCtrl.obj
 0001:00023979       ?DoEndFindText@CConEmuCtrl@@SAXPAVCRealConsole@@@Z 00424979 f   ConEmuCtrl.obj
 0001:000239cd       ?DoFindText@CConEmuCtrl@@SAXHPAVCRealConsole@@@Z 004249cd f   ConEmuCtrl.obj
 0001:00023a24       ?FixSingleModifier@CConEmuCtrl@@QAEXKPAVCRealConsole@@@Z 00424a24 f   ConEmuCtrl.obj
 0001:00023a7a       ?GetControlKeyState@CConEmuCtrl@@QAEKJ@Z 00424a7a f   ConEmuCtrl.obj
 0001:00023a8f       ?GetOpenedPanels@CConEmuCtrl@@SAIAAPA_WAAH1@Z 00424a8f f   ConEmuCtrl.obj
 0001:00023cae       ?GetOpenedTabs@CConEmuCtrl@@SAIAAPAUTabInfo@CESERVER_REQ_GETALLTABS@@@Z 00424cae f   ConEmuCtrl.obj
 0001:00023f19       ?MakeScreenshot@CConEmuCtrl@@SAX_N@Z 00424f19 f   ConEmuCtrl.obj
 0001:000240b4       ?ProcessHotKey@CConEmuCtrl@@QAEPBUConEmuHotKey@@ABUConEmuChord@@_NPB_WPAVCRealConsole@@@Z 004250b4 f   ConEmuCtrl.obj
 0001:00024235       ?ProcessHotKeyMsg@CConEmuCtrl@@QAE_NIIJPB_WPAVCRealConsole@@@Z 00425235 f   ConEmuCtrl.obj
 0001:0002457f       ?SkipOneAppsRelease@CConEmuCtrl@@QAEX_N@Z 0042557f f   ConEmuCtrl.obj
 0001:000245f4       ?SkipOneAppsReleaseHook@CConEmuCtrl@@CGJHIJ@Z 004255f4 f   ConEmuCtrl.obj
 0001:00024639       ?StatusCommand@CConEmuCtrl@@SAXW4ConEmuStatusCommand@@HPB_WPAVCRealConsole@@@Z 00425639 f   ConEmuCtrl.obj
 0001:00024734       ?TabCommand@CConEmuCtrl@@SAXW4ConEmuTabCommand@@@Z 00425734 f   ConEmuCtrl.obj
 0001:000247ff       ?UpdateControlKeyState@CConEmuCtrl@@QAEXXZ 004257ff f   ConEmuCtrl.obj
 0001:00024924       ?key_AlternativeBuffer@CConEmuCtrl@@SG_NABUConEmuChord@@_NPBUConEmuHotKey@@PAVCRealConsole@@@Z 00425924 f   ConEmuCtrl.obj
 0001:0002493e       ?key_AlwaysOnTop@CConEmuCtrl@@SG_NABUConEmuChord@@_NPBUConEmuHotKey@@PAVCRealConsole@@@Z 0042593e f   ConEmuCtrl.obj
 0001:00024974       ?key_BufferScroll@CConEmuCtrl@@SG_N_NEPAVCRealConsole@@@Z 00425974 f   ConEmuCtrl.obj
 0001:000249e9       ?key_BufferScrollDown@CConEmuCtrl@@SG_NABUConEmuChord@@_NPBUConEmuHotKey@@PAVCRealConsole@@@Z 004259e9 f   ConEmuCtrl.obj
 0001:00024a07       ?key_BufferScrollPgDn@CConEmuCtrl@@SG_NABUConEmuChord@@_NPBUConEmuHotKey@@PAVCRealConsole@@@Z 00425a07 f   ConEmuCtrl.obj
 0001:00024a25       ?key_BufferScrollPgUp@CConEmuCtrl@@SG_NABUConEmuChord@@_NPBUConEmuHotKey@@PAVCRealConsole@@@Z 00425a25 f   ConEmuCtrl.obj
 0001:00024a43       ?key_BufferScrollUp@CConEmuCtrl@@SG_NABUConEmuChord@@_NPBUConEmuHotKey@@PAVCRealConsole@@@Z 00425a43 f   ConEmuCtrl.obj
 0001:00024a61       ?key_CTSVkBlockStart@CConEmuCtrl@@SG_NABUConEmuChord@@_NPBUConEmuHotKey@@PAVCRealConsole@@@Z 00425a61 f   ConEmuCtrl.obj
 0001:00024a89       ?key_CTSVkTextStart@CConEmuCtrl@@SG_NABUConEmuChord@@_NPBUConEmuHotKey@@PAVCRealConsole@@@Z 00425a89 f   ConEmuCtrl.obj
 0001:00024ab2       ?key_ChildSystemMenu@CConEmuCtrl@@SG_NABUConEmuChord@@_NPBUConEmuHotKey@@PAVCRealConsole@@@Z 00425ab2 f   ConEmuCtrl.obj
 0001:00024b06       ?key_ConsoleNum@CConEmuCtrl@@SG_NABUConEmuChord@@_NPBUConEmuHotKey@@PAVCRealConsole@@@Z 00425b06 f   ConEmuCtrl.obj
 0001:00024bae       ?key_CtrlTab@CConEmuCtrl@@SG_NABUConEmuChord@@_NPBUConEmuHotKey@@PAVCRealConsole@@@Z 00425bae f   ConEmuCtrl.obj
 0001:00024bae       ?key_CtrlShiftTab@CConEmuCtrl@@SG_NABUConEmuChord@@_NPBUConEmuHotKey@@PAVCRealConsole@@@Z 00425bae f   ConEmuCtrl.obj
 0001:00024c11       ?key_CtrlTab_Next@CConEmuCtrl@@SG_NABUConEmuChord@@_NPBUConEmuHotKey@@PAVCRealConsole@@@Z 00425c11 f   ConEmuCtrl.obj
 0001:00024c11       ?key_CtrlTab_Prev@CConEmuCtrl@@SG_NABUConEmuChord@@_NPBUConEmuHotKey@@PAVCRealConsole@@@Z 00425c11 f   ConEmuCtrl.obj
 0001:00024c6d       ?key_DeleteWordToLeft@CConEmuCtrl@@SG_NABUConEmuChord@@_NPBUConEmuHotKey@@PAVCRealConsole@@@Z 00425c6d f   ConEmuCtrl.obj
 0001:00024ca5       ?key_DuplicateRoot@CConEmuCtrl@@SG_NABUConEmuChord@@_NPBUConEmuHotKey@@PAVCRealConsole@@@Z 00425ca5 f   ConEmuCtrl.obj
 0001:00024ccb       ?key_FindTextDlg@CConEmuCtrl@@SG_NABUConEmuChord@@_NPBUConEmuHotKey@@PAVCRealConsole@@@Z 00425ccb f   ConEmuCtrl.obj
 0001:00024d0f       ?key_ForcedFullScreen@CConEmuCtrl@@SG_NABUConEmuChord@@_NPBUConEmuHotKey@@PAVCRealConsole@@@Z 00425d0f f   ConEmuCtrl.obj
 0001:00024d31       ?key_GlobalRestore@CConEmuCtrl@@SG_NABUConEmuChord@@_NPBUConEmuHotKey@@PAVCRealConsole@@@Z 00425d31 f   ConEmuCtrl.obj
 0001:00024d53       ?key_GuiMacro@CConEmuCtrl@@SG_NABUConEmuChord@@_NPBUConEmuHotKey@@PAVCRealConsole@@@Z 00425d53 f   ConEmuCtrl.obj
 0001:00024dbe       ?key_MinimizeByEsc@CConEmuCtrl@@SG_NABUConEmuChord@@_NPBUConEmuHotKey@@PAVCRealConsole@@@Z 00425dbe f   ConEmuCtrl.obj
 0001:00024e24       ?key_MinimizeRestore@CConEmuCtrl@@SG_NABUConEmuChord@@_NPBUConEmuHotKey@@PAVCRealConsole@@@Z 00425e24 f   ConEmuCtrl.obj
 0001:00024e46       ?key_MoveTabLeft@CConEmuCtrl@@SG_NABUConEmuChord@@_NPBUConEmuHotKey@@PAVCRealConsole@@@Z 00425e46 f   ConEmuCtrl.obj
 0001:00024e73       ?key_MoveTabRight@CConEmuCtrl@@SG_NABUConEmuChord@@_NPBUConEmuHotKey@@PAVCRealConsole@@@Z 00425e73 f   ConEmuCtrl.obj
 0001:00024ea0       ?key_MultiBuffer@CConEmuCtrl@@SG_NABUConEmuChord@@_NPBUConEmuHotKey@@PAVCRealConsole@@@Z 00425ea0 f   ConEmuCtrl.obj
 0001:00024eba       ?key_MultiCmd@CConEmuCtrl@@SG_NABUConEmuChord@@_NPBUConEmuHotKey@@PAVCRealConsole@@@Z 00425eba f   ConEmuCtrl.obj
 0001:00024fe1       ?key_MultiNew@CConEmuCtrl@@SG_NABUConEmuChord@@_NPBUConEmuHotKey@@PAVCRealConsole@@@Z 00425fe1 f   ConEmuCtrl.obj
 0001:00025016       ?key_MultiNewAttach@CConEmuCtrl@@SG_NABUConEmuChord@@_NPBUConEmuHotKey@@PAVCRealConsole@@@Z 00426016 f   ConEmuCtrl.obj
 0001:00025045       ?key_MultiNewPopupMenu2@CConEmuCtrl@@SG_NABUConEmuChord@@_NPBUConEmuHotKey@@PAVCRealConsole@@@Z 00426045 f   ConEmuCtrl.obj
 0001:0002506b       ?key_MultiNewPopupMenu@CConEmuCtrl@@SG_NABUConEmuChord@@_NPBUConEmuHotKey@@PAVCRealConsole@@@Z 0042606b f   ConEmuCtrl.obj
 0001:00025090       ?key_MultiNewShift@CConEmuCtrl@@SG_NABUConEmuChord@@_NPBUConEmuHotKey@@PAVCRealConsole@@@Z 00426090 f   ConEmuCtrl.obj
 0001:000250b0       ?key_MultiNewWindow@CConEmuCtrl@@SG_NABUConEmuChord@@_NPBUConEmuHotKey@@PAVCRealConsole@@@Z 004260b0 f   ConEmuCtrl.obj
 0001:000250d0       ?key_MultiNext@CConEmuCtrl@@SG_NABUConEmuChord@@_NPBUConEmuHotKey@@PAVCRealConsole@@@Z 004260d0 f   ConEmuCtrl.obj
 0001:000250ec       ?key_MultiPrev@CConEmuCtrl@@SG_NABUConEmuChord@@_NPBUConEmuHotKey@@PAVCRealConsole@@@Z 004260ec f   ConEmuCtrl.obj
 0001:00025108       ?key_MultiRecreate@CConEmuCtrl@@SG_NABUConEmuChord@@_NPBUConEmuHotKey@@PAVCRealConsole@@@Z 00426108 f   ConEmuCtrl.obj
 0001:00025128       ?key_PasteFirstLine@CConEmuCtrl@@SG_NABUConEmuChord@@_NPBUConEmuHotKey@@PAVCRealConsole@@@Z 00426128 f   ConEmuCtrl.obj
 0001:0002514b       ?key_PasteFirstLineAllApp@CConEmuCtrl@@SG_NABUConEmuChord@@_NPBUConEmuHotKey@@PAVCRealConsole@@@Z 0042614b f   ConEmuCtrl.obj
 0001:000251d5       ?key_PasteText@CConEmuCtrl@@SG_NABUConEmuChord@@_NPBUConEmuHotKey@@PAVCRealConsole@@@Z 004261d5 f   ConEmuCtrl.obj
 0001:000251f8       ?key_PasteTextAllApp@CConEmuCtrl@@SG_NABUConEmuChord@@_NPBUConEmuHotKey@@PAVCRealConsole@@@Z 004261f8 f   ConEmuCtrl.obj
 0001:0002527b       ?key_RenameTab@CConEmuCtrl@@SG_NABUConEmuChord@@_NPBUConEmuHotKey@@PAVCRealConsole@@@Z 0042627b f   ConEmuCtrl.obj
 0001:00025296       ?key_RunTask@CConEmuCtrl@@SG_NABUConEmuChord@@_NPBUConEmuHotKey@@PAVCRealConsole@@@Z 00426296 f   ConEmuCtrl.obj
 0001:00025328       ?key_Screenshot@CConEmuCtrl@@SG_NABUConEmuChord@@_NPBUConEmuHotKey@@PAVCRealConsole@@@Z 00426328 f   ConEmuCtrl.obj
 0001:0002533f       ?key_ScreenshotFull@CConEmuCtrl@@SG_NABUConEmuChord@@_NPBUConEmuHotKey@@PAVCRealConsole@@@Z 0042633f f   ConEmuCtrl.obj
 0001:00025356       ?key_ShowCaption@CConEmuCtrl@@SG_NABUConEmuChord@@_NPBUConEmuHotKey@@PAVCRealConsole@@@Z 00426356 f   ConEmuCtrl.obj
 0001:000253c9       ?key_ShowRealConsole@CConEmuCtrl@@SG_NABUConEmuChord@@_NPBUConEmuHotKey@@PAVCRealConsole@@@Z 004263c9 f   ConEmuCtrl.obj
 0001:000253e8       ?key_ShowStatusBar@CConEmuCtrl@@SG_NABUConEmuChord@@_NPBUConEmuHotKey@@PAVCRealConsole@@@Z 004263e8 f   ConEmuCtrl.obj
 0001:00025405       ?key_ShowTabBar@CConEmuCtrl@@SG_NABUConEmuChord@@_NPBUConEmuHotKey@@PAVCRealConsole@@@Z 00426405 f   ConEmuCtrl.obj
 0001:0002541c       ?key_ShowTabsList@CConEmuCtrl@@SG_NABUConEmuChord@@_NPBUConEmuHotKey@@PAVCRealConsole@@@Z 0042641c f   ConEmuCtrl.obj
 0001:000254ca       ?key_SwitchGuiFocus@CConEmuCtrl@@SG_NABUConEmuChord@@_NPBUConEmuHotKey@@PAVCRealConsole@@@Z 004264ca f   ConEmuCtrl.obj
 0001:0002550b       ?key_SystemMenu@CConEmuCtrl@@SG_NABUConEmuChord@@_NPBUConEmuHotKey@@PAVCRealConsole@@@Z 0042650b f   ConEmuCtrl.obj
 0001:0002557c       ?key_TabMenu@CConEmuCtrl@@SG_NABUConEmuChord@@_NPBUConEmuHotKey@@PAVCRealConsole@@@Z 0042657c f   ConEmuCtrl.obj
 0001:0002562c       ?key_WinDragStart@CConEmuCtrl@@SG_NABUConEmuChord@@_NPBUConEmuHotKey@@PAVCRealConsole@@@Z 0042662c f   ConEmuCtrl.obj
 0001:00025631       ?key_WinHeightDec@CConEmuCtrl@@SG_NABUConEmuChord@@_NPBUConEmuHotKey@@PAVCRealConsole@@@Z 00426631 f   ConEmuCtrl.obj
 0001:00025649       ?key_WinHeightInc@CConEmuCtrl@@SG_NABUConEmuChord@@_NPBUConEmuHotKey@@PAVCRealConsole@@@Z 00426649 f   ConEmuCtrl.obj
 0001:00025661       ?key_WinSize@CConEmuCtrl@@SG_NE@Z 00426661 f   ConEmuCtrl.obj
 0001:000257a4       ?key_WinWidthDec@CConEmuCtrl@@SG_NABUConEmuChord@@_NPBUConEmuHotKey@@PAVCRealConsole@@@Z 004267a4 f   ConEmuCtrl.obj
 0001:000257bc       ?key_WinWidthInc@CConEmuCtrl@@SG_NABUConEmuChord@@_NPBUConEmuHotKey@@PAVCRealConsole@@@Z 004267bc f   ConEmuCtrl.obj
 0001:000257d4       ??0CConEmuPipe@@QAE@KK@Z   004267d4 f   ConEmuPipe.obj
 0001:00025829       ??1CConEmuPipe@@QAE@XZ     00426829 f   ConEmuPipe.obj
 0001:0002585f       ?Close@CConEmuPipe@@QAEXXZ 0042685f f   ConEmuPipe.obj
 0001:000258c7       ?Execute@CConEmuPipe@@QAEHHPBXI@Z 004268c7 f   ConEmuPipe.obj
 0001:00025c6f       ?GetPtr@CConEmuPipe@@QAEPAEPAK@Z 00426c6f f   ConEmuPipe.obj
 0001:00025ca6       ?Init@CConEmuPipe@@QAEHPB_WH@Z 00426ca6 f   ConEmuPipe.obj
 0001:00025d21       ?Read@CConEmuPipe@@QAEHPAXKPAK@Z 00426d21 f   ConEmuPipe.obj
 0001:00025d9e       ??0CConEmuSize@@QAE@PAVCConEmuMain@@@Z 00426d9e f   ConEmuSize.obj
 0001:00025efe       ??0OnDpiChangedArg@@QAE@PAVCConEmuSize@@IIPAUtagRECT@@_NW4DpiChangeSource@@@Z 00426efe f i ConEmuSize.obj
 0001:00025f46       ??1CConEmuSize@@UAE@XZ     00426f46 f   ConEmuSize.obj
 0001:00025f8c       ??1NestedCallCounter@@QAE@XZ 00426f8c f i ConEmuSize.obj
 0001:00025f95       ??_ECConEmuSize@@UAEPAXI@Z 00426f95 f i ConEmuSize.obj
 0001:00025f95       ??_GCConEmuSize@@UAEPAXI@Z 00426f95 f i ConEmuSize.obj
 0001:00025fba       ?AddMargins@CConEmuSize@@KAXAAUtagRECT@@ABU2@W4RectOperations@@@Z 00426fba f   ConEmuSize.obj
 0001:000260a8       ?AnimateWindow@CConEmuSize@@IAEHKK@Z 004270a8 f   ConEmuSize.obj
 0001:00026105       ?AutoSizeFont@CConEmuSize@@QAEXUtagRECT@@W4ConEmuRect@@@Z 00427105 f   ConEmuSize.obj
 0001:00026230       ?BeginSizing@CConEmuSize@@QAEX_N@Z 00427230 f   ConEmuSize.obj
 0001:0002628a       ?CalcMargins@CConEmuSize@@QAE?AUtagRECT@@KW4ConEmuWindowMode@@@Z 0042728a f   ConEmuSize.obj
 0001:000263c6       ?CalcMargins_FrameCaption@CConEmuSize@@IAE?AUtagRECT@@KW4ConEmuWindowMode@@@Z 004273c6 f   ConEmuSize.obj
 0001:0002654d       ?CalcMargins_InvisibleFrame@CConEmuSize@@IAE?AUtagRECT@@XZ 0042754d f   ConEmuSize.obj
 0001:00026591       ?CalcMargins_Padding@CConEmuSize@@IAE?AUtagRECT@@XZ 00427591 f   ConEmuSize.obj
 0001:000265c7       ?CalcMargins_Scrolling@CConEmuSize@@IAE?AUtagRECT@@XZ 004275c7 f   ConEmuSize.obj
 0001:000265f9       ?CalcMargins_StatusBar@CConEmuSize@@IAE?AUtagRECT@@XZ 004275f9 f   ConEmuSize.obj
 0001:00026628       ?CalcMargins_TabBar@CConEmuSize@@IAE?AUtagRECT@@K@Z 00427628 f   ConEmuSize.obj
 0001:0002670b       ?CalcMargins_VisibleFrame@CConEmuSize@@IAE?AUtagRECT@@PAU2@@Z 0042770b f   ConEmuSize.obj
 0001:000267ea       ?CalcMargins_Win10Frame@CConEmuSize@@IAE?AUtagRECT@@XZ 004277ea f   ConEmuSize.obj
 0001:00026a49       ?CalcRect@CConEmuSize@@QAE?AUtagRECT@@W4ConEmuRect@@ABU2@0PAVCVirtualConsole@@W4ConEmuMargins@@@Z 00427a49 f   ConEmuSize.obj
 0001:00026eb5       ?CalcRect@CConEmuSize@@QAE?AUtagRECT@@W4ConEmuRect@@PAVCVirtualConsole@@@Z 00427eb5 f   ConEmuSize.obj
 0001:000270bd       ?CascadedPosFix@CConEmuSize@@QAEXXZ 004280bd f   ConEmuSize.obj
 0001:00027270       ?CheckDpiOnMoving@CConEmuSize@@IAE_NPAUtagWINDOWPOS@@@Z 00428270 f   ConEmuSize.obj
 0001:00027322       ?CheckQuakeRect@CConEmuSize@@IAE_NPAUtagRECT@@@Z 00428322 f   ConEmuSize.obj
 0001:00027523       ?CheckTopMostState@CConEmuSize@@QAEXXZ 00428523 f   ConEmuSize.obj
 0001:00027641       ?CreateWindowRgn@CConEmuSize@@QAEPAUHRGN__@@_N0HHHH@Z 00428641 f   ConEmuSize.obj
 0001:0002791d       ?CreateWindowRgn@CConEmuSize@@QAEPAUHRGN__@@_N@Z 0042891d f   ConEmuSize.obj
 0001:00027d1e       ?DoAlwaysOnTopSwitch@CConEmuSize@@QAEXXZ 00428d1e f   ConEmuSize.obj
 0001:00027dc6       ?DoBringHere@CConEmuSize@@QAEXXZ 00428dc6 f   ConEmuSize.obj
 0001:00027e9e       ?DoDesktopModeSwitch@CConEmuSize@@QAEXXZ 00428e9e f   ConEmuSize.obj
 0001:00027f52       ?DoForcedFullScreen@CConEmuSize@@QAEX_N@Z 00428f52 f   ConEmuSize.obj
 0001:000280e3       ?DoFullScreen@CConEmuSize@@QAEXXZ 004290e3 f   ConEmuSize.obj
 0001:00028152       ?DoMaximizeRestore@CConEmuSize@@QAEXXZ 00429152 f   ConEmuSize.obj
 0001:0002818a       ?DoMinimizeRestore@CConEmuSize@@QAEXW4SingleInstanceShowHideType@@@Z 0042918a f   ConEmuSize.obj
 0001:00028cbe       ?EndSizing@CConEmuSize@@QAEXI@Z 00429cbe f   ConEmuSize.obj
 0001:00028dab       ?EvalNewNormalPos@CConEmuSize@@IAEXABUtagMONITORINFO@@PAUHMONITOR__@@0ABUtagRECT@@AAU4@@Z 00429dab f   ConEmuSize.obj
 0001:00028eee       ?EvalTileMode@CConEmuSize@@QAE?AW4ConEmuWindowCommand@@ABUtagRECT@@PAUtagMONITORINFO@@@Z 00429eee f   ConEmuSize.obj
 0001:000290d7       ?EvalVConCreateSize@CConEmuSize@@QAEXPAVCVirtualConsole@@AAI1@Z 0042a0d7 f   ConEmuSize.obj
 0001:00029145       ?FindInitialMonitor@CConEmuSize@@AAEPAUHMONITOR__@@PAUtagMONITORINFO@@@Z 0042a145 f   ConEmuSize.obj
 0001:0002923a       ?FindNextSiblingApp@CConEmuSize@@QAEPAUHWND__@@_N@Z 0042a23a f   ConEmuSize.obj
 0001:000292fc       ?FixPosByStartupMonitor@CConEmuSize@@IAE_NQAUHMONITOR__@@@Z 0042a2fc f   ConEmuSize.obj
 0001:0002963e       ?FixWindowRect@CConEmuSize@@IAE_NAAUtagRECT@@K_N@Z 0042a63e f   ConEmuSize.obj
 0001:00029aea       ?FormatTileMode@CConEmuSize@@SAPB_WW4ConEmuWindowCommand@@PA_WI@Z 0042aaea f   ConEmuSize.obj
 0001:00029b47       ?SkipShowWindowProc@@YGJPAUHWND__@@IIJ@Z 0042ab47 f   ConEmuApp.obj
 0001:00029bd2       ?GetChangeFromWindowMode@CConEmuSize@@QAE?AW4ConEmuWindowMode@@XZ 0042abd2 f   ConEmuSize.obj
 0001:00029bd9       ?GetDefaultRect@CConEmuSize@@QAE?AUtagRECT@@XZ 0042abd9 f   ConEmuSize.obj
 0001:00029dfe       ?GetDefaultSize@CConEmuSize@@QAE?AUtagSIZE@@_NPBTCESize@@1PAUHMONITOR__@@@Z 0042adfe f   ConEmuSize.obj
 0001:0002a3b9       ?GetGuiClientRect@CConEmuSize@@QAE?AUtagRECT@@XZ 0042b3b9 f   ConEmuSize.obj
 0001:0002a3cf       ?GetIdealRect@CConEmuSize@@QAE?AUtagRECT@@XZ 0042b3cf f   ConEmuSize.obj
 0001:0002a468       ?GetInitialDpi@CConEmuSize@@QAEHPAUDpiValue@@@Z 0042b468 f   ConEmuSize.obj
 0001:0002a4ab       ?GetNearestMonitor@CConEmuSize@@QAEPAUHMONITOR__@@PAUtagMONITORINFO@@PBUtagRECT@@@Z 0042b4ab f   ConEmuSize.obj
 0001:0002a5d0       ?GetPrimaryMonitor@CConEmuSize@@QAEPAUHMONITOR__@@PAUtagMONITORINFO@@@Z 0042b5d0 f   ConEmuSize.obj
 0001:0002a6ae       ?GetTileMode@CConEmuSize@@QAE?AW4ConEmuWindowCommand@@_NPAUtagMONITORINFO@@@Z 0042b6ae f   ConEmuSize.obj
 0001:0002a7e9       ?GetTileRect@CConEmuSize@@QAE?AUtagRECT@@W4ConEmuWindowCommand@@ABUtagMONITORINFO@@@Z 0042b7e9 f   ConEmuSize.obj
 0001:0002a91a       ?GetWindowMode@CConEmuSize@@QAE?AW4ConEmuWindowMode@@XZ 0042b91a f   ConEmuSize.obj
 0001:0002a936       ?InMinimizing@CConEmuSize@@QAE_NPAUtagWINDOWPOS@@@Z 0042b936 f   ConEmuSize.obj
 0001:0002a995       ?IsSizeFree@CConEmuSize@@QAE_NW4ConEmuWindowMode@@@Z 0042b995 f   ConEmuSize.obj
 0001:0002a9eb       ?IsSizePosFree@CConEmuSize@@QAE_NW4ConEmuWindowMode@@@Z 0042b9eb f   ConEmuSize.obj
 0001:0002aa2f       ?IsWindowModeChanging@CConEmuSize@@QAE_NXZ 0042ba2f f   ConEmuSize.obj
 0001:0002aa4e       ?JumpNextMonitor@CConEmuSize@@QAE_NPAUHWND__@@PAUHMONITOR__@@_NUtagRECT@@PAU4@@Z 0042ba4e f   ConEmuSize.obj
 0001:0002ae64       ?JumpNextMonitor@CConEmuSize@@QAE_N_N@Z 0042be64 f   ConEmuSize.obj
 0001:0002afbd       ?LogMinimizeRestoreSkip@CConEmuSize@@QAEXPB_WKKK@Z 0042bfbd f   ConEmuSize.obj
 0001:0002b00b       ?LogTileModeChange@CConEmuSize@@IAEXPB_WW4ConEmuWindowCommand@@_NABUtagRECT@@PAU3@PAUHMONITOR__@@@Z 0042c00b f   ConEmuSize.obj
 0001:0002b191       ?OnConsoleResize@CConEmuSize@@QAEX_N@Z 0042c191 f   ConEmuSize.obj
 0001:0002b30c       ?OnDisplayChanged@CConEmuSize@@QAEJIII@Z 0042c30c f   ConEmuSize.obj
 0001:0002b35f       ?OnDpiChanged@CConEmuSize@@QAEJIIPAUtagRECT@@_NW4DpiChangeSource@@@Z 0042c35f f   ConEmuSize.obj
 0001:0002b6a3       ?OnDpiChangedCall@CConEmuSize@@KAJJ@Z 0042c6a3 f   ConEmuSize.obj
 0001:0002b6cc       ?OnGetMinMaxInfo@CConEmuSize@@QAEJPAUtagMINMAXINFO@@@Z 0042c6cc f   ConEmuSize.obj
 0001:0002badb       ?OnMoving@CConEmuSize@@QAEJPAUtagRECT@@_N@Z 0042cadb f   ConEmuSize.obj
 0001:0002bf87       ?OnSize@CConEmuSize@@QAEJ_NIGG@Z 0042cf87 f   ConEmuSize.obj
 0001:0002c12b       ?OnSizePanels@CConEmuSize@@QAEXU_COORD@@@Z 0042d12b f   ConEmuSize.obj
 0001:0002c49f       ?OnSizing@CConEmuSize@@QAEJIJ@Z 0042d49f f   ConEmuSize.obj
 0001:0002c797       ?OnWindowPosChanged@CConEmuSize@@QAEJPAUHWND__@@IIJ@Z 0042d797 f   ConEmuSize.obj
 0001:0002cb2d       ?OnWindowPosChanging@CConEmuSize@@QAEJPAUHWND__@@IIJ@Z 0042db2d f   ConEmuSize.obj
 0001:0002d11a       ?ReSize@CConEmuSize@@QAEX_N@Z 0042e11a f   ConEmuSize.obj
 0001:0002d26a       ?RealPosFromVisual@CConEmuSize@@IAE?AUtagPOINT@@HH@Z 0042e26a f   ConEmuSize.obj
 0001:0002d29e       ?RecreateControls@CConEmuSize@@QAEX_N00PAUtagRECT@@@Z 0042e29e f   ConEmuSize.obj
 0001:0002d349       ?ReloadMonitorInfo@CConEmuSize@@QAEXXZ 0042e349 f   ConEmuSize.obj
 0001:0002d848       ?Restore@QuakePrevSize@CConEmuSize@@QAE?AW4ConEmuWindowMode@@AATCESize@@0AAJ1AAEAAUIdealRectInfo@2@AA_N@Z 0042e848 f   ConEmuSize.obj
 0001:0002d899       ?Save@QuakePrevSize@CConEmuSize@@QAEXABTCESize@@0ABJ1ABEABW4ConEmuWindowMode@@ABUIdealRectInfo@2@AB_N@Z 0042e899 f   ConEmuSize.obj
 0001:0002d8f3       ?SetFromString@CESize@@QAE_N_NPB_W@Z 0042e8f3 f i ConEmuSize.obj
 0001:0002d959       ?SetIgnoreQuakeActivation@CConEmuSize@@QAEX_N@Z 0042e959 f   ConEmuSize.obj
 0001:0002d97e       ?SetNonQuakeDefaults@QuakePrevSize@CConEmuSize@@QAEXXZ 0042e97e f   ConEmuSize.obj
 0001:0002d997       ?SetNormalWindowSize@CConEmuSize@@IAE?AUtagRECT@@XZ 0042e997 f   ConEmuSize.obj
 0001:0002da32       ?SetQuakeMode@CConEmuSize@@QAE_NEW4ConEmuWindowMode@@_N@Z 0042ea32 f   ConEmuSize.obj
 0001:0002dc60       ?SetTileMode@CConEmuSize@@QAE_NW4ConEmuWindowCommand@@@Z 0042ec60 f   ConEmuSize.obj
 0001:0002e097       ?SetWindowMode@CConEmuSize@@QAE_NW4ConEmuWindowMode@@_N1@Z 0042f097 f   ConEmuSize.obj
 0001:0002edb7       ?SetWindowPosSize@CConEmuSize@@QAE_NPB_W000@Z 0042fdb7 f   ConEmuSize.obj
 0001:0002f099       ?SetWindowPosSizeParam@CConEmuSize@@QAEX_WPB_W@Z 00430099 f   ConEmuSize.obj
 0001:0002f187       ?ShowMainWindow@CConEmuSize@@QAE_NH_N@Z 00430187 f   ConEmuSize.obj
 0001:0002f38f       ?SizeWindow@CConEmuSize@@QAE_NTCESize@@0@Z 0043038f f   ConEmuSize.obj
 0001:0002f46b       ?StartForceShowFrame@CConEmuSize@@IAEXXZ 0043046b f   ConEmuSize.obj
 0001:0002f49d       ?StopForceShowFrame@CConEmuSize@@IAEXXZ 0043049d f   ConEmuSize.obj
 0001:0002f4cb       ?StoreIdealRect@CConEmuSize@@QAEXXZ 004304cb f   ConEmuSize.obj
 0001:0002f516       ?StoreNormalRect@CConEmuSize@@IAEXPAUtagRECT@@@Z 00430516 f   ConEmuSize.obj
 0001:0002f8d2       ?StorePreMinimizeMonitor@CConEmuSize@@QAEXXZ 004308d2 f   ConEmuSize.obj
 0001:0002f8f6       ?UpdateIdealRect@CConEmuSize@@IAEXUtagRECT@@@Z 004308f6 f   ConEmuSize.obj
 0001:0002f999       ?UpdateInsideRect@CConEmuSize@@QAEXUtagRECT@@@Z 00430999 f   ConEmuSize.obj
 0001:0002f9d8       ?UpdateWindowRgn@CConEmuSize@@QAEXHHHH@Z 004309d8 f   ConEmuSize.obj
 0001:0002fb48       ?VisualPosFromReal@CConEmuSize@@IAE?AUtagPOINT@@HH@Z 00430b48 f   ConEmuSize.obj
 0001:0002fb7c       ?isFullScreen@CConEmuSize@@QAE_NXZ 00430b7c f   ConEmuSize.obj
 0001:0002fb9e       ?isIconic@CConEmuSize@@QAE_N_N@Z 00430b9e f   ConEmuSize.obj
 0001:0002fc5a       ?isSizing@CConEmuSize@@QAE_NI@Z 00430c5a f   ConEmuSize.obj
 0001:0002fcad       ?isWindowNormal@CConEmuSize@@QAE_NXZ 00430cad f   ConEmuSize.obj
 0001:0002fce4       ?isZoomed@CConEmuSize@@QAE_NXZ 00430ce4 f   ConEmuSize.obj
 0001:0002fd06       ?push_back@?$MArray@UMonitorInfoCache@CConEmuSize@@@@QAEHABUMonitorInfoCache@CConEmuSize@@@Z 00430d06 f i ConEmuSize.obj
 0001:0002fd56       ?setWindowPos@CConEmuSize@@QAE_NPAUHWND__@@HHHHI@Z 00430d56 f   ConEmuSize.obj
 0001:0002fead       ??$wcscat_add@$0CAI@@@YAHHAAY0CAI@_WPB_W@Z 00430ead f i ConEmuStart.obj
 0001:0002fed9       ??$wcscpy_add@$0CAI@@@YAHHAAY0CAI@_WPB_W@Z 00430ed9 f i ConEmuStart.obj
 0001:0002ff05       ??$wcscpy_add@$0CAI@@@YAHPA_WAAY0CAI@_WPB_W@Z 00430f05 f i ConEmuStart.obj
 0001:0002ff32       ??0CConEmuStart@@QAE@PAVCConEmuMain@@@Z 00430f32 f   ConEmuStart.obj
 0001:0002ffd4       ??0StartOptions@CConEmuStart@@QAE@XZ 00430fd4 f i ConEmuStart.obj
 0001:000302a5       ??1CConEmuStart@@UAE@XZ    004312a5 f   ConEmuStart.obj
 0001:000302d0       ??1CESwitch@@QAE@XZ        004312d0 f   ConEmuStart.obj
 0001:00030306       ??1StartOptions@CConEmuStart@@QAE@XZ 00431306 f i ConEmuStart.obj
 0001:000305d3       ??BCESwitch@@QAE_NXZ       004315d3 f   ConEmuStart.obj
 0001:000305d8       ??_GCConEmuStart@@UAEPAXI@Z 004315d8 f i ConEmuStart.obj
 0001:000305d8       ??_ECConEmuStart@@UAEPAXI@Z 004315d8 f i ConEmuStart.obj
 0001:000305fd       ?Clear@CESwitch@@QAEXXZ    004315fd f   ConEmuStart.obj
 0001:00030626       ?FindBashLocation@CConEmuStart@@QAE_NAAUCEStr@@@Z 00431626 f   ConEmuStart.obj
 0001:00030714       ?GetBool@CESwitch@@QAE_NXZ 00431714 f   ConEmuStart.obj
 0001:00030725       ?GetCfgParm@CConEmuStart@@IAE_NAAPB_WAAUCESwitch@@H_N@Z 00431725 f   ConEmuStart.obj
 0001:00030888       ?GetCmd@CConEmuStart@@QAEPB_WPA_N_N@Z 00431888 f   ConEmuStart.obj
 0001:00030b54       ?GetCurCmd@CConEmuStart@@QAEPB_WPA_N@Z 00431b54 f   ConEmuStart.obj
 0001:00030b8c       ?GetDefaultCmd@CConEmuStart@@QAEPB_WXZ 00431b8c f   ConEmuStart.obj
 0001:00030b90       ?GetDefaultTask@CConEmuStart@@QAEPB_WXZ 00431b90 f   ConEmuStart.obj
 0001:00030bd8       ?GetInt@CESwitch@@QAEHXZ   00431bd8 f   ConEmuStart.obj
 0001:00030bea       ?GetStr@CESwitch@@QAEPB_WXZ 00431bea f   ConEmuStart.obj
 0001:00030c14       ?ParseCommandLine@CConEmuStart@@QAE_NPB_WAAH@Z 00431c14 f   ConEmuStart.obj
 0001:00032bd8       ?ProcessConEmuArgsVar@CConEmuStart@@IAEXXZ 00433bd8 f   ConEmuStart.obj
 0001:00032c79       ?ResetCmdArg@CConEmuStart@@QAEXXZ 00433c79 f   ConEmuStart.obj
 0001:00032c8c       ?ResetConman@CConEmuStart@@QAEXXZ 00433c8c f   ConEmuStart.obj
 0001:00032ce0       ?SetBool@CESwitch@@QAEX_N@Z 00433ce0 f   ConEmuStart.obj
 0001:00032cfa       ?SetCurCmd@CConEmuStart@@QAEXPB_W_N@Z 00433cfa f   ConEmuStart.obj
 0001:00032d1e       ?SetDefaultCmd@CConEmuStart@@QAEXPB_W@Z 00433d1e f   ConEmuStart.obj
 0001:00032dc8       ?SetInt@CESwitch@@QAEXH@Z  00433dc8 f   ConEmuStart.obj
 0001:00032de3       ?SetInt@CESwitch@@QAEXPB_WH@Z 00433de3 f   ConEmuStart.obj
 0001:00032e0f       ?SetStr@CESwitch@@QAEXPB_WW4CESwitchType@@@Z 00433e0f f   ConEmuStart.obj
 0001:00032e5f       ??$wcscpy_c@$0IA@@@YAHAAY0IA@_WPB_W@Z 00433e5f f i ConfirmDlg.obj
 0001:00032e74       ?ConfirmCloseConsoles@@YAHABUConfirmCloseParam@@@Z 00433e74 f   ConfirmDlg.obj
 0001:0003344d       ?ConfirmDialog@@YAHPB_W000IPAUHWND__@@000000@Z 0043444d f   ConfirmDlg.obj
 0001:00033ac7       ?TaskDialog@@YAJPAU_TASKDIALOGCONFIG@@PAH1PA_N@Z 00434ac7 f   ConfirmDlg.obj
 0001:00033c06       ??0CAdjustProcessToken@@QAE@XZ 00434c06 f i CreateProcess.obj
 0001:00033c44       ??1CAdjustProcessToken@@QAE@XZ 00434c44 f i CreateProcess.obj
 0001:00033c8e       ?CreateProcessDemoted@@YAHPA_WPAU_SECURITY_ATTRIBUTES@@1HKPAXPB_WPAU_STARTUPINFOW@@PAU_PROCESS_INFORMATION@@PAK@Z 00434c8e f   CreateProcess.obj
 0001:00033e65       ?CreateProcessInteractive@@YAHKPB_WPA_WPAU_SECURITY_ATTRIBUTES@@2HKPAX0PAU_STARTUPINFOW@@PAU_PROCESS_INFORMATION@@PAK@Z 00434e65 f   CreateProcess.obj
 0001:0003427b       ?CreateProcessRestricted@@YAHPB_WPA_WPAU_SECURITY_ATTRIBUTES@@2HKPAX0PAU_STARTUPINFOW@@PAU_PROCESS_INFORMATION@@PAK@Z 0043527b f   CreateProcess.obj
 0001:0003438a       ?CreateProcessSystem@@YAHKPA_WPAU_SECURITY_ATTRIBUTES@@1HKPAXPB_WPAU_STARTUPINFOW@@PAU_PROCESS_INFORMATION@@PAK@Z 0043538a f   CreateProcess.obj
 0001:000343ba       ?Enable@CAdjustProcessToken@@QAAHHZZ 004353ba f i CreateProcess.obj
 0001:00034413       ?Enable@CAdjustProcessToken@@QAEHPAPB_WH@Z 00435413 f i CreateProcess.obj
 0001:00034504       ?Release@CAdjustProcessToken@@QAEXXZ 00435504 f i CreateProcess.obj
 0001:0003456b       ??0CEDC@@QAE@PAUHDC__@@@Z  0043556b f   CustomFonts.obj
 0001:000345c9       ??1BDFFont@@UAE@XZ         004355c9 f i CustomFonts.obj
 0001:00034607       ??1CachedSolidBrush@@QAE@XZ 00435607 f   CustomFonts.obj
 0001:00034617       ??1CustomFontFamily@@QAE@XZ 00435617 f   CustomFonts.obj
 0001:00034665       ??_GBDFFont@@UAEPAXI@Z     00435665 f i CustomFonts.obj
 0001:00034665       ??_EBDFFont@@UAEPAXI@Z     00435665 f i CustomFonts.obj
 0001:00034687       ??_GCustomFont@@UAEPAXI@Z  00435687 f i CustomFonts.obj
 0001:00034687       ??_ECustomFont@@UAEPAXI@Z  00435687 f i CustomFonts.obj
 0001:000346aa       ?AddFont@CustomFontFamily@@QAEXPAVCustomFont@@@Z 004356aa f   CustomFonts.obj
 0001:00034703       ?BDF_GetFamilyName@@YAHPB_WAAY0CA@_W@Z 00435703 f   CustomFonts.obj
 0001:00034731       ?BDF_Load@@YAPAVCustomFont@@PB_W@Z 00435731 f   CustomFonts.obj
 0001:0003473a       ?Create@CEDC@@QAE_NII@Z    0043573a f   CustomFonts.obj
 0001:0003491c       ?CreateBitmap@BDFFont@@AAEXXZ 0043591c f i CustomFonts.obj
 0001:00034a04       ?Delete@CEDC@@QAEXXZ       00435a04 f   CustomFonts.obj
 0001:00034a5e       ?Get@CachedSolidBrush@@QAEPAUHBRUSH__@@K@Z 00435a5e f   CustomFonts.obj
 0001:00034a88       ?GetBoundingBox@BDFFont@@UAEXPAJ0@Z 00435a88 f i CustomFonts.obj
 0001:00034a9f       ?GetFamilyName@BDFFont@@SA_NPB_WAAY0CA@_W@Z 00435a9f f i CustomFonts.obj
 0001:00034bd7       ?GetFont@CustomFontFamily@@QAEPAVCustomFont@@HHHH@Z 00435bd7 f   CustomFonts.obj
 0001:00034cc3       ?GetSize@BDFFont@@UAEHXZ   00435cc3 f i CustomFonts.obj
 0001:00034cdc       ?HasBorders@BDFFont@@UAEHXZ 00435cdc f i CustomFonts.obj
 0001:00034cdc       ?GetFrameWidth@CFrameHolder@@QAEHXZ 00435cdc f i FrameHolder.obj
 0001:00034ce0       ?IsBold@BDFFont@@UAEHXZ    00435ce0 f i CustomFonts.obj
 0001:00034ce4       __get_startup_commit_mode  00435ce4 f i LIBCMT:commit_mode.obj
 0001:00034ce4       __get_startup_new_mode     00435ce4 f i LIBCMT:new_mode.obj
 0001:00034ce4       ___scrt_initialize_winrt   00435ce4 f i LIBCMT:utility_desktop.obj
 0001:00034ce4       __matherr                  00435ce4 f i LIBCMT:matherr.obj
 0001:00034ce4       ?GetPageType@CSetPgFonts@@UAE?AW4TabHwndIndex@@XZ 00435ce4 f i SetPgFonts.obj
 0001:00034ce4       __get_startup_thread_locale_mode 00435ce4 f i LIBCMT:thread_locale.obj
 0001:00034ce4       ?IsUnderline@BDFFont@@UAEHXZ 00435ce4 f i CustomFonts.obj
 0001:00034ce4       ?IsItalic@BDFFont@@UAEHXZ  00435ce4 f i CustomFonts.obj
 0001:00034ce7       ?Load@BDFFont@@SAPAV1@PB_W@Z 00435ce7 f i CustomFonts.obj
 0001:0003511c       ?LoadBuffer@BDFFont@@SAPADPB_WAAPAD1@Z 0043611c f i CustomFonts.obj
 0001:000351e5       ?NextLine@BDFFont@@SAIAAPAD0@Z 004361e5 f i CustomFonts.obj
 0001:0003520f       ?NextWord@BDFFont@@SAIAAPAD0D@Z 0043620f f i CustomFonts.obj
 0001:00035259       ?Reset@CEDC@@AAEXXZ        00436259 f   CustomFonts.obj
 0001:00035285       ?SelectFont@CEDC@@QAEXPAVCFont@@@Z 00436285 f   CustomFonts.obj
 0001:00035313       ?SetBkColor@CEDC@@QAEXK@Z  00436313 f   CustomFonts.obj
 0001:00035350       ?SetBkMode@CEDC@@QAEXH@Z   00436350 f   CustomFonts.obj
 0001:0003538d       ?SetTextColor@CEDC@@QAEXK@Z 0043638d f   CustomFonts.obj
 0001:000353ca       ?TextDraw@BDFFont@@UAEXPAKIKKPB_WI@Z 004363ca f i CustomFonts.obj
 0001:000354c8       ?TextDraw@BDFFont@@UAEXPAUHDC__@@HHPB_WI@Z 004364c8 f i CustomFonts.obj
 0001:00035521       ?TextDraw@CEDC@@QAE_NHHIPBUtagRECT@@PB_WIPBH@Z 00436521 f   CustomFonts.obj
 0001:000356d2       ?TextDrawOem@CEDC@@QAE_NHHIPBUtagRECT@@PBDIPBH@Z 004366d2 f   CustomFonts.obj
 0001:000357a6       ?TextExtentPoint@CEDC@@QAE_NPB_WHPAUtagSIZE@@@Z 004367a6 f   CustomFonts.obj
 0001:0003585e       ??0CDefTermBase@@QAE@_N@Z  0043685e f i DefaultTerm.obj
 0001:000358fe       ??0CDefaultTerminal@@QAE@XZ 004368fe f   DefaultTerm.obj
 0001:00035920       ??0CEDefTermOpt@@QAE@XZ    00436920 f i DefaultTerm.obj
 0001:00035951       ??1?$MArray@UMonitorInfoCache@CConEmuSize@@@@QAE@XZ 00436951 f i ConEmuSize.obj
 0001:00035951       ??1?$MArray@UThreadHandle@CDefTermBase@@@@QAE@XZ 00436951 f i DefaultTerm.obj
 0001:00035951       ??1?$MArray@UProcessInfo@CDefTermBase@@@@QAE@XZ 00436951 f i DefaultTerm.obj
 0001:00035951       ??1?$MArray@UConProcess@@@@QAE@XZ 00436951 f i RealConsole.obj
 0001:00035951       ??1?$MArray@UtagPROCESSENTRY32W@@@@QAE@XZ 00436951 f i RealConsole.obj
 0001:00035987       ??1CDefTermBase@@UAE@XZ    00436987 f i DefaultTerm.obj
 0001:000359e5       ??1CDefaultTerminal@@UAE@XZ 004369e5 f   DefaultTerm.obj
 0001:00035a2c       ??1CEDefTermOpt@@QAE@XZ    00436a2c f i DefaultTerm.obj
 0001:00035ad2       ??_GCDefTermBase@@UAEPAXI@Z 00436ad2 f i DefaultTerm.obj
 0001:00035ad2       ??_ECDefTermBase@@UAEPAXI@Z 00436ad2 f i DefaultTerm.obj
 0001:00035af7       ??_GCDefaultTerminal@@UAEPAXI@Z 00436af7 f i DefaultTerm.obj
 0001:00035af7       ??_ECDefaultTerminal@@UAEPAXI@Z 00436af7 f i DefaultTerm.obj
 0001:00035b1c       ?ApplyAndSave@CDefaultTerminal@@QAEX_N0@Z 00436b1c f   DefaultTerm.obj
 0001:00035b42       ?AutoClearThreads@CDefTermBase@@MAEXXZ 00436b42 f i DefaultTerm.obj
 0001:00035b4a       ?AutoClearThreads@CDefaultTerminal@@MAEXXZ 00436b4a f   DefaultTerm.obj
 0001:00035b61       ?CheckRegisterOsStartup@CDefaultTerminal@@QAEXXZ 00436b61 f   DefaultTerm.obj
 0001:00035d00       ?ClearThreads@CDefTermBase@@IAEX_N@Z 00436d00 f i DefaultTerm.obj
 0001:00035d84       ?ConhostLocker@CDefaultTerminal@@MAEX_NAA_N@Z 00436d84 f   DefaultTerm.obj
 0001:00035db6       ?DisplayLastError@CDefaultTerminal@@MAEHPB_WKK0PAUHWND__@@@Z 00436db6 f   DefaultTerm.obj
 0001:00035dd4       ?_Getal@?$_Vector_alloc@U?$_Vec_base_types@V?$_List_unchecked_iterator@V?$_List_val@U?$_List_simple_types@U?$pair@$$CBHG@std@@@std@@@std@@@std@@V?$allocator@V?$_List_unchecked_iterator@V?$_List_val@U?$_List_simple_types@U?$pair@$$CBHG@std@@@std@@@std@@@std@@@2@@std@@@std@@QAEAAV?$allocator@V?$_List_unchecked_iterator@V?$_List_val@U?$_List_simple_types@U?$pair@$$CBHG@std@@@std@@@std@@@std@@@2@XZ 00436dd4 f   Font.obj
 0001:00035dd4       ?GetInterface@CDefaultTerminal@@MAEPAVCDefTermBase@@XZ 00436dd4 f   DefaultTerm.obj
 0001:00035dd7       ?Initialize@CDefTermBase@@IAEX_N00@Z 00436dd7 f i DefaultTerm.obj
 0001:00035f54       ?IsRegisteredOsStartup@CDefaultTerminal@@QAE_NPAUCEStr@@PA_N@Z 00436f54 f   DefaultTerm.obj
 0001:00035ffa       ?LogHookingStatus@CDefaultTerminal@@UAEXKPB_W@Z 00436ffa f   DefaultTerm.obj
 0001:0003606d       ?NotifyHookingStatus@CDefaultTerminal@@MAE_NKPB_W@Z 0043706d f   DefaultTerm.obj
 0001:00036128       ?OnTaskbarCreated@CDefaultTerminal@@QAEXXZ 00437128 f   DefaultTerm.obj
 0001:00036140       ??1CRConFiles@@QAE@XZ      00437140 f   RConFiles.obj
 0001:00036140       @_guard_check_icall_nop@4  00437140 f   LIBCMT:guard_support.obj
 0001:00036140       ?ResetOnStart@CVirtualConsole@@QAEXXZ 00437140 f   VirtualConsole.obj
 0001:00036140       ?SyncWindowToConsole@CVConGroup@@SAXXZ 00437140 f   VConGroup.obj
 0001:00036140       __initialize_denormal_control 00437140 f   LIBCMT:denormal_control.obj
 0001:00036140       ?OnTaskbarCreated@CDragDropData@@QAEXXZ 00437140 f   DragDropData.obj
 0001:00036140       ?PostCreateThreadFinished@CDefaultTerminal@@MAEXXZ 00437140 f   DefaultTerm.obj
 0001:00036140       __initialize_invalid_parameter_handler 00437140 f   LIBCMT:invalid_parameter_handler.obj
 0001:00036140       ?ResetCache@CRConFiles@@QAEXXZ 00437140 f   RConFiles.obj
 0001:00036140       ??1CPushInfo@@QAE@XZ       00437140 f   PushInfo.obj
 0001:00036140       ?PostCreateThreadFinished@CDefTermBase@@MAEXXZ 00437140 f   DefaultTerm.obj
 0001:00036140       ?PrintRecentStack@CTabBarClass@@QAEXXZ 00437140 f   TabBar.obj
 0001:00036140       ?PreCreateThread@CDefTermBase@@MAEXXZ 00437140 f   DefaultTerm.obj
 0001:00036140       ??1CAltNumpad@@QAE@XZ      00437140 f   AltNumpad.obj
 0001:00036141       ?PostCreatedThread@CDefTermBase@@KGKPAX@Z 00437141 f i DefaultTerm.obj
 0001:0003616d       ?PreCreateThread@CDefaultTerminal@@MAEXXZ 0043716d f   DefaultTerm.obj
 0001:00036181       ?ReloadSettings@CDefaultTerminal@@MAEXXZ 00437181 f   DefaultTerm.obj
 0001:00036291       ?Serialize@CEDefTermOpt@@QAE_N_N@Z 00437291 f i DefaultTerm.obj
 0001:00036817       ?ShowTrayIconError@CDefaultTerminal@@MAEXPB_W@Z 00437817 f   DefaultTerm.obj
 0001:0003682d       ?StartGuiDefTerm@CDefaultTerminal@@QAEX_N0@Z 0043782d f   DefaultTerm.obj
 0001:0003686a       ?StopHookers@CDefTermBase@@MAEXXZ 0043786a f i DefaultTerm.obj
 0001:0003688d       ?isDefaultTerminalAllowed@CDefaultTerminal@@UAE_N_N@Z 0043788d f   DefaultTerm.obj
 0001:000368b2       ?isLogging@CDefaultTerminal@@UAE_NXZ 004378b2 f   DefaultTerm.obj
 0001:000368c5       ?GetNumber@CDlgItemHelper@@SAHPAUHWND__@@GHH@Z 004378c5 f   DlgItemHelper.obj
 0001:0003697f       ?GetString@CDlgItemHelper@@SAHPAUHWND__@@GPAPA_WPB_W_N@Z 0043797f f   DlgItemHelper.obj
 0001:00036b36       ?InvalidateCtrl@CDlgItemHelper@@SAXPAUHWND__@@H@Z 00437b36 f   DlgItemHelper.obj
 0001:00036b49       ?OpenHyperlink@CDlgItemHelper@@SA_NAAUCEStr@@PAUHWND__@@@Z 00437b49 f   DlgItemHelper.obj
 0001:00036b89       ?ProcessHyperlinkCtrl@CDlgItemHelper@@SA_NPAUHWND__@@G@Z 00437b89 f   DlgItemHelper.obj
 0001:00036c4a       ?checkDlgButton@CDlgItemHelper@@SA_NPAUHWND__@@GI@Z 00437c4a f   DlgItemHelper.obj
 0001:00036c65       ?checkRadioButton@CDlgItemHelper@@SA_NPAUHWND__@@HHH@Z 00437c65 f   DlgItemHelper.obj
 0001:00036c81       ?enableDlgItem@CDlgItemHelper@@SAXPAUHWND__@@G_N@Z 00437c81 f   DlgItemHelper.obj
 0001:00036ca1       ?enableDlgItems@CDlgItemHelper@@SAXPAUHWND__@@PAIH_N@Z 00437ca1 f   DlgItemHelper.obj
 0001:00036d2f       ?isChecked2@CDlgItemHelper@@SA_NPAUHWND__@@G@Z 00437d2f f   DlgItemHelper.obj
 0001:00036d46       ?isChecked@CDlgItemHelper@@SAEPAUHWND__@@G@Z 00437d46 f   DlgItemHelper.obj
 0001:00036d73       ?isHyperlinkCtrl@CDlgItemHelper@@SA_NG@Z 00437d73 f   DlgItemHelper.obj
 0001:00036d9e       ??0CDpiForDialog@@IAE@XZ   00437d9e f   DpiAware.obj
 0001:00036e0b       ??0DpiValue@@QAE@I@Z       00437e0b f   DpiAware.obj
 0001:00036e28       ??0DpiValue@@QAE@XZ        00437e28 f   DpiAware.obj
 0001:00036e33       ??1CDpiForDialog@@QAE@XZ   00437e33 f   DpiAware.obj
 0001:00036e85       ?Attach@CDpiForDialog@@QAE_NPAUHWND__@@0PAVCDynDialog@@@Z 00437e85 f   DpiAware.obj
 0001:00037085       ?CenterDialog@CDpiAware@@SAXPAUHWND__@@@Z 00438085 f   DpiAware.obj
 0001:00037153       ?Create@CDpiForDialog@@SA_NAAPAV1@@Z 00438153 f   DpiAware.obj
 0001:000371a1       ?Detach@CDpiForDialog@@QAEXXZ 004381a1 f   DpiAware.obj
 0001:00037214       ?Equals@DpiValue@@QBE_NABU1@@Z 00438214 f   DpiAware.obj
 0001:00037232       ?GetCenteredRect@CDpiAware@@SAXPAUHWND__@@AAUtagRECT@@PAUHMONITOR__@@@Z 00438232 f   DpiAware.obj
 0001:000372c5       ?GetCurDpi@CDpiForDialog@@QBEABUDpiValue@@XZ 004382c5 f   DpiAware.obj
 0001:000372c9       ?GetFontSizeForDpi@CDpiForDialog@@IAEHPAUHDC__@@H@Z 004382c9 f   DpiAware.obj
 0001:000372fb       ?IsPerMonitorDpi@CDpiAware@@SA_NXZ 004382fb f   DpiAware.obj
 0001:000373ae       ?LoadDialogItems@CDpiForDialog@@KAPAV?$MArray@UDlgItem@CDpiForDialog@@@@PAUHWND__@@@Z 004383ae f   DpiAware.obj
 0001:00037497       ?OnDpiChanged@DpiValue@@QAEXI@Z 00438497 f   DpiAware.obj
 0001:000374b8       ?ProcessDpiMessages@CDpiForDialog@@QAE_NPAUHWND__@@IIJ@Z 004384b8 f   DpiAware.obj
 0001:000374fc       ?QueryDpi@CDpiAware@@SAHPAUHWND__@@PAUDpiValue@@@Z 004384fc f   DpiAware.obj
 0001:00037533       ?QueryDpiForMonitor@CDpiAware@@SAHPAUHMONITOR__@@PAUDpiValue@@W4MonitorDpiType@@@Z 00438533 f   DpiAware.obj
 0001:0003765e       ?QueryDpiForRect@CDpiAware@@SAHABUtagRECT@@PAUDpiValue@@W4MonitorDpiType@@@Z 0043865e f   DpiAware.obj
 0001:0003767d       ?QueryDpiForWindow@CDpiAware@@SAHPAUHWND__@@PAUDpiValue@@@Z 0043867d f   DpiAware.obj
 0001:000376d6       ?SetDialogDPI@CDpiForDialog@@QAE_NABUDpiValue@@PAUtagRECT@@@Z 004386d6 f   DpiAware.obj
 0001:00037ebc       ?SetDpi@DpiValue@@QAEXABU1@@Z 00438ebc f   DpiAware.obj
 0001:00037ed0       ?SetDpi@DpiValue@@QAEXHH@Z 00438ed0 f   DpiAware.obj
 0001:00037ee2       ?UpdateStartupInfo@CDpiAware@@SAXPAUCEStartupEnv@@@Z 00438ee2 f   DpiAware.obj
 0001:00037f80       ?setProcessDPIAwareness@CDpiAware@@SAJXZ 00438f80 f   DpiAware.obj
 0001:00037fd9       ??$SafeDelete@U_ShlOpInfo@CDragDrop@@@@YAXAAPAU_ShlOpInfo@CDragDrop@@@Z 00438fd9 f i DragDrop.obj
 0001:00038008       ??0CDragDrop@@QAE@XZ       00439008 f   DragDrop.obj
 0001:000380c3       ??1CDragDrop@@UAE@XZ       004390c3 f   DragDrop.obj
 0001:00038279       ??_ECDragDrop@@W7AEPAXI@Z  00439279 f i DragDrop.obj
 0001:00038281       ??_ECDragDrop@@UAEPAXI@Z   00439281 f i DragDrop.obj
 0001:00038281       ??_GCDragDrop@@UAEPAXI@Z   00439281 f i DragDrop.obj
 0001:000382a6       ?CreateLink@CDragDrop@@QAEJPB_W00@Z 004392a6 f   DragDrop.obj
 0001:00038327       ?Drag@CDragDrop@@QAEXHU_COORD@@@Z 00439327 f   DragDrop.obj
 0001:000383e8       ?DragEnter@CDragDrop@@UAGJPAUIDataObject@@KU_POINTL@@PAK@Z 004393e8 f   DragDrop.obj
 0001:000384e5       ?DragLeave@CDragDrop@@UAGJXZ 004394e5 f   DragDrop.obj
 0001:00038511       ?DragOver@CDragDrop@@UAGJKU_POINTL@@PAK@Z 00439511 f   DragDrop.obj
 0001:000385a4       ?DragOverInt@CDragDrop@@IAEJKU_POINTL@@PAK@Z 004395a4 f   DragDrop.obj
 0001:00038806       ?DragStart@CDragDrop@@IAEKPAUIDropSource@@KAAK@Z 00439806 f   DragDrop.obj
 0001:0003890a       ?Drop@CDragDrop@@UAGJPAUIDataObject@@KU_POINTL@@PAK@Z 0043990a f   DragDrop.obj
 0001:00038b83       ?DropFromStream@CDragDrop@@IAEJPAUIDataObject@@H@Z 00439b83 f   DragDrop.obj
 0001:000394b3       ?DropFromText@CDragDrop@@IAEJPAUIDataObject@@@Z 0043a4b3 f   DragDrop.obj
 0001:00039578       ?DropLinks@CDragDrop@@IAEJPAUHDROP__@@HH@Z 0043a578 f   DragDrop.obj
 0001:0003979a       ?DropNames@CDragDrop@@IAEJPAUHDROP__@@HH@Z 0043a79a f   DragDrop.obj
 0001:00039d82       ?DropShellOp@CDragDrop@@IAEJPAUIDataObject@@PAKAAUtagSTGMEDIUM@@HH@Z 0043ad82 f   DragDrop.obj
 0001:0003a181       ?FileCreateName@CDragDrop@@IAEPA_WHHPB_W0@Z 0043b181 f   DragDrop.obj
 0001:0003a6e6       ?FileStart@CDragDrop@@IAEPAXPB_W@Z 0043b6e6 f   DragDrop.obj
 0001:0003a7d6       ?FileWrite@CDragDrop@@IAEJPAXK0@Z 0043b7d6 f   DragDrop.obj
 0001:0003a8f4       ?ReportUnknownData@CDragDrop@@IAEXPAUIDataObject@@PB_W@Z 0043b8f4 f   DragDrop.obj
 0001:0003aa7e       ?ShellOpThreadProc@CDragDrop@@KGKPAX@Z 0043ba7e f   DragDrop.obj
 0001:0003ab90       ?erase@?$MArray@U_ThInfo@CDragDrop@@@@QAEXH@Z 0043bb90 f i DragDrop.obj
 0001:0003abdd       ??$PidlDump@PBU_ITEMIDLIST@@@@YAXPBU_ITEMIDLIST@@PAX@Z 0043bbdd f i DragDropData.obj
 0001:0003ada4       ??0CDragDropData@@QAE@XZ   0043bda4 f   DragDropData.obj
 0001:0003ae71       ??1CDragDropData@@UAE@XZ   0043be71 f   DragDropData.obj
 0001:0003af17       ??_ECDragDropData@@UAEPAXI@Z 0043bf17 f i DragDropData.obj
 0001:0003af17       ??_GCDragDropData@@UAEPAXI@Z 0043bf17 f i DragDropData.obj
 0001:0003af3c       ?AddFmt_DragImageBits@CDragDropData@@AAEHPA_WIH@Z 0043bf3c f   DragDropData.obj
 0001:0003b07e       ?AddFmt_FileNameW@CDragDropData@@AAEHPA_WIH@Z 0043c07e f   DragDropData.obj
 0001:0003b0a1       ?AddFmt_HDROP@CDragDropData@@AAEHPA_WIH@Z 0043c0a1 f   DragDropData.obj
 0001:0003b148       ?AddFmt_InShellDragLoop@CDragDropData@@AAEHPA_WIH@Z 0043c148 f   DragDropData.obj
 0001:0003b175       ?AddFmt_PREFERREDDROPEFFECT@CDragDropData@@AAEHPA_WIH@Z 0043c175 f   DragDropData.obj
 0001:0003b1c8       ?AddFmt_SHELLIDLIST@CDragDropData@@AAEHPA_WIH@Z 0043c1c8 f   DragDropData.obj
 0001:0003b3d8       ?CheckIsUpdatePackage@CDragDropData@@IAE_NPAUIDataObject@@@Z 0043c3d8 f   DragDropData.obj
 0001:0003b4c6       ?DragFeedBack@CDragDropData@@QAEXK@Z 0043c4c6 f   DragDropData.obj
 0001:0003b52b       ?DrawImageBits@CDragDropData@@IAEHPAUHDC__@@PA_WPAHH2@Z 0043c52b f   DragDropData.obj
 0001:0003b72a       ?EnumDragFormats@CDragDropData@@IAEXPAUIDataObject@@PAX@Z 0043c72a f   DragDropData.obj
 0001:0003bf56       ?ForwardMessage@CDragDropData@@QAEHIIJ@Z 0043cf56 f   DragDropData.obj
 0001:0003bfa2       ?InDragDrop@CDragDropData@@QAEHXZ 0043cfa2 f   DragDropData.obj
 0001:0003bfb5       ?IsDragImageOsSupported@CDragDropData@@IAE_NXZ 0043cfb5 f   DragDropData.obj
 0001:0003bfd6       ?IsDragStarting@CDragDropData@@QAEHXZ 0043cfd6 f   DragDropData.obj
 0001:0003c00b       ?NeedRefreshToInfo@CDragDropData@@QAE_NU_POINTL@@@Z 0043d00b f   DragDropData.obj
 0001:0003c088       ?PaintDragImageBits@CDragDropData@@IAEHPA_WAAPAUHDC__@@AAPAUHBITMAP__@@2HHPAH3PAUtagPOINT@@_NK@Z 0043d088 f   DragDropData.obj
 0001:0003c4c6       ?PrepareDrag@CDragDropData@@QAEHHU_COORD@@PAK@Z 0043d4c6 f   DragDropData.obj
 0001:0003c6c8       ?Register@CDragDropData@@QAEHXZ 0043d6c8 f   DragDropData.obj
 0001:0003c70e       ?RetrieveDragFromInfo@CDragDropData@@AAEHHU_COORD@@PAPA_WPAI@Z 0043d70e f   DragDropData.obj
 0001:0003ca97       ?RetrieveDragToInfo@CDragDropData@@QAEXU_POINTL@@@Z 0043da97 f   DragDropData.obj
 0001:0003cc7a       ?SetDragToInfo@CDragDropData@@QAEXPBUForwardedPanelInfo@@IPAVCRealConsole@@@Z 0043dc7a f   DragDropData.obj
 0001:0003ce36       ?StringCbCopyW@@YGJPA_WIPB_W@Z 0043de36 f i DragDropData.obj
 0001:0003ce63       ?TerminateDrag@CDragDropData@@IAEXXZ 0043de63 f   DragDropData.obj
 0001:0003cf1e       ?UseSourceHelper@CDragDropData@@IAE_NXZ 0043df1e f   DragDropData.obj
 0001:0003cf91       ?UseTargetHelper@CDragDropData@@IAE_N_N@Z 0043df91 f   DragDropData.obj
 0001:0003d006       ??0CDwmHelper@@QAE@XZ      0043e006 f   DwmHelper.obj
 0001:0003d028       ??1CDwmHelper@@UAE@XZ      0043e028 f   DwmHelper.obj
 0001:0003d0e8       ??_GCDwmHelper@@UAEPAXI@Z  0043e0e8 f i DwmHelper.obj
 0001:0003d0e8       ??_ECDwmHelper@@UAEPAXI@Z  0043e0e8 f i DwmHelper.obj
 0001:0003d10d       ?BeginBufferedPaint@CDwmHelper@@QAEPAXPAUHDC__@@ABUtagRECT@@AAUPaintDC@@@Z 0043e10d f   DwmHelper.obj
 0001:0003d20d       ?DrawType@CDwmHelper@@QAE?AW4FrameDrawStyle@@XZ 0043e20d f   DwmHelper.obj
 0001:0003d260       ?DwmDefWindowProc@CDwmHelper@@QAEHPAUHWND__@@IIJPAJ@Z 0043e260 f   DwmHelper.obj
 0001:0003d273       ?DwmGetWindowAttribute@CDwmHelper@@QAEJPAUHWND__@@KPAXK@Z 0043e273 f   DwmHelper.obj
 0001:0003d289       ?DwmInvalidateIconicBitmaps@CDwmHelper@@QAEJPAUHWND__@@@Z 0043e289 f   DwmHelper.obj
 0001:0003d29f       ?DwmSetIconicLivePreviewBitmap@CDwmHelper@@QAEJPAUHWND__@@PAUHBITMAP__@@PAUtagPOINT@@@Z 0043e29f f   DwmHelper.obj
 0001:0003d2bf       ?DwmSetIconicThumbnail@CDwmHelper@@QAEJPAUHWND__@@PAUHBITMAP__@@@Z 0043e2bf f   DwmHelper.obj
 0001:0003d2dc       ?EndBufferedPaint@CDwmHelper@@QAEJAAUPaintDC@@H@Z 0043e2dc f   DwmHelper.obj
 0001:0003d369       ?ExtendWindowFrame@CDwmHelper@@QAE_NPAUHWND__@@ABUtagRECT@@@Z 0043e369 f   DwmHelper.obj
 0001:0003d3c9       ?ExtendWindowFrame@CDwmHelper@@QAE_NXZ 0043e3c9 f   DwmHelper.obj
 0001:0003d406       ?ForceSetIconic@CDwmHelper@@QAEXPAUHWND__@@@Z 0043e406 f   DwmHelper.obj
 0001:0003d447       ?GetDwmClientRectTopOffset@CDwmHelper@@QAEHXZ 0043e447 f   DwmHelper.obj
 0001:0003d4a2       ?InitDwm@CDwmHelper@@AAEXXZ 0043e4a2 f   DwmHelper.obj
 0001:0003d76c       ?IsDwm@CDwmHelper@@QAE_NXZ 0043e76c f   DwmHelper.obj
 0001:0003d799       ?IsGlass@CDwmHelper@@QAE_NXZ 0043e799 f   DwmHelper.obj
 0001:0003d7c1       ?IsThemed@CDwmHelper@@QAE_NXZ 0043e7c1 f   DwmHelper.obj
 0001:0003d7e0       ??1CDynDialog@@UAE@XZ      0043e7e0 f   DynDialog.obj
 0001:0003d887       ??_G?$MMap@PAUHWND__@@PAVCDynDialog@@$0A@@@QAEPAXI@Z 0043e887 f i DynDialog.obj
 0001:0003d8e2       ??_GCDynDialog@@UAEPAXI@Z  0043e8e2 f i DynDialog.obj
 0001:0003d8e2       ??_ECDynDialog@@UAEPAXI@Z  0043e8e2 f i DynDialog.obj
 0001:0003d904       ?Del@?$MMap@PAUHWND__@@PAVCDynDialog@@$0A@@@QAE_NABQAUHWND__@@@Z 0043e904 f i DynDialog.obj
 0001:0003d920       ?DynDialogBox@CDynDialog@@KGHPAUHWND__@@IIJ@Z 0043e920 f   DynDialog.obj
 0001:0003d9b2       ?ExecuteDialog@CDynDialog@@SAHIPAUHWND__@@P6GH0IIJ@ZJ@Z 0043e9b2 f   DynDialog.obj
 0001:0003da6c       ?Get@?$MMap@IPBD$0A@@@QAE_NABIPAPBD_N@Z 0043ea6c f i ConEmu.obj
 0001:0003da6c       ?Get@?$MMap@PAUHWND__@@PAVCDynDialog@@$0A@@@QAE_NABQAUHWND__@@PAPAVCDynDialog@@_N@Z 0043ea6c f i DynDialog.obj
 0001:0003da6c       ?Get@?$MMap@PAUHWND__@@PAVCVirtualConsole@@$0A@@@QAE_NABQAUHWND__@@PAPAVCVirtualConsole@@_N@Z 0043ea6c f i VConChild.obj
 0001:0003da6c       ?Get@?$MMap@PAUHWND__@@PAVCFindPanel@@$0A@@@QAE_NABQAUHWND__@@PAPAVCFindPanel@@_N@Z 0043ea6c f i FindPanel.obj
 0001:0003da6c       ?Get@?$MMap@KH$0A@@@QAE_NABKPAH_N@Z 0043ea6c f i RealConsole.obj
 0001:0003da6c       ?Get@?$MMap@HPAV?$MArray@UDlgItem@CDpiForDialog@@@@$0A@@@QAE_NABHPAPAV?$MArray@UDlgItem@CDpiForDialog@@@@_N@Z 0043ea6c f i DpiAware.obj
 0001:0003da6c       ?Get@?$MMap@PAVCVConGroup@@PAVCVirtualConsole@@$0A@@@QAE_NABQAVCVConGroup@@PAPAVCVirtualConsole@@_N@Z 0043ea6c f i TabBar.obj
 0001:0003da6c       ?Get@?$MMap@PAUHWND__@@P6GJPAU1@IIJ@Z$0A@@@QAE_NABQAUHWND__@@PAP6GJPAU2@IIJ@Z_N@Z 0043ea6c f i SetDlgColors.obj
 0001:0003dacb       ?GetDlgClass@CDynDialog@@SAPAV1@PAUHWND__@@@Z 0043eacb f   DynDialog.obj
 0001:0003daf3       ?GetFontPointSize@CDynDialog@@QAEIXZ 0043eaf3 f   DynDialog.obj
 0001:0003db06       ?GetNext@?$MMap@PAUHWND__@@PAVCDynDialog@@$0A@@@QAE_NPBQAUHWND__@@PAPAU2@PAPAVCDynDialog@@@Z 0043eb06 f i DynDialog.obj
 0001:0003db06       ?GetNext@?$MMap@HPAV?$MArray@UDlgItem@CDpiForDialog@@@@$0A@@@QAE_NPBHPAHPAPAV?$MArray@UDlgItem@CDpiForDialog@@@@@Z 0043eb06 f i DpiAware.obj
 0001:0003db89       ?LoadTemplate@CDynDialog@@QAE_NXZ 0043eb89 f   DynDialog.obj
 0001:0003ddb3       ?LocalizeControl@CDynDialog@@SGHPAUHWND__@@J@Z 0043edb3 f   DynDialog.obj
 0001:0003de93       ?LocalizeDialog@CDynDialog@@SAXPAUHWND__@@I@Z 0043ee93 f   DynDialog.obj
 0001:0003deda       ?ParseDialog@CDynDialog@@IAE_NAAK@Z 0043eeda f   DynDialog.obj
 0001:0003df81       ?ParseDialogEx@CDynDialog@@IAE_NAAK@Z 0043ef81 f   DynDialog.obj
 0001:0003e043       ?ParseItem@CDynDialog@@IAE_NAAK@Z 0043f043 f   DynDialog.obj
 0001:0003e0de       ?ParseItemEx@CDynDialog@@IAE_NAAK@Z 0043f0de f   DynDialog.obj
 0001:0003e17e       ?PrepareDlg@CDynDialog@@IAEXP6GHPAUHWND__@@IIJ@Z@Z 0043f17e f   DynDialog.obj
 0001:0003e1ce       ?ShowDialog@CDynDialog@@SAPAV1@IPAUHWND__@@P6GH0IIJ@ZJ@Z 0043f1ce f   DynDialog.obj
 0001:0003e28f       ?SkipSz@CDynDialog@@IAEPA_WAAK@Z 0043f28f f   DynDialog.obj
 0001:0003e2bb       ?SkipSzOrAtom@CDynDialog@@IAEPA_WAAK@Z 0043f2bb f   DynDialog.obj
 0001:0003e33b       ?SkipSzOrOrd@CDynDialog@@IAEPA_WAAK@Z 0043f33b f   DynDialog.obj
 0001:0003e36c       ?push_back@?$MArray@UDragData@CDataObject@@@@QAEHABUDragData@CDataObject@@@Z 0043f36c f i BaseDragDrops.obj
 0001:0003e36c       ?push_back@?$MArray@UItemInfo@CDynDialog@@@@QAEHABUItemInfo@CDynDialog@@@Z 0043f36c f i DynDialog.obj
 0001:0003e3bc       ??0CEFindDlg@@QAE@XZ       0043f3bc f   FindDlg.obj
 0001:0003e3bc       ??0MSectionLock@@QAE@XZ    0043f3bc f   common-kernel32:MSection.obj
 0001:0003e3c9       ?FindTextDialog@CEFindDlg@@QAEXXZ 0043f3c9 f   FindDlg.obj
 0001:0003e4d8       ?UpdateFindDlgAlpha@CEFindDlg@@QAEX_N@Z 0043f4d8 f   FindDlg.obj
 0001:0003e580       ?findTextProc@CEFindDlg@@SGHPAUHWND__@@IIJ@Z 0043f580 f   FindDlg.obj
 0001:0003ea42       ??$SafeDelete@UCEStr@@@@YAXAAPAUCEStr@@@Z 0043fa42 f i FindPanel.obj
 0001:0003ea7f       ??0CFindPanel@@QAE@PAVCConEmuMain@@@Z 0043fa7f f   FindPanel.obj
 0001:0003eb04       ??1CFindPanel@@QAE@XZ      0043fb04 f   FindPanel.obj
 0001:0003eb59       ?Activate@CFindPanel@@QAEPAUHWND__@@_N@Z 0043fb59 f   FindPanel.obj
 0001:0003eba4       ?CreatePane@CFindPanel@@QAEPAUHWND__@@PAU2@H@Z 0043fba4 f   FindPanel.obj
 0001:0003ec14       ?EditCtrlProc@CFindPanel@@KGJPAUHWND__@@IIJ@Z 0043fc14 f   FindPanel.obj
 0001:0003eccf       ?FindPaneProc@CFindPanel@@KGJPAUHWND__@@IIJ@Z 0043fccf f   FindPanel.obj
 0001:0003eddc       ?GetMinWidth@CFindPanel@@QAEHXZ 0043fddc f   FindPanel.obj
 0001:0003edf6       ?IsAvailable@CFindPanel@@QAE_N_N@Z 0043fdf6 f   FindPanel.obj
 0001:0003ee41       ?OnCreate@CFindPanel@@IAE_NPAUtagCREATESTRUCTW@@@Z 0043fe41 f   FindPanel.obj
 0001:0003ee62       ?OnCreateFinished@CFindPanel@@QAE_NXZ 0043fe62 f   FindPanel.obj
 0001:0003ef20       ?OnCreateFont@CFindPanel@@IAEXXZ 0043ff20 f   FindPanel.obj
 0001:0003efea       ?OnDestroy@CFindPanel@@IAEXXZ 0043ffea f   FindPanel.obj
 0001:0003f03d       ?OnKeyboard@CFindPanel@@IAE_NIIJAAJ@Z 0044003d f   FindPanel.obj
 0001:0003f1ee       ?OnSearch@CFindPanel@@IAEXXZ 004401ee f   FindPanel.obj
 0001:0003f28b       ?OnSize@CFindPanel@@IAEXPAUtagRECT@@@Z 0044028b f   FindPanel.obj
 0001:0003f382       ?OnWindowPosChanging@CFindPanel@@IAEXPAUtagWINDOWPOS@@@Z 00440382 f   FindPanel.obj
 0001:0003f3d9       ?RegisterPaneClass@CFindPanel@@IAE_NXZ 004403d9 f   FindPanel.obj
 0001:0003f450       ?ResetSearch@CFindPanel@@IAEXXZ 00440450 f   FindPanel.obj
 0001:0003f461       ?ShowMenu@CFindPanel@@IAEXXZ 00440461 f   FindPanel.obj
 0001:0003f5dd       ?StopSearch@CFindPanel@@IAEXXZ 004405dd f   FindPanel.obj
 0001:0003f61e       ??$_Fill_unchecked1@PAV?$_List_unchecked_iterator@V?$_List_val@U?$_List_simple_types@U?$pair@$$CBHG@std@@@std@@@std@@@std@@V12@@std@@YAXPAV?$_List_unchecked_iterator@V?$_List_val@U?$_List_simple_types@U?$pair@$$CBHG@std@@@std@@@std@@@0@0ABV10@U?$integral_constant@_N$0A@@0@@Z 0044061e f i Font.obj
 0001:0003f68e       ??$_Fill_unchecked@PAV?$_List_unchecked_iterator@V?$_List_val@U?$_List_simple_types@U?$pair@$$CBHG@std@@@std@@@std@@@std@@V12@@std@@YAXPAV?$_List_unchecked_iterator@V?$_List_val@U?$_List_simple_types@U?$pair@$$CBHG@std@@@std@@@std@@@0@0ABV10@@Z 0044068e f i Font.obj
 0001:0003f6ae       ??$_Uninit_alloc_fill_n1@PAV?$_List_unchecked_iterator@V?$_List_val@U?$_List_simple_types@U?$pair@$$CBHG@std@@@std@@@std@@@std@@IV?$allocator@V?$_List_unchecked_iterator@V?$_List_val@U?$_List_simple_types@U?$pair@$$CBHG@std@@@std@@@std@@@std@@@2@@std@@YAPAV?$_List_unchecked_iterator@V?$_List_val@U?$_List_simple_types@U?$pair@$$CBHG@std@@@std@@@std@@@0@PAV10@IABV10@AAV?$allocator@V?$_List_unchecked_iterator@V?$_List_val@U?$_List_simple_types@U?$pair@$$CBHG@std@@@std@@@std@@@std@@@0@U?$integral_constant@_N$0A@@0@@Z 004406ae f i Font.obj
 0001:0003f6d0       ??$_Uninitialized_move_al_unchecked@PAV?$_List_unchecked_iterator@V?$_List_val@U?$_List_simple_types@U?$pair@$$CBHG@std@@@std@@@std@@@std@@PAV12@V?$allocator@V?$_List_unchecked_iterator@V?$_List_val@U?$_List_simple_types@U?$pair@$$CBHG@std@@@std@@@std@@@std@@@2@@std@@YAPAV?$_List_unchecked_iterator@V?$_List_val@U?$_List_simple_types@U?$pair@$$CBHG@std@@@std@@@std@@@0@PAV10@00AAV?$allocator@V?$_List_unchecked_iterator@V?$_List_val@U?$_List_simple_types@U?$pair@$$CBHG@std@@@std@@@std@@@std@@@0@U_General_ptr_iterator_tag@0@U_Unused_parameter@0@@Z 004406d0 f i Font.obj
 0001:0003f709       ??0?$_Hash@V?$_Umap_traits@HGV?$_Uhash_compare@HU?$hash@H@std@@U?$equal_to@H@2@@std@@V?$allocator@U?$pair@$$CBHG@std@@@2@$0A@@std@@@std@@QAE@ABV?$_Uhash_compare@HU?$hash@H@std@@U?$equal_to@H@2@@1@ABV?$allocator@U?$pair@$$CBHG@std@@@1@@Z 00440709 f i Font.obj
 0001:0003f762       ??0CFont@@QAE@PAUHFONT__@@@Z 00440762 f   Font.obj
 0001:0003f807       ??0CFont@@QAE@PAVCustomFont@@@Z 00440807 f   Font.obj
 0001:0003f8b3       ??1?$list@U?$pair@$$CBHG@std@@V?$allocator@U?$pair@$$CBHG@std@@@2@@std@@QAE@XZ 004408b3 f i Font.obj
 0001:0003f8cb       ??1?$unordered_map@HGU?$hash@H@std@@U?$equal_to@H@2@V?$allocator@U?$pair@$$CBHG@std@@@2@@std@@QAE@XZ 004408cb f i Font.obj
 0001:0003f8df       ??1?$vector@V?$_List_unchecked_iterator@V?$_List_val@U?$_List_simple_types@U?$pair@$$CBHG@std@@@std@@@std@@@std@@V?$allocator@V?$_List_unchecked_iterator@V?$_List_val@U?$_List_simple_types@U?$pair@$$CBHG@std@@@std@@@std@@@std@@@2@@std@@QAE@XZ 004408df f i Font.obj
 0001:0003f8e4       ??1CFont@@MAE@XZ           004408e4 f   Font.obj
 0001:0003f975       ??_GCFont@@MAEPAXI@Z       00440975 f i Font.obj
 0001:0003f975       ??_ECFont@@MAEPAXI@Z       00440975 f i Font.obj
 0001:0003f99a       ?Delete@CFont@@IAE_NXZ     0044099a f   Font.obj
 0001:0003f9da       ?Equal@CFont@@QBE_NPBV1@@Z 004409da f   Font.obj
 0001:0003fa07       ?IsSet@CFont@@QBE_NXZ      00440a07 f   Font.obj
 0001:0003fa28       ?ResetFontWidth@CFont@@QAEXXZ 00440a28 f   Font.obj
 0001:0003fa55       ?_Allocate@std@@YAPAXII_N@Z 00440a55 f i Font.obj
 0001:0003fab7       ?_Buy@?$vector@V?$_List_unchecked_iterator@V?$_List_val@U?$_List_simple_types@U?$pair@$$CBHG@std@@@std@@@std@@@std@@V?$allocator@V?$_List_unchecked_iterator@V?$_List_val@U?$_List_simple_types@U?$pair@$$CBHG@std@@@std@@@std@@@std@@@2@@std@@AAE_NI@Z 00440ab7 f i Font.obj
 0001:0003fb03       ?_Buynode0@?$_List_alloc@U?$_List_base_types@U?$pair@$$CBHG@std@@V?$allocator@U?$pair@$$CBHG@std@@@2@@std@@@std@@QAEPAU?$_List_node@U?$pair@$$CBHG@std@@PAX@2@PAU32@0@Z 00440b03 f i Font.obj
 0001:0003fb2d       ?_Calculate_growth@?$vector@V?$_List_unchecked_iterator@V?$_List_val@U?$_List_simple_types@U?$pair@$$CBHG@std@@@std@@@std@@@std@@V?$allocator@V?$_List_unchecked_iterator@V?$_List_val@U?$_List_simple_types@U?$pair@$$CBHG@std@@@std@@@std@@@std@@@2@@std@@ABEII@Z 00440b2d f i Font.obj
 0001:0003fb5a       ?_Change_array@?$vector@V?$_List_unchecked_iterator@V?$_List_val@U?$_List_simple_types@U?$pair@$$CBHG@std@@@std@@@std@@@std@@V?$allocator@V?$_List_unchecked_iterator@V?$_List_val@U?$_List_simple_types@U?$pair@$$CBHG@std@@@std@@@std@@@std@@@2@@std@@AAEXQAV?$_List_unchecked_iterator@V?$_List_val@U?$_List_simple_types@U?$pair@$$CBHG@std@@@std@@@std@@@2@II@Z 00440b5a f i Font.obj
 0001:0003fb96       ?_Deallocate@std@@YAXPAXII@Z 00440b96 f i Font.obj
 0001:0003fbdf       ?_Init@?$_Hash@V?$_Umap_traits@HGV?$_Uhash_compare@HU?$hash@H@std@@U?$equal_to@H@2@@std@@V?$allocator@U?$pair@$$CBHG@std@@@2@$0A@@std@@@std@@IAEXI@Z 00440bdf f i Font.obj
 0001:0003fc26       ?_Reallocate_exactly@?$vector@V?$_List_unchecked_iterator@V?$_List_val@U?$_List_simple_types@U?$pair@$$CBHG@std@@@std@@@std@@@std@@V?$allocator@V?$_List_unchecked_iterator@V?$_List_val@U?$_List_simple_types@U?$pair@$$CBHG@std@@@std@@@std@@@std@@@2@@std@@AAEXI@Z 00440c26 f i Font.obj
 0001:0003fc9c       ?_Tidy@?$vector@V?$_List_unchecked_iterator@V?$_List_val@U?$_List_simple_types@U?$pair@$$CBHG@std@@@std@@@std@@@std@@V?$allocator@V?$_List_unchecked_iterator@V?$_List_val@U?$_List_simple_types@U?$pair@$$CBHG@std@@@std@@@std@@@std@@@2@@std@@AAEXXZ 00440c9c f i Font.obj
 0001:0003fcc5       ?_Xlength@?$vector@V?$_List_unchecked_iterator@V?$_List_val@U?$_List_simple_types@U?$pair@$$CBHG@std@@@std@@@std@@@std@@V?$allocator@V?$_List_unchecked_iterator@V?$_List_val@U?$_List_simple_types@U?$pair@$$CBHG@std@@@std@@@std@@@std@@@2@@std@@CAXXZ 00440cc5 f i Font.obj
 0001:0003fcd0       ?assign@?$vector@V?$_List_unchecked_iterator@V?$_List_val@U?$_List_simple_types@U?$pair@$$CBHG@std@@@std@@@std@@@std@@V?$allocator@V?$_List_unchecked_iterator@V?$_List_val@U?$_List_simple_types@U?$pair@$$CBHG@std@@@std@@@std@@@std@@@2@@std@@QAEXIABV?$_List_unchecked_iterator@V?$_List_val@U?$_List_simple_types@U?$pair@$$CBHG@std@@@std@@@std@@@2@@Z 00440cd0 f i Font.obj
 0001:0003fd8b       ?clear@?$list@U?$pair@$$CBHG@std@@V?$allocator@U?$pair@$$CBHG@std@@@2@@std@@QAEXXZ 00440d8b f i Font.obj
 0001:0003fdba       ?deallocate@?$allocator@V?$_List_unchecked_iterator@V?$_List_val@U?$_List_simple_types@U?$pair@$$CBHG@std@@@std@@@std@@@std@@@std@@QAEXQAV?$_List_unchecked_iterator@V?$_List_val@U?$_List_simple_types@U?$pair@$$CBHG@std@@@std@@@std@@@2@I@Z 00440dba f i Font.obj
 0001:0003fdd1       ?reserve@?$vector@V?$_List_unchecked_iterator@V?$_List_val@U?$_List_simple_types@U?$pair@$$CBHG@std@@@std@@@std@@@std@@V?$allocator@V?$_List_unchecked_iterator@V?$_List_val@U?$_List_simple_types@U?$pair@$$CBHG@std@@@std@@@std@@@std@@@2@@std@@QAEXI@Z 00440dd1 f i Font.obj
 0001:0003fdfa       ??0CFontMgr@@QAE@XZ        00440dfa f   FontMgr.obj
 0001:0003ff1a       ??0CLogFont@@QAE@PB_WJJJEE@Z 00440f1a f i FontMgr.obj
 0001:0003ff96       ??1CFontMgr@@QAE@XZ        00440f96 f   FontMgr.obj
 0001:00040062       ??_FCFontPtr@@QAEXXZ       00441062 f i FontMgr.obj
 0001:0004006a       ?AutoRecreateFont@CFontMgr@@QAE_NHH@Z 0044106a f   FontMgr.obj
 0001:0004013f       ?BorderFontCharSet@CFontMgr@@QAEEXZ 0044113f f   FontMgr.obj
 0001:0004018d       ?BorderFontFaceName@CFontMgr@@QAEPB_WXZ 0044118d f   FontMgr.obj
 0001:000401b3       ?BorderFontHeight@CFontMgr@@QAEJXZ 004411b3 f   FontMgr.obj
 0001:000401f8       ?BorderFontWidth@CFontMgr@@QAEJXZ 004411f8 f   FontMgr.obj
 0001:0004023d       ?Create@CFontMgr@@QAE_NUCLogFont@@AAVCFontPtr@@PAPAVCustomFontFamily@@@Z 0044123d f   FontMgr.obj
 0001:000408d7       ?CreateFontGroup@CFontMgr@@AAE_NUCLogFont@@@Z 004418d7 f   FontMgr.obj
 0001:00040c1b       ?CreateOtherFont@CFontMgr@@QAE_NPB_WAAVCFontPtr@@@Z 00441c1b f   FontMgr.obj
 0001:00040ca1       ?EvalFontHeight@CFontMgr@@QAEJPB_WJE@Z 00441ca1 f   FontMgr.obj
 0001:00040eaf       ?EvalLogfontSizes@CFontMgr@@QAEXAAUtagLOGFONTW@@JJ@Z 00441eaf f   FontMgr.obj
 0001:00040f04       ?FindCustomFont@CFontMgr@@AAE_NPB_WHHHHPAPAVCustomFontFamily@@PAPAVCustomFont@@@Z 00441f04 f   FontMgr.obj
 0001:00040f8b       ?FontBold@CFontMgr@@QAEHXZ 00441f8b f   FontMgr.obj
 0001:00040f9b       ?FontCellWidth@CFontMgr@@QAEJXZ 00441f9b f   FontMgr.obj
 0001:00040fa0       ?FontCharSet@CFontMgr@@QAEEXZ 00441fa0 f   FontMgr.obj
 0001:00040fa7       ?FontFaceName@CFontMgr@@QAEPB_WXZ 00441fa7 f   FontMgr.obj
 0001:00040fae       ?FontHeight@CFontMgr@@QAEJXZ 00441fae f   FontMgr.obj
 0001:0004102d       ?FontHeightHtml@CFontMgr@@QAEJXZ 0044202d f   FontMgr.obj
 0001:000410bb       ?FontItalic@CFontMgr@@QAEHXZ 004420bb f   FontMgr.obj
 0001:000410c7       ?FontMonospaced@CFontMgr@@QAE_NXZ 004420c7 f   FontMgr.obj
 0001:000410f3       ?FontPtrRegister@CFontMgr@@IAEXPAVCFont@@@Z 004420f3 f   FontMgr.obj
 0001:00041103       ?FontPtrUnregister@CFontMgr@@IAEXPAVCFont@@@Z 00442103 f   FontMgr.obj
 0001:00041132       ?FontQuality@CFontMgr@@QAEEXZ 00442132 f   FontMgr.obj
 0001:00041139       ?FontWidth@CFontMgr@@QAEJXZ 00442139 f   FontMgr.obj
 0001:0004119e       ?GetFontNameFromFile@CFontMgr@@QAEHPB_WAAY0CA@_W1@Z 0044219e f   FontMgr.obj
 0001:00041226       ?GetFontNameFromFile_BDF@CFontMgr@@QAEHPB_WAAY0CA@_W1@Z 00442226 f   FontMgr.obj
 0001:0004125c       ?GetFontNameFromFile_OTF@CFontMgr@@QAEHPB_WAAY0CA@_W1@Z 0044225c f   FontMgr.obj
 0001:0004184d       ?GetFontNameFromFile_TTF@CFontMgr@@QAEHPB_WAAY0CA@_W1@Z 0044284d f   FontMgr.obj
 0001:00041f31       ?GetMainLogFont@CFontMgr@@QAEXAAUtagLOGFONTW@@@Z 00442f31 f   FontMgr.obj
 0001:00041f4a       ?GetZoom@CFontMgr@@QAEJ_N@Z 00442f4a f   FontMgr.obj
 0001:00041f72       ?InitFont@CFontMgr@@QAEXPB_WHH@Z 00442f72 f   FontMgr.obj
 0001:000421a0       ?IsAlmostMonospace@CFontMgr@@SA_NPB_WPAUtagTEXTMETRICW@@PAU_OUTLINETEXTMETRICW@@@Z 004431a0 f   FontMgr.obj
 0001:00042286       ?LoadOutline@CFontMgr@@SAPAU_OUTLINETEXTMETRICW@@PAUHDC__@@PAUHFONT__@@@Z 00443286 f   FontMgr.obj
 0001:00042362       ?MacroFontSetName@CFontMgr@@QAEXPB_WGG@Z 00443362 f   FontMgr.obj
 0001:000424fd       ?MacroFontSetSize@CFontMgr@@QAE_NHH@Z 004434fd f   FontMgr.obj
 0001:000428b5       ?MacroFontSetSizeInt@CFontMgr@@AAE_NAAUtagLOGFONTW@@HH@Z 004438b5 f   FontMgr.obj
 0001:00042a30       ?QueryFont@CFontMgr@@QAE_NW4CEFontStyles@@PAVCVirtualConsole@@AAVCFontPtr@@@Z 00443a30 f   FontMgr.obj
 0001:00042ac2       ?RecreateAlternativeFont@CFontMgr@@AAEXXZ 00443ac2 f   FontMgr.obj
 0001:00042df0       ?RecreateFont@CFontMgr@@AAEX_N0@Z 00443df0 f   FontMgr.obj
 0001:0004314f       ?RecreateFontByDpi@CFontMgr@@QAE_NHHPAUtagRECT@@@Z 0044414f f   FontMgr.obj
 0001:000431bf       ?RegisterFont@CFontMgr@@QAEHPB_WH@Z 004441bf f   FontMgr.obj
 0001:00043a75       ?RegisterFonts@CFontMgr@@QAEXXZ 00444a75 f   FontMgr.obj
 0001:00043b6b       ?RegisterFontsDir@CFontMgr@@QAEXPB_W@Z 00444b6b f   FontMgr.obj
 0001:00043d89       ?ResetFontWidth@CFontMgr@@AAEXXZ 00444d89 f   FontMgr.obj
 0001:00043dd7       ?SaveFontSizes@CFontMgr@@AAEX_N0@Z 00444dd7 f   FontMgr.obj
 0001:00043eb6       ?SettingsLoaded@CFontMgr@@QAEXK@Z 00444eb6 f   FontMgr.obj
 0001:00043f5b       ?SettingsPreSave@CFontMgr@@QAEXXZ 00444f5b f   FontMgr.obj
 0001:00043fca       ?UnregisterFonts@CFontMgr@@QAEXXZ 00444fca f   FontMgr.obj
 0001:0004402a       ?erase@?$MArray@URegFont@@@@QAEXH@Z 0044502a f i FontMgr.obj
 0001:00044083       ?push_back@?$MArray@UFontHeightInfo@@@@QAEHABUFontHeightInfo@@@Z 00445083 f i FontMgr.obj
 0001:000440d3       ?push_back@?$MArray@URegFont@@@@QAEHABURegFont@@@Z 004450d3 f i FontMgr.obj
 0001:00044126       ??0CFontPtr@@QAE@PAVCFont@@@Z 00445126 f   FontPtr.obj
 0001:0004413e       ??1CFontPtr@@QAE@XZ        0044513e f   FontPtr.obj
 0001:00044174       ??4CFontPtr@@QAEAAV0@PAVCFont@@@Z 00445174 f   FontPtr.obj
 0001:00044189       ??BCFontPtr@@QBEPAVCFont@@XZ 00445189 f   FontPtr.obj
 0001:00044189       ??BCEStr@@QBEPB_WXZ        00445189 f   common-kernel32:CEStr.obj
 0001:00044189       ??BMBSTR@@QBEPA_WXZ        00445189 f   common-user32:MBSTR.obj
 0001:00044189       ??CCFontPtr@@QBEPAVCFont@@XZ 00445189 f   FontPtr.obj
 0001:00044189       ?Ptr@CFontPtr@@QBEPAVCFont@@XZ 00445189 f   FontPtr.obj
 0001:0004418c       ?Attach@CFontPtr@@QAE_NPAVCFont@@@Z 0044518c f   FontPtr.obj
 0001:000441c3       ?Equal@CFontPtr@@QBE_NPBVCFont@@@Z 004451c3 f   FontPtr.obj
 0001:000441e1       ?IsSet@CFontPtr@@QBE_NXZ   004451e1 f   FontPtr.obj
 0001:000441f6       ?Release@CFontPtr@@QAEHXZ  004451f6 f   FontPtr.obj
 0001:00044208       ??0CFrameHolder@@QAE@XZ    00445208 f   FrameHolder.obj
 0001:0004424b       ??1CFrameHolder@@UAE@XZ    0044524b f   FrameHolder.obj
 0001:00044256       ??_ECFrameHolder@@UAEPAXI@Z 00445256 f i FrameHolder.obj
 0001:00044256       ??_GCFrameHolder@@UAEPAXI@Z 00445256 f i FrameHolder.obj
 0001:0004427d       ?CalculateCaptionPosition@CFrameHolder@@UAEXABUtagRECT@@PAU2@@Z 0044527d f   FrameHolder.obj
 0001:000442e3       ?CalculateTabPosition@CFrameHolder@@UAEXABUtagRECT@@0PAU2@@Z 004452e3 f   FrameHolder.obj
 0001:0004444e       ?GetCaptionDragHeight@CFrameHolder@@QAEHXZ 0044544e f   FrameHolder.obj
 0001:00044452       ?GetFrameHeight@CFrameHolder@@QAEHXZ 00445452 f   FrameHolder.obj
 0001:00044456       ?GetTabsHeight@CFrameHolder@@QAEHXZ 00445456 f   FrameHolder.obj
 0001:00044481       ?GetWinCaptionHeight@CFrameHolder@@QAEHXZ 00445481 f   FrameHolder.obj
 0001:00044481       ?HasUnicode@BDFFont@@UAEHXZ 00445481 f   CustomFonts.obj
 0001:00044485       ?InitFrameHolder@CFrameHolder@@QAEXXZ 00445485 f   FrameHolder.obj
 0001:00044491       ?NC_Redraw@CFrameHolder@@IAEXXZ 00445491 f   FrameHolder.obj
 0001:000444c9       ?NC_Wrapper@CFrameHolder@@IAEJPAUHWND__@@IIJ@Z 004454c9 f   FrameHolder.obj
 0001:0004451d       ?OnNcActivate@CFrameHolder@@IAEJPAUHWND__@@IIJ@Z 0044551d f   FrameHolder.obj
 0001:000445f4       ?OnNcCalcSize@CFrameHolder@@IAEJPAUHWND__@@IIJ@Z 004455f4 f   FrameHolder.obj
 0001:000447ce       ?OnNcHitTest@CFrameHolder@@IAEJPAUHWND__@@IIJ@Z 004457ce f   FrameHolder.obj
 0001:00044938       ?OnNcPaint@CFrameHolder@@IAEJPAUHWND__@@IIJ@Z 00445938 f   FrameHolder.obj
 0001:00044b25       ?OnPaint@CFrameHolder@@IAEJPAUHWND__@@PAUHDC__@@I@Z 00445b25 f   FrameHolder.obj
 0001:00044c62       ?ProcessNcMessage@CFrameHolder@@QAE_NPAUHWND__@@IIJAAJ@Z 00445c62 f   FrameHolder.obj
 0001:000452ab       ?RecalculateFrameSizes@CFrameHolder@@QAEXXZ 004462ab f   FrameHolder.obj
 0001:0004537a       ?RedrawFrame@CFrameHolder@@QAEXXZ 0044637a f   FrameHolder.obj
 0001:0004538a       ?SetPassSysCommand@CConEmuMenu@@QAE_N_N@Z 0044638a f   Menu.obj
 0001:0004538a       ?SetAllowPreserveClient@CFrameHolder@@QAE_N_N@Z 0044638a f   FrameHolder.obj
 0001:0004539a       ?SetDontPreserveClient@CFrameHolder@@QAE_N_N@Z 0044639a f   FrameHolder.obj
 0001:000453aa       ?SetFrameActiveState@CFrameHolder@@QAEX_N@Z 004463aa f   FrameHolder.obj
 0001:000453c9       ?isInNcPaint@CFrameHolder@@QAE_NXZ 004463c9 f   FrameHolder.obj
 0001:000453d1       ??0CGestures@@QAE@XZ       004463d1 f   GestureEngine.obj
 0001:00045463       ??1CGestures@@UAE@XZ       00446463 f   GestureEngine.obj
 0001:0004546a       ??_ECGestures@@UAEPAXI@Z   0044646a f i GestureEngine.obj
 0001:0004546a       ??_GCGestures@@UAEPAXI@Z   0044646a f i GestureEngine.obj
 0001:0004548d       ?DumpGesture@CGestures@@AAEXPB_WABUtagGESTUREINFO@@@Z 0044648d f   GestureEngine.obj
 0001:00045635       ?IsGesturesEnabled@CGestures@@QAE_NXZ 00446635 f   GestureEngine.obj
 0001:0004567d       ?ProcessGestureMessage@CGestures@@UAE_NPAUHWND__@@IIJAAJ@Z 0044667d f   GestureEngine.obj
 0001:00045ba5       ?ProcessMove@CGestures@@UAE_NPAUHWND__@@JJ@Z 00446ba5 f   GestureEngine.obj
 0001:00045c89       ?ProcessPressAndTap@CGestures@@UAEXPAUHWND__@@JJFF@Z 00446c89 f   GestureEngine.obj
 0001:00045c9e       ?ProcessRotate@CGestures@@UAE_NPAUHWND__@@JJJ_N@Z 00446c9e f   GestureEngine.obj
 0001:00045d18       ?ProcessTwoFingerTap@CGestures@@UAEXPAUHWND__@@JJK@Z 00446d18 f   GestureEngine.obj
 0001:00045d2d       ?ProcessZoom@CGestures@@UAEXPAUHWND__@@NJJ@Z 00446d2d f   GestureEngine.obj
 0001:00045da5       ?SendRClick@CGestures@@AAEXPAUHWND__@@JJ@Z 00446da5 f   GestureEngine.obj
 0001:00045e50       ??0CGuiServer@@QAE@XZ      00446e50 f   GuiServer.obj
 0001:00045ead       ??1CGuiServer@@QAE@XZ      00446ead f   GuiServer.obj
 0001:00045ee5       ?AllocRequestBuf@PipeInst@?$PipeServer@UCESERVER_REQ@@@@QAEPAUCESERVER_REQ@@K@Z 00446ee5 f i GuiServer.obj
 0001:00046047       ?DumpError@?$PipeServer@UCESERVER_REQ@@@@IAEXPAUPipeInst@1@PB_WH@Z 00447047 f i GuiServer.obj
 0001:0004611c       ?GuiServerCommand@CGuiServer@@KGHPAXPAUCESERVER_REQ@@AAPAU2@AAK3J@Z 0044711c f   GuiServer.obj
 0001:00046d7b       ?GuiServerFree@CGuiServer@@KGXPAUCESERVER_REQ@@J@Z 00447d7b f   GuiServer.obj
 0001:00046d7b       ?ServerCommandFree@CRealServer@@KGXPAUCESERVER_REQ@@J@Z 00447d7b f   RealServer.obj
 0001:00046de2       ?PipeServerRead@?$PipeServer@UCESERVER_REQ@@@@IAEHPAUPipeInst@1@@Z 00447de2 f i GuiServer.obj
 0001:00047052       ?PipeServerThread@?$PipeServer@UCESERVER_REQ@@@@IAEKPAUPipeInst@1@@Z 00448052 f i GuiServer.obj
 0001:0004727e       ?PipeServerWrite@?$PipeServer@UCESERVER_REQ@@@@IAEHPAUPipeInst@1@PBXKPAKH@Z 0044827e f i GuiServer.obj
 0001:00047361       ?SetMaxCount@?$PipeServer@UCESERVER_REQ@@@@QAEXH@Z 00448361 f i GuiServer.obj
 0001:00047388       ?Start@CGuiServer@@QAE_NXZ 00448388 f   GuiServer.obj
 0001:00047449       ?StartPipeInstance@?$PipeServer@UCESERVER_REQ@@@@IAE_NPAUPipeInst@1@@Z 00448449 f i GuiServer.obj
 0001:0004757c       ?StartPipeServer@?$PipeServer@UCESERVER_REQ@@@@QAE_N_NPB_WJPAU_SECURITY_ATTRIBUTES@@P6GHPAXPAUCESERVER_REQ@@AAPAU3@AAK6J@ZP6GX4J@ZP6GH3J@Z99@Z 0044857c f i GuiServer.obj
 0001:000476c3       ?Stop@CGuiServer@@QAEX_N@Z 004486c3 f   GuiServer.obj
 0001:00047776       ?StopPipeServer@?$PipeServer@UCESERVER_REQ@@@@QAEX_NAA_N@Z 00448776 f i GuiServer.obj
 0001:00047a5f       ?TerminatePipeThread@?$PipeServer@UCESERVER_REQ@@@@KAXAAPAXABUPipeInst@1@AA_N@Z 00448a5f f i GuiServer.obj
 0001:00047ab5       ?WaitForClient@?$PipeServer@UCESERVER_REQ@@@@IAE_NPAUPipeInst@1@AAH1@Z 00448ab5 f i GuiServer.obj
 0001:00047d20       ?WaitOverlapped@?$PipeServer@UCESERVER_REQ@@@@IAEHPAUPipeInst@1@PAK@Z 00448d20 f i GuiServer.obj
 0001:00047e71       ?WriteDummyAnswer@?$PipeServer@UCESERVER_REQ@@@@IAEHPAUPipeInst@1@@Z 00448e71 f i GuiServer.obj
 0001:00047ee1       ?_Disconnect@?$PipeServer@UCESERVER_REQ@@@@IAEXPAUPipeInst@1@_N11@Z 00448ee1 f i GuiServer.obj
 0001:00047f35       ?_PipeServerThread@?$PipeServer@UCESERVER_REQ@@@@KGKPAX@Z 00448f35 f i GuiServer.obj
 0001:00047f7c       ?HooksUnlockerProc@@YA_N_N@Z 00448f7c f   HooksUnlocker.obj
 0001:00047fb1       ?Compare@ConEmuChord@@CA_NKK@Z 00448fb1 f   HotkeyChord.obj
 0001:00048029       ?GetFlagsFromMod@CEVkMatch@@SAKK@Z 00449029 f   HotkeyChord.obj
 0001:0004805e       ?GetMatchByVk@CEVkMatch@@SA_NEAAU1@@Z 0044905e f   HotkeyChord.obj
 0001:000481b0       ?GetModifiers@ConEmuChord@@QBEIAAY02E@Z 004491b0 f   HotkeyChord.obj
 0001:0004821d       ?IsEmpty@ConEmuChord@@QBE_NXZ 0044921d f   HotkeyChord.obj
 0001:00048224       ?IsEqual@ConEmuChord@@QBE_NABU1@@Z 00449224 f   HotkeyChord.obj
 0001:0004823a       ?IsEqual@ConEmuChord@@QBE_NEK@Z 0044923a f   HotkeyChord.obj
 0001:00048270       ?Set@ConEmuChord@@QAEXEK@Z 00449270 f   HotkeyChord.obj
 0001:00048282       ??0CHotKeyDialog@@QAE@PAUHWND__@@K@Z 00449282 f   HotkeyDlg.obj
 0001:000482c8       ??1CHotKeyDialog@@QAE@XZ   004492c8 f   HotkeyDlg.obj
 0001:00048306       ?EditHotKey@CHotKeyDialog@@SA_NPAUHWND__@@AAK@Z 00449306 f   HotkeyDlg.obj
 0001:00048375       ?FillModifierBoxes@CHotKeyDialog@@SAXABUConEmuHotKey@@PAUHWND__@@@Z 00449375 f   HotkeyDlg.obj
 0001:000483c0       ?SetHotkeyField@CHotKeyDialog@@SAXPAUHWND__@@E@Z 004493c0 f   HotkeyDlg.obj
 0001:00048413       ?dlgGetHotkey@CHotKeyDialog@@SAKPAUHWND__@@II@Z 00449413 f   HotkeyDlg.obj
 0001:000484be       ?hkDlgProc@CHotKeyDialog@@SGHPAUHWND__@@IIJ@Z 004494be f   HotkeyDlg.obj
 0001:000487e0       ?Add@ConEmuHotKeyList@@IAEPAUConEmuHotKey@@HW4ConEmuHotKeyType@@P6A_NXZPB_WP6G_NABUConEmuChord@@_NPBU2@PAVCRealConsole@@@Z42@Z 004497e0 f   HotkeyList.obj
 0001:00048862       ?AllocateHotkeys@ConEmuHotKeyList@@QAEHXZ 00449862 f   HotkeyList.obj
 0001:0004a443       ?FindHotKey@ConEmuHotKeyList@@QAEPBUConEmuHotKey@@ABUConEmuChord@@PAVCRealConsole@@@Z 0044b443 f   HotkeyList.obj
 0001:0004a4e4       ?GetHotKeyInfo@ConEmuHotKeyList@@QAEPBUConEmuHotKey@@ABUConEmuChord@@_NPAVCRealConsole@@@Z 0044b4e4 f   HotkeyList.obj
 0001:0004a50a       ?GetHotKeyPtr@ConEmuHotKeyList@@QAEPBUConEmuHotKey@@H@Z 0044b50a f   HotkeyList.obj
 0001:0004a548       ?ReleaseHotkeys@ConEmuHotKeyList@@QAEXXZ 0044b548 f   HotkeyList.obj
 0001:0004a599       ?UpdateArrowModifier@ConEmuHotKeyList@@QAEXXZ 0044b599 f   HotkeyList.obj
 0001:0004a5e8       ?UpdateNumberModifier@ConEmuHotKeyList@@QAEXXZ 0044b5e8 f   HotkeyList.obj
 0001:0004a637       ?addsize@?$MArray@UHighlightRect@CVirtualConsole@@@@QAEXH@Z 0044b637 f i VirtualConsole.obj
 0001:0004a637       ?addsize@?$MArray@UFoundFile@@@@QAEXH@Z 0044b637 f i OptionsFast.obj
 0001:0004a637       ?addsize@?$MArray@UAppInfo@AppFoundList@@@@QAEXH@Z 0044b637 f i OptionsFast.obj
 0001:0004a637       ?addsize@?$MArray@PAUHWND__@@@@QAEXH@Z 0044b637 f i ConEmu.obj
 0001:0004a637       ?addsize@?$MArray@USshAgent@CConEmuMain@@@@QAEXH@Z 0044b637 f i ConEmu.obj
 0001:0004a637       ?addsize@?$MArray@URunQueueItem@CRunQueue@@@@QAEXH@Z 0044b637 f i RunQueue.obj
 0001:0004a637       ?addsize@?$MArray@PA_W@@QAEXH@Z 0044b637 f i CmdHistory.obj
 0001:0004a637       ?addsize@?$MArray@UItemInfo@CDynDialog@@@@QAEXH@Z 0044b637 f i DynDialog.obj
 0001:0004a637       ?addsize@?$MArray@H@@QAEXH@Z 0044b637 f i CmdHistory.obj
 0001:0004a637       ?addsize@?$MArray@UBtnInfo@@@@QAEXH@Z 0044b637 f i ImgButton.obj
 0001:0004a637       ?addsize@?$MArray@UTabIconCache@CIconList@@@@QAEXH@Z 0044b637 f i IconList.obj
 0001:0004a637       ?addsize@?$MArray@UDlgItem@CDpiForDialog@@@@QAEXH@Z 0044b637 f i DpiAware.obj
 0001:0004a637       ?addsize@?$MArray@UConEmuHotKey@@@@QAEXH@Z 0044b637 f i HotkeyList.obj
 0001:0004a637       ?addsize@?$MArray@UThreadHandle@CDefTermBase@@@@QAEXH@Z 0044b637 f i ConEmu.obj
 0001:0004a637       ?addsize@?$MArray@UAttachParm@@@@QAEXH@Z 0044b637 f i Attach.obj
 0001:0004a637       ?addsize@?$MArray@UGuiMacroArg@@@@QAEXH@Z 0044b637 f i Macro.obj
 0001:0004a637       ?addsize@?$MArray@Utxt@CFormatCopy@@@@QAEXH@Z 0044b637 f i RealBuffer.obj
 0001:0004a637       ?addsize@?$MArray@UProcessInfo@CDefTermBase@@@@QAEXH@Z 0044b637 f i ConEmu.obj
 0001:0004a637       ?addsize@?$MArray@PAX@@QAEXH@Z 0044b637 f i TaskBar.obj
 0001:0004a637       ?addsize@?$MArray@PAVCTabID@@@@QAEXH@Z 0044b637 f i TabBar.obj
 0001:0004a637       ?addsize@?$MArray@PAVCBackgroundInfo@@@@QAEXH@Z 0044b637 f i Background.obj
 0001:0004a637       ?addsize@?$MArray@PAUSwitch@@@@QAEXH@Z 0044b637 f i SetPgIntegr.obj
 0001:0004a637       ?addsize@?$MArray@U_ThInfo@CDragDrop@@@@QAEXH@Z 0044b637 f i DragDrop.obj
 0001:0004a637       ?addsize@?$MArray@PAVCVConGroup@@@@QAEXH@Z 0044b637 f i VConGroup.obj
 0001:0004a637       ?addsize@?$MArray@ULngRcItem@CLngRc@@@@QAEXH@Z 0044b637 f i LngRc.obj
 0001:0004a637       ?addsize@?$MArray@UVarDef@CVarDefs@@@@QAEXH@Z 0044b637 f i OptionsFast.obj
 0001:0004a637       ?addsize@?$MArray@PAVCVConGuard@@@@QAEXH@Z 0044b637 f i VConGroup.obj
 0001:0004a637       ?addsize@?$MArray@UFontHeightInfo@@@@QAEXH@Z 0044b637 f i FontMgr.obj
 0001:0004a637       ?addsize@?$MArray@URegFont@@@@QAEXH@Z 0044b637 f i FontMgr.obj
 0001:0004a637       ?addsize@?$MArray@UDragData@CDataObject@@@@QAEXH@Z 0044b637 f i BaseDragDrops.obj
 0001:0004a637       ?addsize@?$MArray@PAVCustomFont@@@@QAEXH@Z 0044b637 f i CustomFonts.obj
 0001:0004a637       ?addsize@?$MArray@UCmdTaskPopupItem@CConEmuMenu@@@@QAEXH@Z 0044b637 f i Menu.obj
 0001:0004a637       ?addsize@?$MArray@PAVCFont@@@@QAEXH@Z 0044b637 f i FontMgr.obj
 0001:0004a6d8       ?push_back@?$MArray@UConEmuHotKey@@@@QAEHABUConEmuHotKey@@@Z 0044b6d8 f i HotkeyList.obj
 0001:0004a72b       ?CanChangeVK@ConEmuHotKey@@QBE_NXZ 0044b72b f   Hotkeys.obj
 0001:0004a74c       ?CreateNotUniqueWarning@ConEmuHotKey@@SAPB_WPB_W00AAUCEStr@@@Z 0044b74c f   Hotkeys.obj
 0001:0004a809       ?Equal@ConEmuHotKey@@QAE_NEEEE@Z 0044b809 f   Hotkeys.obj
 0001:0004a838       ?GetDescription@ConEmuHotKey@@QBEPB_WPA_WH_N@Z 0044b838 f   Hotkeys.obj
 0001:0004a9bb       ?GetHotKeyMod@ConEmuHotKey@@SAKK@Z 0044b9bb f   Hotkeys.obj
 0001:0004aa25       ?GetHotkey@ConEmuHotKey@@SAKK@Z 0044ba25 f   Hotkeys.obj
 0001:0004aa2e       ?GetHotkeyName@ConEmuHotKey@@QBEPB_WAAY0IA@_W_N@Z 0044ba2e f   Hotkeys.obj
 0001:0004ab83       ?GetHotkeyName@ConEmuHotKey@@SAPB_WKAAY0IA@_W_N@Z 0044bb83 f   Hotkeys.obj
 0001:0004abe9       ?GetModifier@ConEmuHotKey@@SAKKH@Z 0044bbe9 f   Hotkeys.obj
 0001:0004ac58       ?GetTaskIndex@ConEmuHotKey@@QBEHXZ 0044bc58 f   Hotkeys.obj
 0001:0004ac6f       ?GetVkByKeyName@ConEmuHotKey@@SAIPB_WPAHPAK@Z 0044bc6f f   Hotkeys.obj
 0001:0004ad68       ?GetVkKeyName@ConEmuHotKey@@SAXEAAY0CA@_W_N@Z 0044bd68 f   Hotkeys.obj
 0001:0004b035       ?GetVkMod@ConEmuHotKey@@QBEKXZ 0044c035 f   Hotkeys.obj
 0001:0004b106       ?HasModifier@ConEmuHotKey@@SA_NKE@Z 0044c106 f   Hotkeys.obj
 0001:0004b14d       ?InSelection@ConEmuHotKey@@SA_NXZ 0044c14d f   Hotkeys.obj
 0001:0004b19f       ?IsTaskHotKey@ConEmuHotKey@@QBE_NXZ 0044c19f f   Hotkeys.obj
 0001:0004b1ae       ?MakeHotKey@ConEmuHotKey@@SAKEEEE@Z 0044c1ae f   Hotkeys.obj
 0001:0004b205       ?SetHotKey@ConEmuHotKey@@QAEXEEEE@Z 0044c205 f   Hotkeys.obj
 0001:0004b22c       ?SetModifier@ConEmuHotKey@@SAKKE_N@Z 0044c22c f   Hotkeys.obj
 0001:0004b37e       ?SetTaskIndex@ConEmuHotKey@@QAEXH@Z 0044c37e f   Hotkeys.obj
 0001:0004b395       ?SetVkMod@ConEmuHotKey@@QAEXK@Z 0044c395 f   Hotkeys.obj
 0001:0004b3fe       ?TestHostkeyModifiers@ConEmuHotKey@@SAXAAK@Z 0044c3fe f   Hotkeys.obj
 0001:0004b55d       ?UseCTSShiftArrow@ConEmuHotKey@@SA_NXZ 0044c55d f   Hotkeys.obj
 0001:0004b5e0       ?UseCtrlBS@ConEmuHotKey@@SA_NXZ 0044c5e0 f   Hotkeys.obj
 0001:0004b5fa       ?UseCtrlTab@ConEmuHotKey@@SA_NXZ 0044c5fa f   Hotkeys.obj
 0001:0004b606       ?UseDndLKey@ConEmuHotKey@@SA_NXZ 0044c606 f   Hotkeys.obj
 0001:0004b614       ?UseDndRKey@ConEmuHotKey@@SA_NXZ 0044c614 f   Hotkeys.obj
 0001:0004b624       ?UsePromptFind@ConEmuHotKey@@SA_NXZ 0044c624 f   Hotkeys.obj
 0001:0004b6d1       ?UseWinArrows@ConEmuHotKey@@SA_NXZ 0044c6d1 f   Hotkeys.obj
 0001:0004b6dd       ?UseWinNumber@ConEmuHotKey@@SA_NXZ 0044c6dd f   Hotkeys.obj
 0001:0004b700       ?UseWndDragKey@ConEmuHotKey@@SA_NXZ 0044c700 f   Hotkeys.obj
 0001:0004b70c       ??0CIconList@@QAE@XZ       0044c70c f   IconList.obj
 0001:0004b768       ??1CIconList@@QAE@XZ       0044c768 f   IconList.obj
 0001:0004b803       ?CreateTabIcon@CIconList@@QAEHPB_W_N0@Z 0044c803 f   IconList.obj
 0001:0004b931       ?CreateTabIconInt@CIconList@@IAEHPB_W_N0@Z 0044c931 f   IconList.obj
 0001:0004bdf4       ?GetIconInfoStr@CIconList@@SAPB_WPAUHICON__@@AAY0FA@_W@Z 0044cdf4 f   IconList.obj
 0001:0004be76       ?GetTabIcon@CIconList@@QAEH_N@Z 0044ce76 f   IconList.obj
 0001:0004be9e       ?GetTabIconByIndex@CIconList@@QAEPAUHICON__@@H@Z 0044ce9e f   IconList.obj
 0001:0004bec1       ?Initialize@CIconList@@QAE_NXZ 0044cec1 f   IconList.obj
 0001:0004c0d5       ?IsInitialized@CIconList@@QAE_NXZ 0044d0d5 f   IconList.obj
 0001:0004c0dd       ?ParseIconFileIndex@CIconList@@SAPB_WAAUCEStr@@AAH@Z 0044d0dd f   IconList.obj
 0001:0004c14e       ?erase@?$MArray@UTabIconCache@CIconList@@@@QAEXH@Z 0044d14e f i IconList.obj
 0001:0004c14e       ?erase@?$MArray@UThreadHandle@CDefTermBase@@@@QAEXH@Z 0044d14e f i DefaultTerm.obj
 0001:0004c19b       ??$SafeDelete@VCToolImg@@@@YAXAAPAVCToolImg@@@Z 0044d19b f i ImgButton.obj
 0001:0004c1d8       ??0CImgButtons@@QAE@PAUHWND__@@HH@Z 0044d1d8 f   ImgButton.obj
 0001:0004c214       ??1CImgButtons@@QAE@XZ     0044d214 f   ImgButton.obj
 0001:0004c2b0       ?Add@CImgButtons@@IAEXPB_WP6APAVCToolImg@@XZI0P6AXXZ@Z 0044d2b0 f   ImgButton.obj
 0001:0004c33a       ?AddDonateButtons@CImgButtons@@QAEXXZ 0044d33a f   ImgButton.obj
 0001:0004c363       ?GetBtnInfo@CImgButtons@@IAE_NIPAPAUBtnInfo@@@Z 0044d363 f   ImgButton.obj
 0001:0004c3a8       ?ImplementButtons@CImgButtons@@IAEXXZ 0044d3a8 f   ImgButton.obj
 0001:0004c4da       ?Process@CImgButtons@@QAE_NPAUHWND__@@IIJAAH@Z 0044d4da f   ImgButton.obj
 0001:0004c5c7       ?RegisterTip@CImgButtons@@IAEXXZ 0044d5c7 f   ImgButton.obj
 0001:0004c6ad       ?push_back@?$MArray@UBtnInfo@@@@QAEHABUBtnInfo@@@Z 0044d6ad f i ImgButton.obj
 0001:0004c6fd       ??0CConEmuInside@@QAE@XZ   0044d6fd f   Inside.obj
 0001:0004c77a       ??1CConEmuInside@@UAE@XZ   0044d77a f   Inside.obj
 0001:0004c7fc       ??_GCConEmuInside@@UAEPAXI@Z 0044d7fc f i Inside.obj
 0001:0004c7fc       ??_ECConEmuInside@@UAEPAXI@Z 0044d7fc f i Inside.obj
 0001:0004c879       ?CheckInsideFocus@CConEmuInside@@QAEPAUHWND__@@XZ 0044d879 f   Inside.obj
 0001:0004c9b7       ?EnumInsideFindParent@CConEmuInside@@CGHPAUHWND__@@J@Z 0044d9b7 f   Inside.obj
 0001:0004ca7b       ?GetInsideRect@CConEmuInside@@QAE_NPAUtagRECT@@@Z 0044da7b f   Inside.obj
 0001:0004cb9d       ?GetParentRoot@CConEmuInside@@QAEPAUHWND__@@XZ 0044db9d f   Inside.obj
 0001:0004cbe3       ?InitInside@CConEmuInside@@SA_N_N0PB_WKPAUHWND__@@@Z 0044dbe3 f   Inside.obj
 0001:0004cca0       ?InsideFindConEmu@CConEmuInside@@AAEPAUHWND__@@PAU2@@Z 0044dca0 f   Inside.obj
 0001:0004cd25       ?InsideFindParent@CConEmuInside@@QAEPAUHWND__@@XZ 0044dd25 f   Inside.obj
 0001:0004d0ae       ?InsideFindShellView@CConEmuInside@@AAE_NPAUHWND__@@@Z 0044e0ae f   Inside.obj
 0001:0004d38e       ?InsideParentMonitor@CConEmuInside@@QAEXXZ 0044e38e f   Inside.obj
 0001:0004d3a9       ?InsideUpdateDir@CConEmuInside@@AAEXXZ 0044e3a9 f   Inside.obj
 0001:0004d542       ?InsideUpdatePlacement@CConEmuInside@@AAEXXZ 0044e542 f   Inside.obj
 0001:0004d6ed       ?SendVkKeySequence@CConEmuInside@@AAE_NPAUHWND__@@PAG@Z 0044e6ed f   Inside.obj
 0001:0004d83d       ?SetInsideParentWND@CConEmuInside@@QAEXPAUHWND__@@@Z 0044e83d f   Inside.obj
 0001:0004d911       ?TurnExplorerTipPane@CConEmuInside@@AAE_NAAY0IA@_W@Z 0044e911 f   Inside.obj
 0001:0004dabc       ?inMinimizing@CConEmuInside@@QAE_NPAUtagWINDOWPOS@@@Z 0044eabc f   Inside.obj
 0001:0004dac9       ?isInsideWndSet@CConEmuInside@@QAE_NXZ 0044eac9 f   Inside.obj
 0001:0004dae2       ?isParentIconic@CConEmuInside@@QAE_NXZ 0044eae2 f   Inside.obj
 0001:0004db0a       ?isParentProcess@CConEmuInside@@QAE_NPAUHWND__@@@Z 0044eb0a f   Inside.obj
 0001:0004db43       ?Initialize@CLngPredefined@@SAXXZ 0044eb43 f   LngData.obj
 0001:0004db6f       ?compare@LngPredefined@@SAHPBX0@Z 0044eb6f f i LngData.obj
 0001:0004db7e       ?getHint@CLngPredefined@@SAPB_WI@Z 0044eb7e f   LngData.obj
 0001:0004dbb9       ?getRsrc@CLngPredefined@@SAPB_WI@Z 0044ebb9 f   LngData.obj
 0001:0004dbf1       ??$SafeDelete@VMJsonValue@@@@YAXAAPAVMJsonValue@@@Z 0044ebf1 f i LngRc.obj
 0001:0004dc2e       ??0CLngRc@@QAE@XZ          0044ec2e f   LngRc.obj
 0001:0004dcd9       ??1CLngRc@@QAE@XZ          0044ecd9 f   LngRc.obj
 0001:0004dd62       ?Clean@CLngRc@@IAEXAAV?$MArray@ULngRcItem@CLngRc@@@@@Z 0044ed62 f   LngRc.obj
 0001:0004dda9       ?GetResource@CLngRc@@IAE_NAAV?$MArray@ULngRcItem@CLngRc@@@@HAAUCEStr@@PB_W@Z 0044eda9 f   LngRc.obj
 0001:0004ddf6       ?Initialize@CLngRc@@SAXXZ  0044edf6 f   LngRc.obj
 0001:0004de3d       ?LoadResources@CLngRc@@IAE_NPB_W0@Z 0044ee3d f   LngRc.obj
 0001:0004e1bf       ?LoadSection@CLngRc@@IAE_NPAVMJsonValue@@AAV?$MArray@ULngRcItem@CLngRc@@@@H@Z 0044f1bf f   LngRc.obj
 0001:0004e448       ?Reload@CLngRc@@QAEX_N@Z   0044f448 f   LngRc.obj
 0001:0004e704       ?SetResource@CLngRc@@IAE_NAAV?$MArray@ULngRcItem@CLngRc@@@@HPAVMJsonValue@@@Z 0044f704 f   LngRc.obj
 0001:0004e7ce       ?SetResource@CLngRc@@IAE_NAAV?$MArray@ULngRcItem@CLngRc@@@@HPB_W_N@Z 0044f7ce f   LngRc.obj
 0001:0004e8c2       ?getControl@CLngRc@@SAPB_WJAAUCEStr@@PB_W@Z 0044f8c2 f   LngRc.obj
 0001:0004e8fc       ?getHint@CLngRc@@SA_NIPA_WI@Z 0044f8fc f   LngRc.obj
 0001:0004e9a2       ?getRsrc@CLngRc@@SAPB_WIPAUCEStr@@@Z 0044f9a2 f   LngRc.obj
 0001:0004ea06       ?isLocalized@CLngRc@@SA_NXZ 0044fa06 f   LngRc.obj
 0001:0004ea30       ?loadString@CLngRc@@KA_NIPA_WI@Z 0044fa30 f   LngRc.obj
 0001:0004ea55       ?set_at@?$MArray@ULngRcItem@CLngRc@@@@QAEXHAAULngRcItem@CLngRc@@@Z 0044fa55 f i LngRc.obj
 0001:0004eaa6       ??0MStream@@QAE@XZ         0044faa6 f i LoadImg.obj
 0001:0004eac6       ??1MStream@@UAE@XZ         0044fac6 f i LoadImg.obj
 0001:0004eafd       ??_GMStream@@UAEPAXI@Z     0044fafd f i LoadImg.obj
 0001:0004eafd       ??_EMStream@@UAEPAXI@Z     0044fafd f i LoadImg.obj
 0001:0004eb1f       ?AddRef@MStream@@UAGKXZ    0044fb1f f i LoadImg.obj
 0001:0004eb38       ?Clone@MStream@@UAGJPAPAUIStream@@@Z 0044fb38 f i LoadImg.obj
 0001:0004eb40       ?Commit@MStream@@UAGJK@Z   0044fb40 f i LoadImg.obj
 0001:0004eb52       ?LockRegion@MStream@@UAGJT_ULARGE_INTEGER@@0K@Z 0044fb52 f i LoadImg.obj
 0001:0004eb52       ?CopyTo@MStream@@UAGJPAUIStream@@T_ULARGE_INTEGER@@PAT3@2@Z 0044fb52 f i LoadImg.obj
 0001:0004eb52       ?UnlockRegion@MStream@@UAGJT_ULARGE_INTEGER@@0K@Z 0044fb52 f i LoadImg.obj
 0001:0004eb5a       ?CreateSolidImage@@YAPAUtagBITMAPFILEHEADER@@KII@Z 0044fb5a f   LoadImg.obj
 0001:0004ec71       ?GetCodecClsid@@YAHPB_WPAU_GUID@@@Z 0044fc71 f   LoadImg.obj
 0001:0004eedd       ?LoadImageEx@@YAPAUtagBITMAPFILEHEADER@@PB_WAAU_BY_HANDLE_FILE_INFORMATION@@@Z 0044fedd f   LoadImg.obj
 0001:0004f038       ?LoadImageFinalize@@YAXXZ  00450038 f   LoadImg.obj
 0001:0004f078       ?LoadImageGdip@@YAPAUtagBITMAPFILEHEADER@@PB_W@Z 00450078 f   LoadImg.obj
 0001:0004f2da       ?QueryInterface@MStream@@UAGJABU_GUID@@PAPAX@Z 004502da f i LoadImg.obj
 0001:0004f342       ?Read@MStream@@UAGJPAXKPAK@Z 00450342 f i LoadImg.obj
 0001:0004f3a5       ?Release@MStream@@UAGKXZ   004503a5 f i LoadImg.obj
 0001:0004f3cc       ?Revert@MStream@@UAGJXZ    004503cc f i LoadImg.obj
 0001:0004f3d4       ?SaveImageEx@@YA_NPB_WPAEK@Z 004503d4 f   LoadImg.obj
 0001:0004f4f0       ?SaveImageEx@@YA_NPB_WPAUHBITMAP__@@@Z 004504f0 f   LoadImg.obj
 0001:0004f5d3       ?Seek@MStream@@UAGJT_LARGE_INTEGER@@KPAT_ULARGE_INTEGER@@@Z 004505d3 f i LoadImg.obj
 0001:0004f64f       ?SetData@MStream@@QAEXPBXK@Z 0045064f f i LoadImg.obj
 0001:0004f68e       ?SetSize@MStream@@UAGJT_ULARGE_INTEGER@@@Z 0045068e f i LoadImg.obj
 0001:0004f708       ?Stat@MStream@@UAGJPAUtagSTATSTG@@K@Z 00450708 f i LoadImg.obj
 0001:0004f782       ?Write@MStream@@UAGJPBXKPAK@Z 00450782 f i LoadImg.obj
 0001:0004f815       ?About@ConEmuMacro@@YAPA_WPAUGuiMacro@@PAVCRealConsole@@_N@Z 00450815 f   Macro.obj
 0001:0004f856       ?AffinityPriority@ConEmuMacro@@YAPA_WPAUGuiMacro@@PAVCRealConsole@@_N@Z 00450856 f   Macro.obj
 0001:0004f8b8       ?AltNumber@ConEmuMacro@@YAPA_WPAUGuiMacro@@PAVCRealConsole@@_N@Z 004508b8 f   Macro.obj
 0001:0004f904       ?Attach@ConEmuMacro@@YAPA_WPAUGuiMacro@@PAVCRealConsole@@_N@Z 00450904 f   Macro.obj
 0001:0004f999       ?Break@ConEmuMacro@@YAPA_WPAUGuiMacro@@PAVCRealConsole@@_N@Z 00450999 f   Macro.obj
 0001:0004fa05       ?Close@ConEmuMacro@@YAPA_WPAUGuiMacro@@PAVCRealConsole@@_N@Z 00450a05 f   Macro.obj
 0001:0004fc2d       ?Context@ConEmuMacro@@YAPA_WPAUGuiMacro@@PAVCRealConsole@@_N@Z 00450c2d f   Macro.obj
 0001:0004fc88       ?Copy@ConEmuMacro@@YAPA_WPAUGuiMacro@@PAVCRealConsole@@_N@Z 00450c88 f   Macro.obj
 0001:0004fd90       ?Debug@ConEmuMacro@@YAPA_WPAUGuiMacro@@PAVCRealConsole@@_N@Z 00450d90 f   Macro.obj
 0001:0004fe11       ?Detach@ConEmuMacro@@YAPA_WPAUGuiMacro@@PAVCRealConsole@@_N@Z 00450e11 f   Macro.obj
 0001:0004fe6d       ?FindEditor@ConEmuMacro@@YAPA_WPAUGuiMacro@@PAVCRealConsole@@_N@Z 00450e6d f   Macro.obj
 0001:0004feb9       ?FindFarWindow@ConEmuMacro@@YAPA_WPAUGuiMacro@@PAVCRealConsole@@_N@Z 00450eb9 f   Macro.obj
 0001:0004ff1c       ?FindViewer@ConEmuMacro@@YAPA_WPAUGuiMacro@@PAVCRealConsole@@_N@Z 00450f1c f   Macro.obj
 0001:0004ff68       ?Flash@ConEmuMacro@@YAPA_WPAUGuiMacro@@PAVCRealConsole@@_N@Z 00450f68 f   Macro.obj
 0001:0005003f       ?FontSetName@ConEmuMacro@@YAPA_WPAUGuiMacro@@PAVCRealConsole@@_N@Z 0045103f f   Macro.obj
 0001:000500c2       ?FontSetSize@ConEmuMacro@@YAPA_WPAUGuiMacro@@PAVCRealConsole@@_N@Z 004510c2 f   Macro.obj
 0001:0005011e       ?GetInfo@ConEmuMacro@@YAPA_WPAUGuiMacro@@PAVCRealConsole@@_N@Z 0045111e f   Macro.obj
 0001:00050406       ?GetOption@ConEmuMacro@@YAPA_WPAUGuiMacro@@PAVCRealConsole@@_N@Z 00451406 f   Macro.obj
 0001:000504f8       ?GroupInput@ConEmuMacro@@YAPA_WPAUGuiMacro@@PAVCRealConsole@@_N@Z 004514f8 f   Macro.obj
 0001:0005059c       ?HighlightMouse@ConEmuMacro@@YAPA_WPAUGuiMacro@@PAVCRealConsole@@_N@Z 0045159c f   Macro.obj
 0001:00050609       ?IsConEmu@ConEmuMacro@@YAPA_WPAUGuiMacro@@PAVCRealConsole@@_N@Z 00451609 f   Macro.obj
 0001:00050618       ?IsConsoleActive@ConEmuMacro@@YAPA_WPAUGuiMacro@@PAVCRealConsole@@_N@Z 00451618 f   Macro.obj
 0001:00050646       ?IsRealVisible@ConEmuMacro@@YAPA_WPAUGuiMacro@@PAVCRealConsole@@_N@Z 00451646 f   Macro.obj
 0001:00050679       ?Keys@ConEmuMacro@@YAPA_WPAUGuiMacro@@PAVCRealConsole@@_N@Z 00451679 f   Macro.obj
 0001:00050954       ?Menu@ConEmuMacro@@YAPA_WPAUGuiMacro@@PAVCRealConsole@@_N@Z 00451954 f   Macro.obj
 0001:00050a59       ?MsgBox@ConEmuMacro@@YAPA_WPAUGuiMacro@@PAVCRealConsole@@_N@Z 00451a59 f   Macro.obj
 0001:00050b36       ?Palette@ConEmuMacro@@YAPA_WPAUGuiMacro@@PAVCRealConsole@@_N@Z 00451b36 f   Macro.obj
 0001:00050d2d       ?Paste@ConEmuMacro@@YAPA_WPAUGuiMacro@@PAVCRealConsole@@_N@Z 00451d2d f   Macro.obj
 0001:00050ed8       ?PasteExplorerPath@ConEmuMacro@@YAPA_WPAUGuiMacro@@PAVCRealConsole@@_N@Z 00451ed8 f   Macro.obj
 0001:00050f5c       ?PasteFile@ConEmuMacro@@YAPA_WPAUGuiMacro@@PAVCRealConsole@@_N@Z 00451f5c f   Macro.obj
 0001:000510d4       ?Pause@ConEmuMacro@@YAPA_WPAUGuiMacro@@PAVCRealConsole@@_N@Z 004520d4 f   Macro.obj
 0001:0005113a       ?Print@ConEmuMacro@@YAPA_WPAUGuiMacro@@PAVCRealConsole@@_N@Z 0045213a f   Macro.obj
 0001:0005119c       ?Progress@ConEmuMacro@@YAPA_WPAUGuiMacro@@PAVCRealConsole@@_N@Z 0045219c f   Macro.obj
 0001:00051231       ?Recreate@ConEmuMacro@@YAPA_WPAUGuiMacro@@PAVCRealConsole@@_N@Z 00452231 f   Macro.obj
 0001:000512da       ?Rename@ConEmuMacro@@YAPA_WPAUGuiMacro@@PAVCRealConsole@@_N@Z 004522da f   Macro.obj
 0001:0005135f       ?Scroll@ConEmuMacro@@YAPA_WPAUGuiMacro@@PAVCRealConsole@@_N@Z 0045235f f   Macro.obj
 0001:00051476       ?Select@ConEmuMacro@@YAPA_WPAUGuiMacro@@PAVCRealConsole@@_N@Z 00452476 f   Macro.obj
 0001:000515cf       ?SetDpi@ConEmuMacro@@YAPA_WPAUGuiMacro@@PAVCRealConsole@@_N@Z 004525cf f   Macro.obj
 0001:0005164f       ?SetOption@ConEmuMacro@@YAPA_WPAUGuiMacro@@PAVCRealConsole@@_N@Z 0045264f f   Macro.obj
 0001:00051a7e       ?Settings@ConEmuMacro@@YAPA_WPAUGuiMacro@@PAVCRealConsole@@_N@Z 00452a7e f   Macro.obj
 0001:00051abf       ?Shell@ConEmuMacro@@YAPA_WPAUGuiMacro@@PAVCRealConsole@@_N@Z 00452abf f   Macro.obj
 0001:000521e4       ?Sleep@ConEmuMacro@@YAPA_WPAUGuiMacro@@PAVCRealConsole@@_N@Z 004531e4 f   Macro.obj
 0001:00052310       ?Split@ConEmuMacro@@YAPA_WPAUGuiMacro@@PAVCRealConsole@@_N@Z 00453310 f   Macro.obj
 0001:00052495       ?Status@ConEmuMacro@@YAPA_WPAUGuiMacro@@PAVCRealConsole@@_N@Z 00453495 f   Macro.obj
 0001:00052522       ?Tab@ConEmuMacro@@YAPA_WPAUGuiMacro@@PAVCRealConsole@@_N@Z 00453522 f   Macro.obj
 0001:00052766       ?Task@ConEmuMacro@@YAPA_WPAUGuiMacro@@PAVCRealConsole@@_N@Z 00453766 f   Macro.obj
 0001:00052919       ?TaskAdd@ConEmuMacro@@YAPA_WPAUGuiMacro@@PAVCRealConsole@@_N@Z 00453919 f   Macro.obj
 0001:00052a41       ?TermMode@ConEmuMacro@@YAPA_WPAUGuiMacro@@PAVCRealConsole@@_N@Z 00453a41 f   Macro.obj
 0001:00052aba       ?Transparency@ConEmuMacro@@YAPA_WPAUGuiMacro@@PAVCRealConsole@@_N@Z 00453aba f   Macro.obj
 0001:00052b08       ?Unfasten@ConEmuMacro@@YAPA_WPAUGuiMacro@@PAVCRealConsole@@_N@Z 00453b08 f   Macro.obj
 0001:00052b39       ?Wiki@ConEmuMacro@@YAPA_WPAUGuiMacro@@PAVCRealConsole@@_N@Z 00453b39 f   Macro.obj
 0001:00052b6a       ?WindowFullscreen@ConEmuMacro@@YAPA_WPAUGuiMacro@@PAVCRealConsole@@_N@Z 00453b6a f   Macro.obj
 0001:00052b8f       ?WindowMaximize@ConEmuMacro@@YAPA_WPAUGuiMacro@@PAVCRealConsole@@_N@Z 00453b8f f   Macro.obj
 0001:00052bf3       ?WindowMinimize@ConEmuMacro@@YAPA_WPAUGuiMacro@@PAVCRealConsole@@_N@Z 00453bf3 f   Macro.obj
 0001:00052c48       ?WindowMode@ConEmuMacro@@YAPA_WPAUGuiMacro@@PAVCRealConsole@@_N@Z 00453c48 f   Macro.obj
 0001:00052f20       ?WindowPosSize@ConEmuMacro@@YAPA_WPAUGuiMacro@@PAVCRealConsole@@_N@Z 00453f20 f   Macro.obj
 0001:00052fa6       ?Write@ConEmuMacro@@YAPA_WPAUGuiMacro@@PAVCRealConsole@@_N@Z 00453fa6 f   Macro.obj
 0001:00053009       ?Zoom@ConEmuMacro@@YAPA_WPAUGuiMacro@@PAVCRealConsole@@_N@Z 00454009 f   Macro.obj
 0001:0005304e       ?AsString@GuiMacro@@QAEPA_WXZ 0045404e f   Macro.obj
 0001:0005348e       ?ChangeContext@ConEmuMacro@@YAPAVCRealConsole@@PAV2@IIAAVCVConGuard@@AAPA_W@Z 0045448e f   Macro.obj
 0001:0005363a       ?ConcatMacro@ConEmuMacro@@YAPB_WAAPA_WPB_W@Z 0045463a f   Macro.obj
 0001:000536a1       ?ConvertMacro@ConEmuMacro@@YAPA_WPB_WE_N@Z 004546a1 f   Macro.obj
 0001:0005381b       ?ExecuteMacro@ConEmuMacro@@YAPA_WPA_WPAVCRealConsole@@_NPAUCESERVER_REQ_GUIMACRO@@@Z 0045481b f   Macro.obj
 0001:00053b60       ?ExecuteMacroSync@ConEmuMacro@@YAJIJ@Z 00454b60 f   Macro.obj
 0001:00053b8f       ?FindFarWindowHelper@ConEmuMacro@@YAPA_WIPA_WPAVCRealConsole@@_N@Z 00454b8f f   Macro.obj
 0001:00053c5f       ?GetIntArg@GuiMacro@@QAE_NIAAH@Z 00454c5f f   Macro.obj
 0001:00053c94       ?GetNextInt@ConEmuMacro@@YAPA_WAAPA_WAAUGuiMacroArg@@@Z 00454c94 f   Macro.obj
 0001:00053d3a       ?GetNextMacro@ConEmuMacro@@YAPAUGuiMacro@@AAPA_W_NPAPA_W@Z 00454d3a f   Macro.obj
 0001:00054346       ?GetNextString@ConEmuMacro@@YAPA_WAAPA_W0_NAA_N@Z 00455346 f   Macro.obj
 0001:000545ce       ?GetRestStrArgs@GuiMacro@@QAE_NIAAPA_W@Z 004555ce f   Macro.obj
 0001:0005468b       ?GetStrArg@GuiMacro@@QAE_NIAAPA_W@Z 0045568b f   Macro.obj
 0001:000546ca       ?Int2Str@ConEmuMacro@@YAPA_WI_N@Z 004556ca f   Macro.obj
 0001:00054717       ?IsIntArg@GuiMacro@@QAE_NI@Z 00455717 f   Macro.obj
 0001:0005473d       ?IsStrArg@GuiMacro@@QAE_NI@Z 0045573d f   Macro.obj
 0001:00054763       ?SkipWhiteSpaces@ConEmuMacro@@YAXAAPA_W@Z 00455763 f   Macro.obj
 0001:00054790       ?TransparencyHelper@ConEmuMacro@@YAPA_WHH@Z 00455790 f   Macro.obj
 0001:000548b5       ?push_back@?$MArray@UGuiMacroArg@@@@QAEHABUGuiMacroArg@@@Z 004558b5 f i Macro.obj
 0001:00054907       _wmemcmp                   00455907 f i Macro.obj
 0001:0005493d       ??0CMatch@@QAE@PAVCRealConsole@@@Z 0045593d f   Match.obj
 0001:000549bd       ??1CMatch@@QAE@XZ          004559bd f   Match.obj
 0001:000549df       ?CheckValidUrl@CMatch@@KA_NAAH0AA_NPB_W222H@Z 004559df f   Match.obj
 0001:00054ac4       ?FindRangeStart@CMatch@@KA_NAAH0AA_NPB_W22222H@Z 00455ac4 f   Match.obj
 0001:00054cac       ?GetNextLine@CMatch@@IAE_NAAVCRConDataGuard@@H@Z 00455cac f   Match.obj
 0001:00054d5c       ?IsFileLineTerminator@CMatch@@KA_NPB_W0@Z 00455d5c f   Match.obj
 0001:00054e04       ?IsValidFile@CMatch@@IAE_NPB_WH00AAH@Z 00455e04 f   Match.obj
 0001:00054f86       ?Match@CMatch@@QAEHW4ExpandTextRangeType@@PB_WHHAAVCRConDataGuard@@H@Z 00455f86 f   Match.obj
 0001:0005508e       ?MatchAny@CMatch@@IAE_NAAVCRConDataGuard@@H@Z 0045608e f   Match.obj
 0001:00055cfb       ?MatchFileNoExt@CMatch@@IAE_NAAVCRConDataGuard@@H@Z 00456cfb f   Match.obj
 0001:00055e7f       ?MatchWord@CMatch@@IAE_NPB_WHHAAH1AAVCRConDataGuard@@H@Z 00456e7f f   Match.obj
 0001:0005602a       ?StoreMatchText@CMatch@@IAEXPB_W0@Z 0045702a f   Match.obj
 0001:00056125       ??0CConEmuMenu@@QAE@XZ     00457125 f   Menu.obj
 0001:00056229       ??1CConEmuMenu@@QAE@XZ     00457229 f   Menu.obj
 0001:000562c0       ?CalcTabMenuPos@CConEmuMenu@@QAE?AUtagPOINT@@PAVCVirtualConsole@@@Z 004572c0 f   Menu.obj
 0001:00056373       ?CreateDebugMenuPopup@CConEmuMenu@@QAEPAUHMENU__@@XZ 00457373 f   Menu.obj
 0001:000564c3       ?CreateEditMenuPopup@CConEmuMenu@@QAEPAUHMENU__@@PAVCVirtualConsole@@PAU2@@Z 004574c3 f   Menu.obj
 0001:0005679e       ?CreateHelpMenuPopup@CConEmuMenu@@QAEPAUHMENU__@@XZ 0045779e f   Menu.obj
 0001:000568db       ?CreateOrUpdateMenu@CConEmuMenu@@QAE_NAAPAUHMENU__@@PBUMenuItem@@I@Z 004578db f   Menu.obj
 0001:00056a54       ?CreateVConListPopupMenu@CConEmuMenu@@QAEPAUHMENU__@@PAU2@H@Z 00457a54 f   Menu.obj
 0001:00056deb       ?CreateVConPopupMenu@CConEmuMenu@@QAEPAUHMENU__@@PAVCVirtualConsole@@PAU2@_N2@Z 00457deb f   Menu.obj
 0001:000572f5       ?CreateViewMenuPopup@CConEmuMenu@@QAEPAUHMENU__@@PAVCVirtualConsole@@PAU2@@Z 004582f5 f   Menu.obj
 0001:000574cc       ?ExecPopupMenuCmd@CConEmuMenu@@QAEXW4TrackMenuPlace@@PAVCVirtualConsole@@H@Z 004584cc f   Menu.obj
 0001:00057862       ?FillTaskPopup@CConEmuMenu@@AAEHPAUHMENU__@@PAUCmdTaskPopupItem@1@@Z 00458862 f   Menu.obj
 0001:00057b15       ?GetInScMinimize@CConEmuMenu@@QAE_NXZ 00458b15 f   Menu.obj
 0001:00057b19       ?GetRestoreFromMinimized@CConEmuMenu@@QAE_NXZ 00458b19 f   Menu.obj
 0001:00057b1d       ?GetSysMenu@CConEmuMenu@@QAEPAUHMENU__@@H@Z 00458b1d f   Menu.obj
 0001:00057ba2       ?GetTrackMenuPlace@CConEmuMenu@@QAE?AW4TrackMenuPlace@@XZ 00458ba2 f   Menu.obj
 0001:00057ba6       ?MenuAccel@CConEmuMenu@@AAEPB_WHPB_W@Z 00458ba6 f   Menu.obj
 0001:00057c91       ?OnInitMenuPopup@CConEmuMenu@@QAEJPAUHWND__@@PAUHMENU__@@J@Z 00458c91 f   Menu.obj
 0001:00057ed6       ?OnMenuRClick@CConEmuMenu@@QAEXPAUHMENU__@@I@Z 00458ed6 f   Menu.obj
 0001:00057ee9       ?OnMenuSelected@CConEmuMenu@@QAE_NPAUHMENU__@@GG@Z 00458ee9 f   Menu.obj
 0001:00057fc6       ?OnMenuSelected_NewCon@CConEmuMenu@@AAE_NPAUHMENU__@@GG@Z 00458fc6 f   Menu.obj
 0001:00058138       ?OnNcIconLClick@CConEmuMenu@@QAEXXZ 00459138 f   Menu.obj
 0001:000581ae       ?OnNewConPopupMenu@CConEmuMenu@@QAEXPAUtagPOINT@@K_N@Z 004591ae f   Menu.obj
 0001:00058e11       ?OnNewConPopupMenuRClick@CConEmuMenu@@AAEXPAUHMENU__@@I@Z 00459e11 f   Menu.obj
 0001:0005918f       ?OnSysCommand@CConEmuMenu@@QAEJPAUHWND__@@IJI@Z 0045a18f f   Menu.obj
 0001:00059c03       ?Reset@CmdTaskPopupItem@CConEmuMenu@@QAEXW4CmdTaskPopupItemType@12@HPB_W@Z 0045ac03 f   Menu.obj
 0001:00059c3d       ?SetMenuName@CmdTaskPopupItem@CConEmuMenu@@SAXPA_WHPB_W_N21@Z 0045ac3d f   Menu.obj
 0001:00059e4d       ?SetRestoreFromMinimized@CConEmuMenu@@QAE_N_N@Z 0045ae4d f   Menu.obj
 0001:00059e5d       ?SetShortName@CmdTaskPopupItem@CConEmuMenu@@QAEXPB_W_N0@Z 0045ae5d f   Menu.obj
 0001:00059e85       ?SetTrackMenuPlace@CConEmuMenu@@QAE?AW4TrackMenuPlace@@W42@@Z 0045ae85 f   Menu.obj
 0001:00059e95       ?ShowKeyBarHint@CConEmuMenu@@AAEXPAUHMENU__@@GG@Z 0045ae95 f   Menu.obj
 0001:00059eff       ?ShowMenuHint@CConEmuMenu@@AAEXPAUHMENU__@@GG@Z 0045aeff f   Menu.obj
 0001:00059fef       ?ShowMenuHint@CConEmuMenu@@AAEXPB_WPAUtagPOINT@@@Z 0045afef f   Menu.obj
 0001:0005a0ef       ?ShowPopupMenu@CConEmuMenu@@QAEXPAVCVirtualConsole@@UtagPOINT@@K_N@Z 0045b0ef f   Menu.obj
 0001:0005a1ec       ?ShowSysmenu@CConEmuMenu@@QAEXHHK@Z 0045b1ec f   Menu.obj
 0001:0005a669       ?UpdateSysMenu@CConEmuMenu@@AAEXPAUHMENU__@@@Z 0045b669 f   Menu.obj
 0001:0005a9a3       ?push_back@?$MArray@UCmdTaskPopupItem@CConEmuMenu@@@@QAEHABUCmdTaskPopupItem@CConEmuMenu@@@Z 0045b9a3 f i Menu.obj
 0001:0005a9f6       ?trackPopupMenu@CConEmuMenu@@QAEHW4TrackMenuPlace@@PAUHMENU__@@IHHPAUHWND__@@PAUtagRECT@@@Z 0045b9f6 f   Menu.obj
 0001:0005ac2e       ?CopyToClipboard@@YA_NPB_W@Z 0045bc2e f   MyClipboard.obj
 0001:0005ad2e       ?GetCliboardText@@YAPA_WAAKPA_WH@Z 0045bd2e f   MyClipboard.obj
 0001:0005aeaf       ?MyCloseClipboard@@YAXXZ   0045beaf f   MyClipboard.obj
 0001:0005aee1       ?MyOpenClipboard@@YA_NPB_W@Z 0045bee1 f   MyClipboard.obj
 0001:0005afeb       ?MySetClipboardData@@YAPAXIPAX@Z 0045bfeb f   MyClipboard.obj
 0001:0005b072       ??$SafeDelete@UCommandHistory@@@@YAXAAPAUCommandHistory@@@Z 0045c072 f i Options.obj
 0001:0005b0af       ??$SafeDelete@VCDragDrop@@@@YAXAAPAVCDragDrop@@@Z 0045c0af f i ConEmu.obj
 0001:0005b0af       ??$SafeDelete@USettingsBase@@@@YAXAAPAUSettingsBase@@@Z 0045c0af f i Options.obj
 0001:0005b0e0       ??0Settings@@QAE@XZ        0045c0e0 f   Options.obj
 0001:0005b10c       ??1Settings@@QAE@XZ        0045c10c f   Options.obj
 0001:0005b151       ?AppSettingsDelete@Settings@@IAEXH@Z 0045c151 f   Options.obj
 0001:0005b1bb       ?AppSettingsXch@Settings@@IAE_NHH@Z 0045c1bb f   Options.obj
 0001:0005b20d       ?AsString@CESize@@QAEPB_WXZ 0045c20d f i Options.obj
 0001:0005b258       ?CheckCharAltFont@Settings@@QAE_NH@Z 0045c258 f   Options.obj
 0001:0005b286       ?CheckConsoleSettings@Settings@@QAEXXZ 0045c286 f   Options.obj
 0001:0005b3e9       ?CheckHotkeyUnique@Settings@@QAEXXZ 0045c3e9 f   Options.obj
 0001:0005b626       ?CmdTaskGet@Settings@@QAEPBUCommandTasks@@H@Z 0045c626 f   Options.obj
 0001:0005b6c1       ?CmdTaskGetByName@Settings@@QAEPBUCommandTasks@@PB_W@Z 0045c6c1 f   Options.obj
 0001:0005b806       ?CmdTaskSet@Settings@@QAEHHPB_W00K@Z 0045c806 f   Options.obj
 0001:0005bbd5       ?CmdTaskSetVkMod@Settings@@QAEXHK@Z 0045cbd5 f   Options.obj
 0001:0005bc07       ?CmdTaskXch@Settings@@QAE_NHH@Z 0045cc07 f   Options.obj
 0001:0005bc54       ?CreateCharRanges@Settings@@QAEPA_WAAY0BAAAA@E@Z 0045cc54 f   Options.obj
 0001:0005bd19       ?CreatePredefinedPalettes@Settings@@QAEXH@Z 0045cd19 f   Options.obj
 0001:0005bead       ?CreateSettings@Settings@@QAEPAUSettingsBase@@PBUSettingsStorage@@@Z 0045cead f   Options.obj
 0001:0005c02d       ?DisableLogging@Settings@@QAEXXZ 0045d02d f   Options.obj
 0001:0005c035       ?EnableLogging@Settings@@QAEXXZ 0045d035 f   Options.obj
 0001:0005c053       ?FreeApps@Settings@@AAEXHPAPAUAppSettings@@@Z 0045d053 f   Options.obj
 0001:0005c0cf       ?FreeCmdTasks@Settings@@IAEXXZ 0045d0cf f   Options.obj
 0001:0005c13f       ?FreePalettes@Settings@@IAEXXZ 0045d13f f   Options.obj
 0001:0005c1a0       ?FreeProgresses@Settings@@IAEXXZ 0045d1a0 f   Options.obj
 0001:0005c1f9       ?FreePtr@ConEmuProgressStore@Settings@@QAEXXZ 0045d1f9 f i Options.obj
 0001:0005c21a       ?GetAppSettings@Settings@@QAEPBUAppSettings@@H@Z 0045d21a f   Options.obj
 0001:0005c25f       ?GetAppSettingsId@Settings@@QAEHPB_W_N@Z 0045d25f f   Options.obj
 0001:0005c3a6       ?GetAppSettingsPtr@Settings@@IAEPAUAppSettings@@HH@Z 0045d3a6 f   Options.obj
 0001:0005c4d7       ?GetColors@Settings@@QAEPAKHH@Z 0045d4d7 f   Options.obj
 0001:0005c546       ?GetColorsPrepare@Settings@@QAEPAKPAK0PA_NH@Z 0045d546 f   Options.obj
 0001:0005c578       ?GetDefColors@Settings@@QAEPBKPB_W@Z 0045d578 f   Options.obj
 0001:0005c5cb       ?GetDefaultTerminalApps@Settings@@QAEPA_WXZ 0045d5cb f   Options.obj
 0001:0005c5de       ?GetDefaultTerminalAppsMSZ@Settings@@QAEPB_WXZ 0045d5de f   Options.obj
 0001:0005c5e5       ?GetFadeColor@Settings@@QAEKK@Z 0045d5e5 f   Options.obj
 0001:0005c64f       ?GetFadeColorItem@Settings@@AAEEE@Z 0045d64f f i Options.obj
 0001:0005c69b       ?GetHotkeyById@Settings@@QAEKHPAPBUConEmuHotKey@@@Z 0045d69b f   Options.obj
 0001:0005c713       ?GetHotkeyNameById@Settings@@QAEPB_WHAAY0IA@_W_N@Z 0045d713 f   Options.obj
 0001:0005c76d       ?GetIntelligentExceptions@Settings@@QAEPA_WXZ 0045d76d f   Options.obj
 0001:0005c780       ?GetIntelligentExceptionsMSZ@Settings@@QAEPB_WXZ 0045d780 f   Options.obj
 0001:0005c787       ?GetLogFileName@Settings@@QAEPB_WXZ 0045d787 f   Options.obj
 0001:0005c7a0       ?GetPaletteColors@Settings@@QAEPAKPB_WH@Z 0045d7a0 f   Options.obj
 0001:0005c7f2       ?GetPaletteIndex@AppSettings@@QBEHXZ 0045d7f2 f   Options.obj
 0001:0005c80a       ?GetSettingsType@Settings@@QAEXAAUSettingsStorage@@AA_N@Z 0045d80a f   Options.obj
 0001:0005c8c3       ?GetStoragePlaceDescr@Settings@@QAEPA_WPBUSettingsStorage@@PB_W@Z 0045d8c3 f   Options.obj
 0001:0005c9eb       ?HideCaptionAlwaysFrame@Settings@@QAEHXZ 0045d9eb f   Options.obj
 0001:0005ca29       ?HistoryAdd@Settings@@QAEXPB_W@Z 0045da29 f   Options.obj
 0001:0005cb20       ?HistoryGet@Settings@@QAEPB_WH@Z 0045db20 f   Options.obj
 0001:0005cb39       ?HistoryLoad@Settings@@QAEXPAUSettingsBase@@@Z 0045db39 f   Options.obj
 0001:0005cc25       ?HistoryReset@Settings@@QAEXXZ 0045dc25 f   Options.obj
 0001:0005cc42       ?HistorySave@Settings@@QAEXPAUSettingsBase@@@Z 0045dc42 f   Options.obj
 0001:0005cd02       ?InitSettings@Settings@@QAEXXZ 0045dd02 f   Options.obj
 0001:0005d7c6       ?InitVanilla@Settings@@QAEXXZ 0045e7c6 f   Options.obj
 0001:0005d867       ?InitVanillaFontSettings@Settings@@QAEXXZ 0045e867 f   Options.obj
 0001:0005d8a0       ?IsHotkey@Settings@@QAE_NH@Z 0045e8a0 f   Options.obj
 0001:0005d8bd       ?IsModifierPressed@Settings@@QAEXHPA_N0@Z 0045e8bd f   Options.obj
 0001:0005d9bb       ?IsModifierPressed@Settings@@QAE_NH_N@Z 0045e9bb f   Options.obj
 0001:0005d9ed       ?LineDelimited2MSZ@Settings@@QAEPA_WPB_W_N@Z 0045e9ed f   Options.obj
 0001:0005dada       ?LoadAppSettings@Settings@@AAEXPAUSettingsBase@@PAUAppSettings@@@Z 0045eada f   Options.obj
 0001:0005de5d       ?LoadAppsSettings@Settings@@AAEXPAUSettingsBase@@_N@Z 0045ee5d f   Options.obj
 0001:0005e0f7       ?LoadCmdTasks@Settings@@QAEXPAUSettingsBase@@_N@Z 0045f0f7 f   Options.obj
 0001:0005e337       ?LoadCursorSettings@Settings@@AAEXPAUSettingsBase@@PATCECursorType@@1@Z 0045f337 f   Options.obj
 0001:0005e582       ?LoadHotkeys@Settings@@AAEXPAUSettingsBase@@AB_N11@Z 0045f582 f   Options.obj
 0001:0005e960       ?LoadMSZ@Settings@@QAE_NPAUSettingsBase@@PB_WAAPA_W1_N@Z 0045f960 f   Options.obj
 0001:0005e9db       ?LoadPalettes@Settings@@QAEXPAUSettingsBase@@@Z 0045f9db f   Options.obj
 0001:0005ecfb       ?LoadSettings@Settings@@QAEXAA_NPBUSettingsStorage@@@Z 0045fcfb f   Options.obj
 0001:00060d18       ?LoadSizeSettings@Settings@@IAEXPAUSettingsBase@@@Z 00461d18 f   Options.obj
 0001:00060f97       ?MSZ2LineDelimited@Settings@@QAEPA_WPB_W0_N@Z 00461f97 f   Options.obj
 0001:000610b0       ?MultiLine2MSZ@Settings@@QAEPA_WPB_WPAK@Z 004620b0 f   Options.obj
 0001:00061208       ?NeedCreateAppWindow@Settings@@QAE_NXZ 00462208 f   Options.obj
 0001:00061235       ?PaletteDelete@Settings@@QAEXPB_W@Z 00462235 f   Options.obj
 0001:000612a4       ?PaletteFindByColors@Settings@@QAEPBUColorPalette@@_NPBU2@@Z 004622a4 f   Options.obj
 0001:00061341       ?PaletteFindCurrent@Settings@@QAEPBUColorPalette@@_N@Z 00462341 f   Options.obj
 0001:0006136b       ?PaletteGet@Settings@@QAEPBUColorPalette@@H@Z 0046236b f   Options.obj
 0001:00061374       ?PaletteGetByName@Settings@@QAEPBUColorPalette@@PB_W@Z 00462374 f   Options.obj
 0001:0006138f       ?PaletteGetIndex@Settings@@QAEHPB_W@Z 0046238f f   Options.obj
 0001:000613f2       ?PaletteGetPtr@Settings@@IAEPAUColorPalette@@H@Z 004623f2 f   Options.obj
 0001:000614b6       ?PaletteSaveAs@Settings@@QAEXPB_W@Z 004624b6 f   Options.obj
 0001:000614fe       ?PaletteSaveAs@Settings@@QAEXPB_W_NEEEEEAAY0CA@$$CBK1@Z 004624fe f   Options.obj
 0001:0006175e       ?PaletteSetActive@Settings@@QAEHPB_W@Z 0046275e f   Options.obj
 0001:000617e7       ?PaletteSetStdIndexes@Settings@@QAEXXZ 004627e7 f   Options.obj
 0001:00061877       ?ParseCharRanges@Settings@@QAEHPB_WAAY0BAAAA@EE@Z 00462877 f   Options.obj
 0001:0006199e       ?PrepareFadeColors@Settings@@QAEXPAK0PA_N@Z 0046299e f   Options.obj
 0001:00061a19       ?RClickMacro@Settings@@QAEPB_WW4FarMacroVersion@@@Z 00462a19 f   Options.obj
 0001:00061a62       ?RClickMacroDefault@Settings@@QAEPB_WW4FarMacroVersion@@@Z 00462a62 f   Options.obj
 0001:00061a79       ?ReleasePointers@Settings@@IAEXXZ 00462a79 f   Options.obj
 0001:00061cd3       ?ResetFadeColors@Settings@@QAEXXZ 00462cd3 f   Options.obj
 0001:00061d10       ?ResetSavedOnExit@Settings@@QAEXXZ 00462d10 f   Options.obj
 0001:00061d18       ?SafeFarCloseMacro@Settings@@QAEPB_WW4FarMacroVersion@@@Z 00462d18 f   Options.obj
 0001:00061d61       ?SafeFarCloseMacroDefault@Settings@@QAEPB_WW4FarMacroVersion@@@Z 00462d61 f   Options.obj
 0001:00061d78       ?SaveAllMacro@Settings@@QAEPB_WW4FarMacroVersion@@@Z 00462d78 f   Options.obj
 0001:00061dc1       ?SaveAllMacroDefault@Settings@@QAEPB_WW4FarMacroVersion@@@Z 00462dc1 f   Options.obj
 0001:00061dd8       ?SaveAppSettings@Settings@@AAEXPAUSettingsBase@@PAUAppSettings@@@Z 00462dd8 f   Options.obj
 0001:00061fa5       ?SaveAppsSettings@Settings@@QAEXPAUSettingsBase@@@Z 00462fa5 f   Options.obj
 0001:000620ea       ?SaveCmdTasks@Settings@@QAE_NPAUSettingsBase@@@Z 004630ea f   Options.obj
 0001:000622cd       ?SaveConsoleFont@Settings@@QAEXXZ 004632cd f   Options.obj
 0001:0006234d       ?SaveFindOptions@Settings@@QAEXPAUSettingsBase@@@Z 0046334d f   Options.obj
 0001:00062409       ?SaveHotkeys@Settings@@AAEXPAUSettingsBase@@H@Z 00463409 f   Options.obj
 0001:000625c3       ?SaveMSZ@Settings@@QAEXPAUSettingsBase@@PB_W11_N@Z 004635c3 f   Options.obj
 0001:00062607       ?SavePalettes@Settings@@IAEXPAUSettingsBase@@@Z 00463607 f   Options.obj
 0001:00062a24       ?SaveSettings@Settings@@QAEHHPBUSettingsStorage@@@Z 00463a24 f   Options.obj
 0001:0006402b       ?SaveSettingsOnExit@Settings@@QAEXXZ 0046502b f   Options.obj
 0001:000642c3       ?SaveSizeSettings@Settings@@IAEXPAUSettingsBase@@@Z 004652c3 f   Options.obj
 0001:000644db       ?SaveStartCommands@Settings@@AAEXPAUSettingsBase@@@Z 004654db f   Options.obj
 0001:0006455a       ?SaveStatusSettings@Settings@@IAEXPAUSettingsBase@@@Z 0046555a f   Options.obj
 0001:00064639       ?SaveStdColors@Settings@@AAEXPAUSettingsBase@@@Z 00465639 f   Options.obj
 0001:0006471b       ?SaveStopBuzzingDate@Settings@@QAEXXZ 0046571b f   Options.obj
 0001:000647f5       ?SaveVanilla@Settings@@QAE_NPAUSettingsBase@@@Z 004657f5 f   Options.obj
 0001:00064973       ?SetDefaultTerminalApps@Settings@@QAEXPB_W@Z 00465973 f   Options.obj
 0001:000649de       ?SetFromRaw@CESize@@QAEX_NK@Z 004659de f i Options.obj
 0001:00064a0b       ?SetHideCaptionAlways@Settings@@QAEX_N@Z 00465a0b f   Options.obj
 0001:00064a1b       ?SetHotkeyById@Settings@@QAEXHK@Z 00465a1b f   Options.obj
 0001:00064a6f       ?SetIntelligentExceptions@Settings@@QAEXPB_W@Z 00465a6f f   Options.obj
 0001:00064ab0       ?SetMinToTray@Settings@@QAEX_N@Z 00465ab0 f   Options.obj
 0001:00064b01       ?SetPaletteName@AppSettings@@QAEXPB_W@Z 00465b01 f   Options.obj
 0001:00064b1e       ?SortPalettes@Settings@@IAEXXZ 00465b1e f   Options.obj
 0001:00064c0a       ?StatusBarFontHeight@Settings@@QAEHXZ 00465c0a f   Options.obj
 0001:00064c19       ?StatusBarHeight@Settings@@QAEHXZ 00465c19 f   Options.obj
 0001:00064c73       ?SwitchHideCaptionAlways@Settings@@QAEXXZ 00465c73 f   Options.obj
 0001:00064c84       ?TabCloseMacro@Settings@@QAEPB_WW4FarMacroVersion@@@Z 00465c84 f   Options.obj
 0001:00064ccd       ?TabCloseMacroDefault@Settings@@QAEPB_WW4FarMacroVersion@@@Z 00465ccd f   Options.obj
 0001:00064ce4       ?isActivateSplitMouseOver@Settings@@QAE_NXZ 00465ce4 f   Options.obj
 0001:00064d1a       ?isAdminShield@Settings@@QAE_NXZ 00465d1a f   Options.obj
 0001:00064d23       ?isAdminSuffix@Settings@@QAE_NXZ 00465d23 f   Options.obj
 0001:00064d40       ?isAlwaysShowTrayIcon@Settings@@QAE_NXZ 00465d40 f   Options.obj
 0001:00064d7b       ?isCaptionHidden@Settings@@QAE_NW4ConEmuWindowMode@@@Z 00465d7b f   Options.obj
 0001:00064dc3       ?isCloseOnCrossClick@Settings@@QAE_NXZ 00465dc3 f   Options.obj
 0001:00064ddf       ?isCloseOnLastTabClose@Settings@@QAE_NE@Z 00465ddf f   Options.obj
 0001:00064e10       ?isCloseOnLastTabClose@Settings@@QAE_NXZ 00465e10 f   Options.obj
 0001:00064e1e       ?isForcedHideCaptionAlways@Settings@@QAE_NXZ 00465e1e f   Options.obj
 0001:00064e36       ?isFrameHidden@Settings@@QAE_NXZ 00465e36 f   Options.obj
 0001:00064e77       ?isHideCaptionAlways@Settings@@QAE_NXZ 00465e77 f   Options.obj
 0001:00064ea6       ?isHideOnLastTabClose@Settings@@QAE_NXZ 00465ea6 f   Options.obj
 0001:00064ed4       ?isIndexes@CONEMUDEFCOLORS@@QBE_NXZ 00465ed4 f i Options.obj
 0001:00064ef2       ?isIntegralSize@Settings@@QAE_NXZ 00465ef2 f   Options.obj
 0001:00064f18       ?isKeyboardHooks@Settings@@QAE_N_N0@Z 00465f18 f   Options.obj
 0001:00064f47       ?isLogging@Settings@@QAEII@Z 00465f47 f   Options.obj
 0001:00064f95       ?isMinOnLastTabClose@Settings@@QAE_NXZ 00465f95 f   Options.obj
 0001:00064fc3       ?isMinToTray@Settings@@QAE_N_N@Z 00465fc3 f   Options.obj
 0001:00064fe3       ?isMinimizeOnLoseFocus@Settings@@QAE_NXZ 00465fe3 f   Options.obj
 0001:00064fff       ?isModifierExist@Settings@@QAE_NE_N@Z 00465fff f   Options.obj
 0001:0006509d       ?isRClickTouchInvert@Settings@@QAE_NXZ 0046609d f   Options.obj
 0001:000650c5       ?isTabsOnTaskBar@Settings@@QAE_NXZ 004660c5 f   Options.obj
 0001:0006511c       ?isTransparentAllowed@Settings@@QAE_NXZ 0046611c f   Options.obj
 0001:0006514e       ?isUseClink@Settings@@QAEK_N@Z 0046614e f   Options.obj
 0001:000652d3       ?isWindowOnTaskBar@Settings@@QAE_N_N@Z 004662d3 f   Options.obj
 0001:00065340       ??$GetPageObj@VCSetPgColors@@@CSettings@@QAE_NAAPAVCSetPgColors@@@Z 00466340 f i OptionsClass.obj
 0001:0006536f       ??$GetPageObj@VCSetPgSizePos@@@CSettings@@QAE_NAAPAVCSetPgSizePos@@@Z 0046636f f i OptionsClass.obj
 0001:0006539e       ??0CSettings@@QAE@XZ       0046639e f   OptionsClass.obj
 0001:00065671       ??1CSettings@@UAE@XZ       00466671 f   OptionsClass.obj
 0001:000657bb       ??_GCSettings@@UAEPAXI@Z   004667bb f i OptionsClass.obj
 0001:000657bb       ??_ECSettings@@UAEPAXI@Z   004667bb f i OptionsClass.obj
 0001:000657e0       ?BalloonStyle@CSettings@@QAEKXZ 004667e0 f   OptionsClass.obj
 0001:0006584b       ?CenterMoreDlg@CSettings@@CAXPAUHWND__@@@Z 0046684b f   OptionsClass.obj
 0001:000658cf       ?ChangeCurrentPalette@CSettings@@QAEXPBUColorPalette@@_N@Z 004668cf f   OptionsClass.obj
 0001:00065b88       ?CheckConsoleFont@CSettings@@KA_NPAUHWND__@@@Z 00466b88 f   OptionsClass.obj
 0001:00065f50       ?CheckConsoleFontFast@CSettings@@QAE_NPB_W@Z 00466f50 f   OptionsClass.obj
 0001:000663d2       ?CheckConsoleFontRegistry@CSettings@@KA_NPB_W@Z 004673d2 f   OptionsClass.obj
 0001:000665f1       ?CheckSelectionModifiers@CSettings@@QAEXPAUHWND__@@@Z 004675f1 f   OptionsClass.obj
 0001:00066b1b       ?CheckTheming@CSettings@@QAE_NXZ 00467b1b f   OptionsClass.obj
 0001:00066bac       ?ClearPages@CSettings@@AAEXXZ 00467bac f   OptionsClass.obj
 0001:00066bf7       ?Create@CSetPgANSI@@SAPAVCSetPgBase@@XZ 00467bf7 f i OptionsClass.obj
 0001:00066c24       ?Create@CSetPgAppear@@SAPAVCSetPgBase@@XZ 00467c24 f i OptionsClass.obj
 0001:00066c51       ?Create@CSetPgApps@@SAPAVCSetPgBase@@XZ 00467c51 f i OptionsClass.obj
 0001:00066c7e       ?Create@CSetPgBackgr@@SAPAVCSetPgBase@@XZ 00467c7e f i OptionsClass.obj
 0001:00066cab       ?Create@CSetPgChildGui@@SAPAVCSetPgBase@@XZ 00467cab f i OptionsClass.obj
 0001:00066cd8       ?Create@CSetPgColors@@SAPAVCSetPgBase@@XZ 00467cd8 f i OptionsClass.obj
 0001:00066d05       ?Create@CSetPgComspec@@SAPAVCSetPgBase@@XZ 00467d05 f i OptionsClass.obj
 0001:00066d32       ?Create@CSetPgConfirm@@SAPAVCSetPgBase@@XZ 00467d32 f i OptionsClass.obj
 0001:00066d5f       ?Create@CSetPgCursor@@SAPAVCSetPgBase@@XZ 00467d5f f i OptionsClass.obj
 0001:00066d8c       ?Create@CSetPgDebug@@SAPAVCSetPgBase@@XZ 00467d8c f i OptionsClass.obj
 0001:00066db9       ?Create@CSetPgDefTerm@@SAPAVCSetPgBase@@XZ 00467db9 f i OptionsClass.obj
 0001:00066de6       ?Create@CSetPgEnvironment@@SAPAVCSetPgBase@@XZ 00467de6 f i OptionsClass.obj
 0001:00066e13       ?Create@CSetPgFar@@SAPAVCSetPgBase@@XZ 00467e13 f i OptionsClass.obj
 0001:00066e40       ?Create@CSetPgFarMacro@@SAPAVCSetPgBase@@XZ 00467e40 f i OptionsClass.obj
 0001:00066e6d       ?Create@CSetPgFeatures@@SAPAVCSetPgBase@@XZ 00467e6d f i OptionsClass.obj
 0001:00066e9a       ?Create@CSetPgFonts@@SAPAVCSetPgBase@@XZ 00467e9a f i OptionsClass.obj
 0001:00066ec7       ?Create@CSetPgHilight@@SAPAVCSetPgBase@@XZ 00467ec7 f i OptionsClass.obj
 0001:00066ef4       ?Create@CSetPgInfo@@SAPAVCSetPgBase@@XZ 00467ef4 f i OptionsClass.obj
 0001:00066f21       ?Create@CSetPgIntegr@@SAPAVCSetPgBase@@XZ 00467f21 f i OptionsClass.obj
 0001:00066f4e       ?Create@CSetPgKeyboard@@SAPAVCSetPgBase@@XZ 00467f4e f i OptionsClass.obj
 0001:00066f7b       ?Create@CSetPgKeys@@SAPAVCSetPgBase@@XZ 00467f7b f i OptionsClass.obj
 0001:00066fab       ?Create@CSetPgMarkCopy@@SAPAVCSetPgBase@@XZ 00467fab f i OptionsClass.obj
 0001:00066fd8       ?Create@CSetPgMouse@@SAPAVCSetPgBase@@XZ 00467fd8 f i OptionsClass.obj
 0001:00067005       ?Create@CSetPgPaste@@SAPAVCSetPgBase@@XZ 00468005 f i OptionsClass.obj
 0001:00067032       ?Create@CSetPgQuake@@SAPAVCSetPgBase@@XZ 00468032 f i OptionsClass.obj
 0001:0006705f       ?Create@CSetPgSizePos@@SAPAVCSetPgBase@@XZ 0046805f f i OptionsClass.obj
 0001:0006708c       ?Create@CSetPgStartup@@SAPAVCSetPgBase@@XZ 0046808c f i OptionsClass.obj
 0001:000670b9       ?Create@CSetPgStatus@@SAPAVCSetPgBase@@XZ 004680b9 f i OptionsClass.obj
 0001:000670e6       ?Create@CSetPgTabs@@SAPAVCSetPgBase@@XZ 004680e6 f i OptionsClass.obj
 0001:00067113       ?Create@CSetPgTaskbar@@SAPAVCSetPgBase@@XZ 00468113 f i OptionsClass.obj
 0001:00067140       ?Create@CSetPgTasks@@SAPAVCSetPgBase@@XZ 00468140 f i OptionsClass.obj
 0001:0006716d       ?Create@CSetPgTransparent@@SAPAVCSetPgBase@@XZ 0046816d f i OptionsClass.obj
 0001:0006719a       ?Create@CSetPgUpdate@@SAPAVCSetPgBase@@XZ 0046819a f i OptionsClass.obj
 0001:000671c7       ?Create@CSetPgViews@@SAPAVCSetPgBase@@XZ 004681c7 f i OptionsClass.obj
 0001:000671f4       ?CreateConFontError@CSettings@@IAEPB_WPB_W0@Z 004681f4 f   OptionsClass.obj
 0001:0006737b       ?Dialog@CSettings@@SAXH@Z  0046837b f   OptionsClass.obj
 0001:00067504       ?EditConsoleFont@CSettings@@QAE_NPAUHWND__@@@Z 00468504 f   OptionsClass.obj
 0001:00067542       ?EditConsoleFontProc@CSettings@@SGHPAUHWND__@@IIJ@Z 00468542 f   OptionsClass.obj
 0001:00068133       ?EnumConFamCallBack@CSettings@@SGHPAUtagLOGFONTW@@PAUtagNEWTEXTMETRICW@@KPAX@Z 00469133 f   OptionsClass.obj
 0001:0006831c       ?EvalSize@CSettings@@QAEJJK@Z 0046931c f   OptionsClass.obj
 0001:000683a2       ?ExportSettings@CSettings@@IAEXXZ 004693a2 f   OptionsClass.obj
 0001:0006853a       ?GetActivePage@CSettings@@QAEPAUHWND__@@XZ 0046953a f   OptionsClass.obj
 0001:00068572       ?GetActivePageObj@CSettings@@QAEPAVCSetPgBase@@XZ 00469572 f   OptionsClass.obj
 0001:000685ad       ?GetActivePageWiki@CSettings@@QAEPB_WAAUCEStr@@@Z 004695ad f   OptionsClass.obj
 0001:00068610       ?GetBackgroundObject@CSettings@@QAEPAVCBackgroundInfo@@XZ 00469610 f   OptionsClass.obj
 0001:0006862f       ?GetConfigName@CSettings@@QAEPB_WXZ 0046962f f   OptionsClass.obj
 0001:00068636       ?GetConfigPath@CSettings@@QAEPB_WXZ 00469636 f   OptionsClass.obj
 0001:0006863d       ?GetDefaultCreateAction@CSettings@@QAE?AW4RecreateActionParm@@XZ 0046963d f   OptionsClass.obj
 0001:0006865e       ?GetDialogDpi@CSettings@@AAEHXZ 0046965e f   OptionsClass.obj
 0001:00068679       ?GetOverallDpi@CSettings@@IAEHXZ 00469679 f   OptionsClass.obj
 0001:000686a5       ?GetPage@CSettings@@QAEPAUHWND__@@W4TabHwndIndex@@@Z 004696a5 f   OptionsClass.obj
 0001:000686bb       ?GetPageData@CSettings@@AAEPBUConEmuSetupPages@@W4TabHwndIndex@@@Z 004696bb f   OptionsClass.obj
 0001:00068702       ?GetPageId@CSettings@@AAE?AW4TabHwndIndex@@PAUHWND__@@PAPAUConEmuSetupPages@@@Z 00469702 f   OptionsClass.obj
 0001:00068747       ?GetPageIdByDialogId@CSettings@@AAE?AW4TabHwndIndex@@I@Z 00469747 f   OptionsClass.obj
 0001:0006877d       ?GetPageObj@CSettings@@QAEPAVCSetPgBase@@W4TabHwndIndex@@@Z 0046977d f   OptionsClass.obj
 0001:00068796       ?ImportSettings@CSettings@@IAEXXZ 00469796 f   OptionsClass.obj
 0001:0006886e       ?InitPageNames@CSettings@@AAEXXZ 0046986e f   OptionsClass.obj
 0001:000688c3       ?InitVars_Pages@CSettings@@AAEXXZ 004698c3 f   OptionsClass.obj
 0001:00068fb5       ?InternalOpenCreate@?$MFileMapping@UPanelViewSetMapping@@@@IAEPAUPanelViewSetMapping@@HHH@Z 00469fb5 f i OptionsClass.obj
 0001:000690d0       ?IsBackgroundEnabled@CSettings@@QAE_NPAVCVirtualConsole@@@Z 0046a0d0 f   OptionsClass.obj
 0001:00069193       ?IsMulti@CSettings@@QAE_NXZ 0046a193 f   OptionsClass.obj
 0001:000691ae       ?IsSingleInstanceArg@CSettings@@QAE_NXZ 0046a1ae f   OptionsClass.obj
 0001:000691d8       ?IsValid@CESize@@QBE_N_N@Z 0046a1d8 f i OptionsClass.obj
 0001:0006922a       ?LoadBackgroundFile@CSettings@@QAE_NPB_W_N@Z 0046a22a f   OptionsClass.obj
 0001:00069267       ?NeedBackgroundUpdate@CSettings@@QAEXXZ 0046a267 f   OptionsClass.obj
 0001:000692b3       ?OnCtlColorStatic@CSettings@@IAEHPAUHWND__@@PAUHDC__@@0G@Z 0046a2b3 f   OptionsClass.obj
 0001:00069312       ?OnDrawFontItem@CSettings@@IAEHPAUHWND__@@IIJ@Z 0046a312 f   OptionsClass.obj
 0001:000694eb       ?OnInitDialog@CSettings@@IAEJXZ 0046a4eb f   OptionsClass.obj
 0001:00069b54       ?OnListBoxDblClk@CSettings@@IAEJPAUHWND__@@IJ@Z 0046ab54 f   OptionsClass.obj
 0001:00069b87       ?OnMeasureFontItem@CSettings@@IAEHPAUHWND__@@IIJ@Z 0046ab87 f   OptionsClass.obj
 0001:00069bee       ?OnPage@CSettings@@IAEJPAUtagNMHDR@@@Z 0046abee f   OptionsClass.obj
 0001:00069ee5       ?OnPanelViewAppeared@CSettings@@QAEXH@Z 0046aee5 f   OptionsClass.obj
 0001:00069f38       ?OnResetOrReload@CSettings@@IAEX_NPAUSettingsStorage@@@Z 0046af38 f   OptionsClass.obj
 0001:0006a143       ?OnSettingsClosed@CSettings@@QAEXXZ 0046b143 f   OptionsClass.obj
 0001:0006a236       ?Performance@CSettings@@QAEXIH@Z 0046b236 f   OptionsClass.obj
 0001:0006a5cd       ?PostUpdateCounters@CSettings@@QAEX_N@Z 0046b5cd f   OptionsClass.obj
 0001:0006aaf1       ?ProcessTipHelp@CSettings@@QAEHPAUHWND__@@IIJ@Z 0046baf1 f   OptionsClass.obj
 0001:0006ab3e       ?QueryDpi@CSettings@@QAEHXZ 0046bb3e f   OptionsClass.obj
 0001:0006ab45       ?RecreateFont@CSettings@@AAEXG@Z 0046bb45 f   OptionsClass.obj
 0001:0006abe6       ?RegisterTabs@CSettings@@AAEXXZ 0046bbe6 f   OptionsClass.obj
 0001:0006ac2c       ?RegisterTipsFor@CSettings@@QAEXPAUHWND__@@@Z 0046bc2c f   OptionsClass.obj
 0001:0006aee2       ?RegisterTipsForChild@CSettings@@CGHPAUHWND__@@J@Z 0046bee2 f   OptionsClass.obj
 0001:0006afd8       ?ReleaseHandles@CSettings@@AAEXXZ 0046bfd8 f   OptionsClass.obj
 0001:0006aff3       ?ResetCmdHistory@CSettings@@QAE_NPAUHWND__@@@Z 0046bff3 f   OptionsClass.obj
 0001:0006b03e       ?SearchForControls@CSettings@@IAEXXZ 0046c03e f   OptionsClass.obj
 0001:0006baaf       ?SelectTreeItem@CSettings@@CAXPAUHWND__@@PAU_TREEITEM@@_N@Z 0046caaf f   OptionsClass.obj
 0001:0006baf9       ?SetArgBufferHeight@CSettings@@QAEXH@Z 0046caf9 f   OptionsClass.obj
 0001:0006bb72       ?SetBgImageDarker@CSettings@@QAEXE_N@Z 0046cb72 f   OptionsClass.obj
 0001:0006bc52       ?SetConfigName@CSettings@@QAEXPB_W@Z 0046cc52 f   OptionsClass.obj
 0001:0006bcd7       ?SetOption@CSettings@@QAE_NPB_W0@Z 0046ccd7 f   OptionsClass.obj
 0001:0006bdda       ?SetOption@CSettings@@QAE_NPB_WH@Z 0046cdda f   OptionsClass.obj
 0001:0006be4c       ?SetSaveCmdHistory@CSettings@@QAEX_N@Z 0046ce4c f   OptionsClass.obj
 0001:0006bebf       ?SettingsLoaded@CSettings@@QAEXKPB_W@Z 0046cebf f   OptionsClass.obj
 0001:0006c38c       ?SettingsPreSave@CSettings@@QAEXXZ 0046d38c f   OptionsClass.obj
 0001:0006c574       ?ShowConFontErrorTip@CSettings@@QAEXXZ 0046d574 f   OptionsClass.obj
 0001:0006c5a1       ?ShowErrorTip@CSettings@@AAEXPA_WPAUHWND__@@H1PAUtagTOOLINFOW@@1K_N@Z 0046d5a1 f   OptionsClass.obj
 0001:0006c6d0       ?ShowFontErrorTip@CSettings@@QAEXPB_W@Z 0046d6d0 f   OptionsClass.obj
 0001:0006c740       ?ShowModifierErrorTip@CSettings@@QAEXPB_WPAUHWND__@@G@Z 0046d740 f   OptionsClass.obj
 0001:0006c788       ?StringCchCopyNW@@YGJPA_WIPB_WI@Z 0046d788 f i OptionsClass.obj
 0001:0006c831       ?UnregisterTabs@CSettings@@AAEXXZ 0046d831 f   OptionsClass.obj
 0001:0006c868       ?UpdateConsoleMode@CSettings@@QAEXPAVCRealConsole@@@Z 0046d868 f   OptionsClass.obj
 0001:0006c8b0       ?UpdateFontInfo@CSettings@@QAEXXZ 0046d8b0 f   OptionsClass.obj
 0001:0006c8d0       ?UpdatePos@CSettings@@QAEXHH_N@Z 0046d8d0 f   OptionsClass.obj
 0001:0006cae3       ?UpdateSize@CSettings@@QAEXTCESize@@0@Z 0046dae3 f   OptionsClass.obj
 0001:0006cd0f       ?UpdateTextColorSettings@CSettings@@QAEXHHPBUAppSettings@@@Z 0046dd0f f   OptionsClass.obj
 0001:0006cd4b       ?UpdateWinHookSettings@CSettings@@QAEXPAUHINSTANCE__@@@Z 0046dd4b f   OptionsClass.obj
 0001:0006cfab       ?UpdateWindowMode@CSettings@@QAEXW4ConEmuWindowMode@@@Z 0046dfab f   OptionsClass.obj
 0001:0006d021       ?isDialogMessage@CSettings@@QAE_NAAUtagMSG@@@Z 0046e021 f   OptionsClass.obj
 0001:0006d11c       ?wndOpProc@CSettings@@SGHPAUHWND__@@IIJ@Z 0046e11c f   OptionsClass.obj
 0001:0006d5a2       ??0CVarDefs@@QAE@XZ        0046e5a2 f i OptionsFast.obj
 0001:0006d609       ??0FarVerList@@QAE@XZ      0046e609 f i OptionsFast.obj
 0001:0006d681       ??1AppFoundList@@UAE@XZ    0046e681 f i OptionsFast.obj
 0001:0006d6cd       ??1CVarDefs@@QAE@XZ        0046e6cd f i OptionsFast.obj
 0001:0006d76d       ??1FarVerList@@UAE@XZ      0046e76d f i OptionsFast.obj
 0001:0006d778       ??1FoundFiles@@QAE@XZ      0046e778 f i OptionsFast.obj
 0001:0006d833       ??_FAppFoundList@@QAEXXZ   0046e833 f i OptionsFast.obj
 0001:0006d857       ??_EAppFoundList@@UAEPAXI@Z 0046e857 f i OptionsFast.obj
 0001:0006d857       ??_GAppFoundList@@UAEPAXI@Z 0046e857 f i OptionsFast.obj
 0001:0006d879       ??_EFarVerList@@UAEPAXI@Z  0046e879 f i OptionsFast.obj
 0001:0006d879       ??_GFarVerList@@UAEPAXI@Z  0046e879 f i OptionsFast.obj
 0001:0006d8a1       ?Add@AppFoundList@@QAA_NPB_W0000ZZ 0046e8a1 f i OptionsFast.obj
 0001:0006da53       ?Add@FoundFiles@@QAEXPB_W0@Z 0046ea53 f i OptionsFast.obj
 0001:0006db1d       ?AddAppPath@AppFoundList@@MAEHPB_W00_N000@Z 0046eb1d f i OptionsFast.obj
 0001:0006dd95       ?CheckOptionsFast@@YAXPB_WK@Z 0046ed95 f   OptionsFast.obj
 0001:0006e181       ?CheckUnique@AppFoundList@@QAE_NPB_W@Z 0046f181 f i OptionsFast.obj
 0001:0006e24c       ?Clean@AppFoundList@@IAEXXZ 0046f24c f i OptionsFast.obj
 0001:0006e27b       ?Commit@AppFoundList@@UAE_NXZ 0046f27b f i OptionsFast.obj
 0001:0006f0b1       ?CreateDefaultTasks@@YAXK@Z 004700b1 f   OptionsFast.obj
 0001:0006ffd6       ?FastMsgBox@@YAHPB_WI0PAUHWND__@@_N@Z 00470fd6 f   OptionsFast.obj
 0001:000701c9       ?Fast_FindStartupTask@@YAXK@Z 004711c9 f   OptionsFast.obj
 0001:00070313       ?Fast_GetStartupCommand@@YAPB_WAAPBUCommandTasks@@@Z 00471313 f   OptionsFast.obj
 0001:000710b5       ?FindInstalledVersions@FarVerList@@QAEXXZ 004720b5 f i OptionsFast.obj
 0001:00071a3a       ?Free@AppInfo@AppFoundList@@QAEXXZ 00472a3a f i OptionsFast.obj
 0001:00071c9b       ?MakeUnique@AppFoundList@@UAEXXZ 00472c9b f i OptionsFast.obj
 0001:00071f24       ?Process@CVarDefs@@QAEXHPB_W@Z 00472f24 f i OptionsFast.obj
 0001:0007205b       ?ScanRegistry@FarVerList@@IAEXXZ 0047305b f i OptionsFast.obj
 0001:0007238a       ?Store@CVarDefs@@QAEXPA_W0@Z 0047338a f i OptionsFast.obj
 0001:000723c4       ?Trim@AppFoundList@@IAE_NXZ 004733c4 f i OptionsFast.obj
 0001:00072548       ?clear@?$MArray@PAVCVConGuard@@@@QAEXXZ 00473548 f i Macro.obj
 0001:00072548       ?clear@?$MArray@UDragData@CDataObject@@@@QAEXXZ 00473548 f i BaseDragDrops.obj
 0001:00072548       ?clear@?$MArray@PA_W@@QAEXXZ 00473548 f i CmdHistory.obj
 0001:00072548       ?clear@?$MArray@UCmdTaskPopupItem@CConEmuMenu@@@@QAEXXZ 00473548 f i Menu.obj
 0001:00072548       ?clear@?$MArray@PAX@@QAEXXZ 00473548 f i TaskBar.obj
 0001:00072548       ?clear@?$MArray@PAVCustomFont@@@@QAEXXZ 00473548 f i CustomFonts.obj
 0001:00072548       ?clear@?$MArray@UFontHeightInfo@@@@QAEXXZ 00473548 f i FontMgr.obj
 0001:00072548       ?clear@?$MArray@UConEmuHotKey@@@@QAEXXZ 00473548 f i ConEmuApp.obj
 0001:00072548       ?clear@?$MArray@PAVCFont@@@@QAEXXZ 00473548 f i FontMgr.obj
 0001:00072548       ?clear@?$MArray@PAUtag_CEDragSource@CDragDropData@@@@QAEXXZ 00473548 f i DragDropData.obj
 0001:00072548       ?clear@?$MArray@UHighlightRect@CVirtualConsole@@@@QAEXXZ 00473548 f i VirtualConsole.obj
 0001:00072548       ?clear@?$MArray@UAppInfo@AppFoundList@@@@QAEXXZ 00473548 f i OptionsFast.obj
 0001:00072548       ?clear@?$MArray@UItemInfo@CDynDialog@@@@QAEXXZ 00473548 f i DynDialog.obj
 0001:00072548       ?clear@?$MArray@UDlgItem@CDpiForDialog@@@@QAEXXZ 00473548 f i DpiAware.obj
 0001:00072548       ?clear@?$MArray@PAVCTabID@@@@QAEXXZ 00473548 f i TabBar.obj
 0001:00072548       ?clear@?$MArray@UAttachParm@@@@QAEXXZ 00473548 f i Attach.obj
 0001:00072548       ?clear@?$MArray@PAUHWND__@@@@QAEXXZ 00473548 f i ConEmu.obj
 0001:00072548       ?clear@?$MArray@URunQueueItem@CRunQueue@@@@QAEXXZ 00473548 f i RunQueue.obj
 0001:00072548       ?clear@?$MArray@PAUSwitch@@@@QAEXXZ 00473548 f i SetPgIntegr.obj
 0001:00072548       ?clear@?$MArray@UFoundFile@@@@QAEXXZ 00473548 f i OptionsFast.obj
 0001:00072548       ?clear@?$MArray@UTabIconCache@CIconList@@@@QAEXXZ 00473548 f i IconList.obj
 0001:00072548       ?clear@?$MArray@Utxt@CFormatCopy@@@@QAEXXZ 00473548 f i RealBuffer.obj
 0001:00072548       ?clear@?$MArray@UBtnInfo@@@@QAEXXZ 00473548 f i ImgButton.obj
 0001:00072548       ?clear@?$MArray@ULngRcItem@CLngRc@@@@QAEXXZ 00473548 f i LngRc.obj
 0001:00072548       ?clear@?$MArray@UVarDef@CVarDefs@@@@QAEXXZ 00473548 f i OptionsFast.obj
 0001:00072548       ?clear@?$MArray@H@@QAEXXZ  00473548 f i CmdHistory.obj
 0001:00072548       ?clear@?$MArray@URegFont@@@@QAEXXZ 00473548 f i FontMgr.obj
 0001:00072548       ?clear@?$MArray@PAVCVConGroup@@@@QAEXXZ 00473548 f i VConGroup.obj
 0001:00072548       ?clear@?$MArray@USshAgent@CConEmuMain@@@@QAEXXZ 00473548 f i ConEmu.obj
 0001:00072548       ?clear@?$MArray@PAVCBackgroundInfo@@@@QAEXXZ 00473548 f i Background.obj
 0001:00072548       ?clear@?$MArray@UGuiMacroArg@@@@QAEXXZ 00473548 f i Macro.obj
 0001:00072548       ?clear@?$MArray@U_ThInfo@CDragDrop@@@@QAEXXZ 00473548 f i DragDrop.obj
 0001:00072574       ?erase@?$MArray@UAppInfo@AppFoundList@@@@QAEXH@Z 00473574 f i OptionsFast.obj
 0001:000725cd       ?pop_back@?$MArray@UVarDef@CVarDefs@@@@QAE_NAAUVarDef@CVarDefs@@@Z 004735cd f i OptionsFast.obj
 0001:00072604       ?push_back@?$MArray@UAppInfo@AppFoundList@@@@QAEHABUAppInfo@AppFoundList@@@Z 00473604 f i OptionsFast.obj
 0001:00072657       ?push_back@?$MArray@Utxt@CFormatCopy@@@@QAEHABUtxt@CFormatCopy@@@Z 00473657 f i RealBuffer.obj
 0001:00072657       ?push_back@?$MArray@U_ThInfo@CDragDrop@@@@QAEHABU_ThInfo@CDragDrop@@@Z 00473657 f i DragDrop.obj
 0001:00072657       ?push_back@?$MArray@UVarDef@CVarDefs@@@@QAEHABUVarDef@CVarDefs@@@Z 00473657 f i OptionsFast.obj
 0001:000726a7       ?sort@?$MArray@UAppInfo@AppFoundList@@@@QAEXP6AHAAUAppInfo@AppFoundList@@0@Z@Z 004736a7 f i OptionsFast.obj
 0001:000727e6       ?GetItemHelp@CEHelpPopup@@SA_NHPAUHWND__@@PA_WK@Z 004737e6 f   OptionsHelp.obj
 0001:00072913       ?OpenSettingsWiki@CEHelpPopup@@SA_NPAUHWND__@@G@Z 00473913 f   OptionsHelp.obj
 0001:00072a0c       ??0CPushInfo@@QAE@XZ       00473a0c f   PushInfo.obj
 0001:00072c14       ?OnNotificationClick@CPushInfo@@QAEXXZ 00473c14 f   PushInfo.obj
 0001:00072c9f       ?OpenNotificationUrl@CPushInfo@@QAEXXZ 00473c9f f   PushInfo.obj
 0001:00072cde       ?ShowNotification@CPushInfo@@QAE_NXZ 00473cde f   PushInfo.obj
 0001:00072d3b       ??0CRConData@@IAE@PAVCRealConsole@@PA_WPAUtag_CharAttr@@ABU_CONSOLE_SCREEN_BUFFER_INFO@@ABU_COORD@@@Z 00473d3b f   RConData.obj
 0001:00072db0       ??1CRConData@@MAE@XZ       00473db0 f   RConData.obj
 0001:00072e49       ??_GCRConData@@MAEPAXI@Z   00473e49 f i RConData.obj
 0001:00072e49       ??_ECRConData@@MAEPAXI@Z   00473e49 f i RConData.obj
 0001:00072e6b       ?Allocate@CRConData@@SA_NAAVCRConDataGuard@@PAVCRealConsole@@I@Z 00473e6b f   RConData.obj
 0001:00072f57       ?Allocate@CRConData@@SA_NAAVCRConDataGuard@@PAVCRealConsole@@PA_WPAUtag_CharAttr@@ABU_CONSOLE_SCREEN_BUFFER_INFO@@ABU_COORD@@@Z 00473f57 f   RConData.obj
 0001:00072fbc       ?CheckProgressInConsole@CRConData@@QAEFI@Z 00473fbc f   RConData.obj
 0001:000734e1       ?FindPanels@CRConData@@QAE_NAA_NAAUtagRECT@@1011@Z 004744e1 f   RConData.obj
 0001:00073b05       ?GetConsoleData@CRConData@@QAEIPA_WPAUtag_CharAttr@@II_WU2@11_N4E4@Z 00474b05 f   RConData.obj
 0001:00074113       ?GetConsoleLine@CRConData@@QBE_NHAAUConsoleLinePtr@@@Z 00475113 f   RConData.obj
 0001:000741ba       ?clear@ConsoleLinePtr@@QAEXXZ 004751ba f   RConData.obj
 0001:000741c8       ?isValid@CRConData@@QAE_N_NI@Z 004751c8 f   RConData.obj
 0001:0007420a       ?isValid@CRConDataGuard@@QAE_NI@Z 0047520a f   RConData.obj
 0001:0007422c       _wmemset                   0047522c f i RConData.obj
 0001:00074256       ??0CRConFiles@@QAE@PAVCRealConsole@@@Z 00475256 f   RConFiles.obj
 0001:00074264       ?CheckParentFolders@CRConFiles@@AAE_NPB_W0AAUCEStr@@@Z 00475264 f   RConFiles.obj
 0001:0007437a       ?GetFileFromConsole@CRConFiles@@QAEPB_WPB_WAAUCEStr@@@Z 0047537a f   RConFiles.obj
 0001:0007465e       ??$swprintf_s@$0MI@@@YAHAAY0MI@_WPB_WZZ 0047565e f i RConPalette.obj
 0001:0007467c       ??0CRConPalette@@QAE@PAVCRealConsole@@@Z 0047567c f   RConPalette.obj
 0001:000746b6       ??_ECRConPalette@@UAEPAXI@Z 004756b6 f i RConPalette.obj
 0001:000746b6       ??_GCRConPalette@@UAEPAXI@Z 004756b6 f i RConPalette.obj
 0001:000746dc       ?UpdateColorTable@CRConPalette@@QAEXPAK_N1EEE@Z 004756dc f   RConPalette.obj
 0001:00074b06       ___local_stdio_printf_options 00475b06 f i RConPalette.obj
 0001:00074b0c       __vswprintf_s_l            00475b0c f i RConPalette.obj
 0001:00074b3a       ??$MinMax@F@@YAXAAFHH@Z    00475b3a f i RealBuffer.obj
 0001:00074b5a       ??$SafeDelete@VCMatch@@@@YAXAAPAVCMatch@@@Z 00475b5a f i RealBuffer.obj
 0001:00074b9a       ??$wcscpy_c@$0BAA@@@YAHAAY0BAA@_WPB_W@Z 00475b9a f i RealBuffer.obj
 0001:00074baf       ??0?$CRefGuard@VCRConData@@@@QAE@XZ 00475baf f i RealBuffer.obj
 0001:00074bc9       ??0?$MFileMapping@UCESERVER_CONSOLE_MAPPING_HDR@@@@QAE@XZ 00475bc9 f i RealConsole.obj
 0001:00074bc9       ??0?$MFileMapping@Utag_DetectedDialog@@@@QAE@XZ 00475bc9 f i VirtualConsole.obj
 0001:00074bc9       ??0?$MFileMapping@UCESERVER_CONSAVE_MAPHDR@@@@QAE@XZ 00475bc9 f i RealBuffer.obj
 0001:00074bc9       ??0?$MFileMapping@$$CBUCEFAR_INFO_MAPPING@@@@QAE@XZ 00475bc9 f i RealConsole.obj
 0001:00074bc9       ??0?$MFileMapping@UCESERVER_CONSAVE_MAP@@@@QAE@XZ 00475bc9 f i RealBuffer.obj
 0001:00074bc9       ??0?$MFileMapping@UCESERVER_CONSOLE_APP_MAPPING@@@@QAE@XZ 00475bc9 f i RealConsole.obj
 0001:00074bc9       ??0?$MFileMapping@UPanelViewSetMapping@@@@QAE@XZ 00475bc9 f i OptionsClass.obj
 0001:00074bc9       ??0?$MFileMapping@UConEmuGuiMapping@@@@QAE@XZ 00475bc9 f i ConEmu.obj
 0001:00074bc9       ??0?$MFileMapping@UAnnotationHeader@@@@QAE@XZ 00475bc9 f i RealConsole.obj
 0001:00074bed       ??0CAnsiCopy@@QAE@PAKKK@Z  00475bed f i RealBuffer.obj
 0001:00074c72       ??0CHtmlCopy@@QAE@_NPB_W1HKK@Z 00475c72 f i RealBuffer.obj
 0001:00074d4a       ??0CRealBuffer@@QAE@PAVCRealConsole@@W4RealBufferType@@@Z 00475d4a f   RealBuffer.obj
 0001:00074ea1       ??1?$CRefGuard@VCRConData@@@@UAE@XZ 00475ea1 f i RealBuffer.obj
 0001:00074eec       ??1?$MFileMapping@UCESERVER_CONSOLE_APP_MAPPING@@@@QAE@XZ 00475eec f i RealConsole.obj
 0001:00074eec       ??1?$MFileMapping@UConEmuGuiMapping@@@@QAE@XZ 00475eec f i ConEmu.obj
 0001:00074eec       ??1?$MFileMapping@UCESERVER_CONSAVE_MAP@@@@QAE@XZ 00475eec f i RealBuffer.obj
 0001:00074eec       ??1?$MFileMapping@UCESERVER_CONSOLE_MAPPING_HDR@@@@QAE@XZ 00475eec f i RealConsole.obj
 0001:00074eec       ??1?$MFileMapping@$$CBUCEFAR_INFO_MAPPING@@@@QAE@XZ 00475eec f i RealConsole.obj
 0001:00074eec       ??1?$MFileMapping@UCESERVER_CONSAVE_MAPHDR@@@@QAE@XZ 00475eec f i RealBuffer.obj
 0001:00074eec       ??1?$MFileMapping@Utag_DetectedDialog@@@@QAE@XZ 00475eec f i VirtualConsole.obj
 0001:00074eec       ??1?$MFileMapping@UPanelViewSetMapping@@@@QAE@XZ 00475eec f i OptionsClass.obj
 0001:00074ef6       ??1CFormatCopy@@UAE@XZ     00475ef6 f i RealBuffer.obj
 0001:00074f6a       ??1CRConDataGuard@@UAE@XZ  00475f6a f i RealBuffer.obj
 0001:00074f6f       ??1CRealBuffer@@QAE@XZ     00475f6f f   RealBuffer.obj
 0001:00075063       ??_ECAnsiCopy@@UAEPAXI@Z   00476063 f i RealBuffer.obj
 0001:00075063       ??_GCAnsiCopy@@UAEPAXI@Z   00476063 f i RealBuffer.obj
 0001:0007508e       ??_GCFormatCopy@@UAEPAXI@Z 0047608e f i RealBuffer.obj
 0001:0007508e       ??_ECFormatCopy@@UAEPAXI@Z 0047608e f i RealBuffer.obj
 0001:000750b3       ??_GCHtmlCopy@@UAEPAXI@Z   004760b3 f i RealBuffer.obj
 0001:000750b3       ??_ECHtmlCopy@@UAEPAXI@Z   004760b3 f i RealBuffer.obj
 0001:000750de       ??_ECRConDataGuard@@UAEPAXI@Z 004760de f i RealBuffer.obj
 0001:000750de       ??_E?$CRefGuard@VCRConData@@@@UAEPAXI@Z 004760de f i RealBuffer.obj
 0001:000750de       ??_G?$CRefGuard@VCRConData@@@@UAEPAXI@Z 004760de f i RealBuffer.obj
 0001:000750de       ??_GCRConDataGuard@@UAEPAXI@Z 004760de f i RealBuffer.obj
 0001:00075100       ?AllocateBuffer@?$MPipe@UCESERVER_REQ_HDR@@U1@@@IAEPAUCESERVER_REQ_HDR@@KPAU2@K@Z 00476100 f i RealBuffer.obj
 0001:000751a3       ?ApplyConsoleInfo@CRealBuffer@@AAEXPBUCESERVER_REQ@@AA_N11@Z 004761a3 f   RealBuffer.obj
 0001:0007582c       ?ApplyConsoleInfo@CRealBuffer@@QAE_NXZ 0047682c f   RealBuffer.obj
 0001:0007592d       ?BuferModeChangeLock@CRealBuffer@@QAE_NXZ 0047692d f   RealBuffer.obj
 0001:0007593f       ?BuferModeChangeUnlock@CRealBuffer@@QAEXXZ 0047693f f   RealBuffer.obj
 0001:00075947       ?BufferHeight@CRealBuffer@@QAEHI@Z 00476947 f   RealBuffer.obj
 0001:00075986       ?BufferToScreen@CRealBuffer@@QAE?AU_COORD@@U2@_N1@Z 00476986 f   RealBuffer.obj
 0001:00075a27       ?CanProcessHyperlink@CRealBuffer@@AAE_NABU_COORD@@@Z 00476a27 f   RealBuffer.obj
 0001:00075ae0       ?ChangeBufferHeightMode@CRealBuffer@@QAEX_N@Z 00476ae0 f   RealBuffer.obj
 0001:00075b8b       ?ChangeSelectionByKey@CRealBuffer@@QAEXI_N0@Z 00476b8b f   RealBuffer.obj
 0001:00075edb       ?CheckBufferSize@CRealBuffer@@AAE_NXZ 00476edb f   RealBuffer.obj
 0001:00075f26       ?Close@?$MPipe@UCESERVER_REQ_HDR@@U1@@@QAEXXZ 00476f26 f i RealBuffer.obj
 0001:00075fa6       ?Close@ConDumpInfo@CRealBuffer@@QAEXXZ 00476fa6 f i RealBuffer.obj
 0001:00075fd1       ?CloseMap@?$MFileMapping@UCESERVER_CONSOLE_MAPPING_HDR@@@@QAEXXZ 00476fd1 f i RealConsole.obj
 0001:00075fd1       ?CloseMap@?$MFileMapping@UAnnotationHeader@@@@QAEXXZ 00476fd1 f i RealConsole.obj
 0001:00075fd1       ?CloseMap@?$MFileMapping@Utag_DetectedDialog@@@@QAEXXZ 00476fd1 f i VirtualConsole.obj
 0001:00075fd1       ?CloseMap@?$MFileMapping@UPanelViewSetMapping@@@@QAEXXZ 00476fd1 f i OptionsClass.obj
 0001:00075fd1       ?CloseMap@?$MFileMapping@UCESERVER_CONSAVE_MAP@@@@QAEXXZ 00476fd1 f i RealBuffer.obj
 0001:00075fd1       ?CloseMap@?$MFileMapping@UConEmuGuiMapping@@@@QAEXXZ 00476fd1 f i ConEmu.obj
 0001:00075fd1       ?CloseMap@?$MFileMapping@UCESERVER_CONSAVE_MAPHDR@@@@QAEXXZ 00476fd1 f i RealBuffer.obj
 0001:00075fd1       ?CloseMap@?$MFileMapping@UCESERVER_CONSOLE_APP_MAPPING@@@@QAEXXZ 00476fd1 f i RealConsole.obj
 0001:00075fd1       ?CloseMap@?$MFileMapping@$$CBUCEFAR_INFO_MAPPING@@@@QAEXXZ 00476fd1 f i RealConsole.obj
 0001:00076004       ?ConsoleCursorInfo@CRealBuffer@@QAEXPAU_CONSOLE_CURSOR_INFO@@@Z 00477004 f   RealBuffer.obj
 0001:000760b0       ?ConsoleCursorPos@CRealBuffer@@QAEXPAU_COORD@@@Z 004770b0 f   RealBuffer.obj
 0001:0007610a       ?ConsoleScreenBufferInfo@CRealBuffer@@QAEXPAU_CONSOLE_SCREEN_BUFFER_INFO@@PAU_SMALL_RECT@@PAUTOPLEFTCOORD@@@Z 0047710a f   RealBuffer.obj
 0001:0007617b       ?CorrectSelectionAnchor@CRealBuffer@@QAEIXZ 0047717b f   RealBuffer.obj
 0001:0007620e       ?CreateResult@CAnsiCopy@@UAEPAXXZ 0047720e f i RealBuffer.obj
 0001:0007625d       ?CreateResult@CHtmlCopy@@UAEPAXXZ 0047725d f i RealBuffer.obj
 0001:0007634d       ?CreateResultInternal@CFormatCopy@@IAEPAXPBDH@Z 0047734d f i RealBuffer.obj
 0001:000764a0       ?DoCopyPaste@CRealBuffer@@QAEX_N0@Z 004774a0 f   RealBuffer.obj
 0001:0007657a       ?DoScrollBuffer@CRealBuffer@@QAEJHFI_N@Z 0047757a f   RealBuffer.obj
 0001:00076712       ?DoSelectionCopy@CRealBuffer@@QAE_NW4CECopyMode@@EPB_WPAPAX@Z 00477712 f   RealBuffer.obj
 0001:0007690e       ?DoSelectionCopyInt@CRealBuffer@@AAE_NW4CECopyMode@@_NHHHHEPB_WPAPAX@Z 0047790e f   RealBuffer.obj
 0001:000776af       ?DoSelectionFinalize@CRealBuffer@@QAE_N_NW4CECopyMode@@IPAPAX@Z 004786af f   RealBuffer.obj
 0001:00077705       ?DoSelectionStop@CRealBuffer@@QAEXXZ 00478705 f   RealBuffer.obj
 0001:0007776d       ?DumpConsole@CRealBuffer@@QAEXPAX@Z 0047876d f   RealBuffer.obj
 0001:00077816       ?ExpandSelection@CRealBuffer@@QAEXFF_N@Z 00478816 f   RealBuffer.obj
 0001:00077c06       ?ExpandTextRange@CRealBuffer@@AAE?AW4ExpandTextRangeType@@AAU_COORD@@0W42@PAUCEStr@@@Z 00478c06 f   RealBuffer.obj
 0001:00077dd2       ?FindPanels@CRealBuffer@@QAEXXZ 00478dd2 f   RealBuffer.obj
 0001:0007806c       ?FormatColor@CAnsiCopy@@IAEPB_WKK_N00AAY0FA@_W@Z 0047906c f i RealBuffer.obj
 0001:000782f0       ?FormatColor@CHtmlCopy@@IAEPB_WKPA_W@Z 004792f0 f i RealBuffer.obj
 0001:00078324       ?GetBufferHeight@CRealBuffer@@QBEFXZ 00479324 f   RealBuffer.obj
 0001:0007832c       ?GetBufferPosY@CRealBuffer@@QBEFXZ 0047932c f   RealBuffer.obj
 0001:0007833e       ?GetBufferWidth@CRealBuffer@@QBEFXZ 0047933e f   RealBuffer.obj
 0001:00078346       ?GetConInMode@CRealBuffer@@QAEGXZ 00479346 f   RealBuffer.obj
 0001:0007834e       ?GetConOutMode@CRealBuffer@@QAEGXZ 0047934e f   RealBuffer.obj
 0001:00078356       ?GetConWindowSize@CRealBuffer@@QBE_NABU_CONSOLE_SCREEN_BUFFER_INFO@@PAH1PAK@Z 00479356 f   RealBuffer.obj
 0001:0007842e       ?GetConsoleCP@CRealBuffer@@QAEKXZ 0047942e f   RealBuffer.obj
 0001:00078435       ?GetConsoleData@CRealBuffer@@QAEXPA_WPAUtag_CharAttr@@HHAAUConEmuTextRange@@@Z 00479435 f   RealBuffer.obj
 0001:00078cc0       ?GetConsoleLine@CRealBuffer@@QAE_NAAVCRConDataGuard@@HAAPB_WAAHPAVMSectionLock@@@Z 00479cc0 f   RealBuffer.obj
 0001:00078cff       ?GetConsoleLine@CRealBuffer@@QAE_NHAAVCRConDataGuard@@AAUConsoleLinePtr@@PAVMSectionLock@@@Z 00479cff f   RealBuffer.obj
 0001:00078e17       ?GetConsoleOutputCP@CRealBuffer@@QAEKXZ 00479e17 f   RealBuffer.obj
 0001:00078e1e       ?GetConsoleSelectionInfo@CRealBuffer@@QAE_NPAU_CONSOLE_SELECTION_INFO@@@Z 00479e1e f   RealBuffer.obj
 0001:00078e47       ?GetCursorInfo@CRealBuffer@@QAEXPAU_COORD@@PAU_CONSOLE_CURSOR_INFO@@@Z 00479e47 f   RealBuffer.obj
 0001:00078e6b       ?GetData@CRealBuffer@@IAE_NAAVCRConDataGuard@@@Z 00479e6b f   RealBuffer.obj
 0001:00078ee0       ?GetDefaultNtvdmHeight@CRealBuffer@@QAE?AU_COORD@@XZ 00479ee0 f   RealBuffer.obj
 0001:00078f4a       ?GetDetector@CRealBuffer@@QAEPBVCRgnDetect@@XZ 00479f4a f   RealBuffer.obj
 0001:00078f55       ?GetDynamicHeight@CRealBuffer@@QBEHXZ 00479f55 f   RealBuffer.obj
 0001:00078f72       ?GetKeybLayout@CRealBuffer@@QAEKXZ 00479f72 f   RealBuffer.obj
 0001:00078f79       ?GetLastTextRangeType@CRealBuffer@@QAE?AW4ExpandTextRangeType@@XZ 00479f79 f   RealBuffer.obj
 0001:00078f87       ?GetMaxSize@CRealBuffer@@QAE?AU_COORD@@XZ 00479f87 f   RealBuffer.obj
 0001:00078f99       ?GetPanelRect@CRealBuffer@@QAE_N_NPAUtagRECT@@00@Z 00479f99 f   RealBuffer.obj
 0001:00079052       ?GetRBtnDrag@CRealBuffer@@QAE_NPAU_COORD@@@Z 0047a052 f   RealBuffer.obj
 0001:0007906e       ?GetSelectionCellsCount@CRealBuffer@@QAEHXZ 0047a06e f   RealBuffer.obj
 0001:000790b0       ?GetSelectionCharCount@CRealBuffer@@AAEH_NHHHHPAH1H@Z 0047a0b0 f   RealBuffer.obj
 0001:00079150       ?GetStatusLineCount@CRealBuffer@@QAEHH@Z 0047a150 f   RealBuffer.obj
 0001:00079213       ?GetTextHeight@CRealBuffer@@QBEHXZ 0047a213 f   RealBuffer.obj
 0001:00079222       ?GetTextWidth@CRealBuffer@@QBEHXZ 0047a222 f   RealBuffer.obj
 0001:00079231       ?GetTo@?$MFileMapping@$$CBUCEFAR_INFO_MAPPING@@@@QAE_NPBUCEFAR_INFO_MAPPING@@H@Z 0047a231 f i RealBuffer.obj
 0001:00079261       ?InitBuffers@CRealBuffer@@AAE_NKHHPAVCRConDataGuard@@@Z 0047a261 f   RealBuffer.obj
 0001:000796ed       ?InitMaxSize@CRealBuffer@@QAEXABU_COORD@@@Z 0047a6ed f   RealBuffer.obj
 0001:000796ff       ?InitSBI@CRealBuffer@@QAEXABU_CONSOLE_SCREEN_BUFFER_INFO@@@Z 0047a6ff f   RealBuffer.obj
 0001:000797fe       ?InternalOpenCreate@?$MFileMapping@UCESERVER_CONSAVE_MAP@@@@IAEPAUCESERVER_CONSAVE_MAP@@HHH@Z 0047a7fe f i RealBuffer.obj
 0001:00079917       ?InternalOpenCreate@?$MFileMapping@UCESERVER_CONSAVE_MAPHDR@@@@IAEPAUCESERVER_CONSAVE_MAPHDR@@HHH@Z 0047a917 f i RealBuffer.obj
 0001:00079a32       ?IsBufferHeightTurnedOn@CRealBuffer@@AAE_NABU_CONSOLE_SCREEN_BUFFER_INFO@@@Z 0047aa32 f   RealBuffer.obj
 0001:00079a6e       ?IsFarLua@FarVersion@@QBE_NXZ 0047aa6e f i RealBuffer.obj
 0001:00079a88       ?IsTrueColorerBufferChanged@CRealBuffer@@AAE_NXZ 0047aa88 f   RealBuffer.obj
 0001:00079c58       ?LineAdd@CFormatCopy@@UAEXPB_WPBGPBKH@Z 0047ac58 f i RealBuffer.obj
 0001:00079ce5       ?LineAdd@CFormatCopy@@UAEXPB_WPBUtag_CharAttr@@H@Z 0047ace5 f i RealBuffer.obj
 0001:00079da9       ?LoadAlternativeConsole@CRealBuffer@@QAE_NW4LoadAltMode@@@Z 0047ada9 f   RealBuffer.obj
 0001:0007a101       ?LoadDataFromDump@CRealBuffer@@AAE_NABU_CONSOLE_SCREEN_BUFFER_INFO@@PBU_CHAR_INFO@@K@Z 0047b101 f   RealBuffer.obj
 0001:0007a4a6       ?LoadDataFromSrv@CRealBuffer@@AAE_NAAVCRConDataGuard@@KPAU_CHAR_INFO@@@Z 0047b4a6 f   RealBuffer.obj
 0001:0007a7f9       ?LoadDumpConsole@CRealBuffer@@QAE_NPB_W@Z 0047b7f9 f   RealBuffer.obj
 0001:0007acb4       ?MarkFindText@CRealBuffer@@QAEXHPB_W_N1@Z 0047bcb4 f   RealBuffer.obj
 0001:0007b236       ?OnBufferHeight@CRealBuffer@@QAEXXZ 0047c236 f   RealBuffer.obj
 0001:0007b24b       ?OnKeyboard@CRealBuffer@@QAE_NPAUHWND__@@IIJPB_W@Z 0047c24b f   RealBuffer.obj
 0001:0007b42c       ?OnKeysSending@CRealBuffer@@QAEXXZ 0047c42c f   RealBuffer.obj
 0001:0007b481       ?OnMouse@CRealBuffer@@QAE_NIIHHU_COORD@@@Z 0047c481 f   RealBuffer.obj
 0001:0007c099       ?OnMouseSelection@CRealBuffer@@AAE_NIIHH@Z 0047d099 f   RealBuffer.obj
 0001:0007c463       ?OnTimerCheckSelection@CRealBuffer@@QAEXXZ 0047d463 f   RealBuffer.obj
 0001:0007c555       ?Open@?$MPipe@UCESERVER_REQ_HDR@@U1@@@QAEHXZ 0047d555 f i RealBuffer.obj
 0001:0007c60d       ?ParBegin@CAnsiCopy@@MAEXXZ 0047d60d f i RealBuffer.obj
 0001:0007c627       ?ParBegin@CHtmlCopy@@MAEXXZ 0047d627 f i RealBuffer.obj
 0001:0007c641       ?ParEnd@CAnsiCopy@@MAEXXZ  0047d641 f i RealBuffer.obj
 0001:0007c65e       ?ParEnd@CHtmlCopy@@MAEXXZ  0047d65e f i RealBuffer.obj
 0001:0007c67b       ?PatchMouseCoords@CRealBuffer@@AAE_NAAH0AAU_COORD@@@Z 0047d67b f   RealBuffer.obj
 0001:0007c854       ?PreFillBuffers@CRealBuffer@@QAEXXZ 0047d854 f   RealBuffer.obj
 0001:0007c8c8       ?PreInit@CRealBuffer@@QAE_NXZ 0047d8c8 f   RealBuffer.obj
 0001:0007ca22       ?PrepareColorTable@CRealBuffer@@AAEXPBUAppSettings@@PAPAUtag_CharAttr@@1@Z 0047da22 f   RealBuffer.obj
 0001:0007cadc       ?PrepareTransparent@CRealBuffer@@AAEXPA_WPAUtag_CharAttr@@HH@Z 0047dadc f   RealBuffer.obj
 0001:0007ccb3       ?ProcessFarHyperlink@CRealBuffer@@QAE_NIU_COORD@@_N@Z 0047dcb3 f   RealBuffer.obj
 0001:0007d747       ?ProcessFarHyperlink@CRealBuffer@@QAE_N_N@Z 0047e747 f   RealBuffer.obj
 0001:0007d872       ?ProcessSelectionHotKey@CRealBuffer@@QAEPBUConEmuHotKey@@ABUConEmuChord@@_NPB_W@Z 0047e872 f   RealBuffer.obj
 0001:0007dacd       ?QueryCellInfo@CRealBuffer@@QAEXPA_WH@Z 0047eacd f   RealBuffer.obj
 0001:0007dc2b       ?RawAdd@CFormatCopy@@IAEXPB_WH@Z 0047ec2b f i RealBuffer.obj
 0001:0007dcf1       ?ReleaseMem@CRealBuffer@@QAEXXZ 0047ecf1 f   RealBuffer.obj
 0001:0007dcff       ?ResetBuffer@CRealBuffer@@QAEXXZ 0047ecff f   RealBuffer.obj
 0001:0007ddbc       ?ResetConData@CRealBuffer@@QAEXXZ 0047edbc f   RealBuffer.obj
 0001:0007ddcb       ?ResetLastMousePos@CRealBuffer@@AAE_NXZ 0047edcb f   RealBuffer.obj
 0001:0007ddfd       ?ResetTopLeft@CRealBuffer@@QAEXXZ 0047edfd f   RealBuffer.obj
 0001:0007de29       ?ScreenToBuffer@CRealBuffer@@QAE?AU_COORD@@U2@@Z 0047ee29 f   RealBuffer.obj
 0001:0007de5b       ?SetBufferHeightMode@CRealBuffer@@QAEX_N0@Z 0047ee5b f   RealBuffer.obj
 0001:0007de93       ?SetChange2Size@CRealBuffer@@QAEXHH@Z 0047ee93 f   RealBuffer.obj
 0001:0007deac       ?SetConsoleSize@CRealBuffer@@QAE_NFFGK@Z 0047eeac f   RealBuffer.obj
 0001:0007e17a       ?SetConsoleSizeSrv@CRealBuffer@@AAE_NGGGK@Z 0047f17a f   RealBuffer.obj
 0001:0007ebd0       ?SetKeybLayout@CRealBuffer@@QAEXK@Z 0047fbd0 f   RealBuffer.obj
 0001:0007ebe0       ?SetRBtnDrag@CRealBuffer@@QAEX_NPBU_COORD@@@Z 0047fbe0 f   RealBuffer.obj
 0001:0007ebff       ?SetTopLeft@CRealBuffer@@IAE_NHH_N0@Z 0047fbff f   RealBuffer.obj
 0001:0007ed07       ?ShowKeyBarHint@CRealBuffer@@QAEXG@Z 0047fd07 f   RealBuffer.obj
 0001:0007ed32       ?StartSelection@CRealBuffer@@QAEX_NFF0IPAU_COORD@@K@Z 0047fd32 f   RealBuffer.obj
 0001:0007ef80       ?StoreLastTextRange@CRealBuffer@@AAE_NW4ExpandTextRangeType@@@Z 0047ff80 f   RealBuffer.obj
 0001:0007efcc       ?StorePausedState@CRealBuffer@@QAEXW4CEPauseCmd@@@Z 0047ffcc f   RealBuffer.obj
 0001:0007f00d       ?SyncConsole2Window@CRealBuffer@@QAEXFF@Z 0048000d f   RealBuffer.obj
 0001:0007f0ca       ?TextAdd@CAnsiCopy@@MAEXPB_WHKK_N11@Z 004800ca f i RealBuffer.obj
 0001:0007f1ad       ?TextAdd@CHtmlCopy@@MAEXPB_WHKK_N11@Z 004801ad f i RealBuffer.obj
 0001:0007f3c4       ?TextHeight@CRealBuffer@@QBEHXZ 004803c4 f   RealBuffer.obj
 0001:0007f3dd       ?TextWidth@CRealBuffer@@QBEHXZ 004803dd f   RealBuffer.obj
 0001:0007f3f6       ?Transact@?$MPipe@UCESERVER_REQ_HDR@@U1@@@QAEHPBUCESERVER_REQ_HDR@@KPAPBU2@@Z 004803f6 f i RealBuffer.obj
 0001:0007f7d1       ?UpdateHyperlink@CRealBuffer@@QAEXXZ 004807d1 f   RealBuffer.obj
 0001:0007f7ef       ?UpdateSelection@CRealBuffer@@QAEXXZ 004807ef f   RealBuffer.obj
 0001:0007f81f       ?isConSelectMode@CRealBuffer@@QAE_NXZ 0048081f f   RealBuffer.obj
 0001:0007f856       ?isConsoleDataChanged@CRealBuffer@@QAE_NXZ 00480856 f   RealBuffer.obj
 0001:0007f864       ?isCursorVisible@CRealBuffer@@QAE_NXZ 00480864 f   RealBuffer.obj
 0001:0007f889       ?isDataValid@CRealBuffer@@IAE_NXZ 00480889 f   RealBuffer.obj
 0001:0007f915       ?isFarMenuOrMacro@CRealBuffer@@QAE_NXZ 00480915 f   RealBuffer.obj
 0001:0007fa65       ?isInitialized@CRealBuffer@@QAE_NXZ 00480a65 f   RealBuffer.obj
 0001:0007fa86       ?isLeftPanel@CRealBuffer@@QAE_NXZ 00480a86 f   RealBuffer.obj
 0001:0007fa8a       ?isMouseClickExtension@CRealBuffer@@QAE_NXZ 00480a8a f   RealBuffer.obj
 0001:0007facc       ?isMouseInsideSelection@CRealBuffer@@QAE_NHH@Z 00480acc f   RealBuffer.obj
 0001:0007fba3       ?isMouseSelectionPresent@CRealBuffer@@QAE_NXZ 00480ba3 f   RealBuffer.obj
 0001:0007fbb6       ?isPaused@CRealBuffer@@QAE_NXZ 00480bb6 f   RealBuffer.obj
 0001:0007fbc6       ?isRightPanel@CRealBuffer@@QAE_NXZ 00480bc6 f   RealBuffer.obj
 0001:0007fbca       ?isScroll@CRealBuffer@@QAE_NW4RealBufferScroll@@@Z 00480bca f   RealBuffer.obj
 0001:0007fbd3       ?isSelectionAllowed@CRealBuffer@@QAE_NXZ 00480bd3 f   RealBuffer.obj
 0001:0007fd32       ?isSelectionPresent@CRealBuffer@@QAE_NXZ 00480d32 f   RealBuffer.obj
 0001:0007fd44       ?isStreamSelection@CRealBuffer@@QAE_NXZ 00480d44 f   RealBuffer.obj
 0001:0007fd57       ??$SafeDelete@UTermX@@@@YAXAAPAUTermX@@@Z 00480d57 f i RealConsole.obj
 0001:0007fd86       ??$SafeDelete@VCProcessData@@@@YAXAAPAVCProcessData@@@Z 00480d86 f i RealConsole.obj
 0001:0007fdc6       ??$SafeDelete@VCPushInfo@@@@YAXAAPAVCPushInfo@@@Z 00480dc6 f i ConEmu.obj
 0001:0007fdc6       ??$SafeDelete@VCRConFiles@@@@YAXAAPAVCRConFiles@@@Z 00480dc6 f i RealConsole.obj
 0001:0007fe03       ??$SafeDelete@VCTab@@@@YAXAAPAVCTab@@@Z 00480e03 f i RealConsole.obj
 0001:0007fe40       ??$wcscat_c@$0EGA@@@YAHAAY0EGA@_WPB_W@Z 00480e40 f i RealConsole.obj
 0001:0007fe55       ??$wcscat_c@$0EMA@@@YAHAAY0EMA@_WPB_W@Z 00480e55 f i RealConsole.obj
 0001:0007fe6a       ??$wcscpy_c@$0EAA@@@YAHAAY0EAA@_WPB_W@Z 00480e6a f i RealConsole.obj
 0001:0007fe7f       ??$wcscpy_c@$0EAB@@@YAHAAY0EAB@_WPB_W@Z 00480e7f f i RealConsole.obj
 0001:0007fe94       ??$wcscpy_c@$0EGA@@@YAHAAY0EGA@_WPB_W@Z 00480e94 f i RealConsole.obj
 0001:0007fea9       ??$wcscpy_c@$0EMA@@@YAHAAY0EMA@_WPB_W@Z 00480ea9 f i RealConsole.obj
 0001:0007febe       ??$wcscpy_c@$0IAAA@@@YAHAAY0IAAA@_WPB_W@Z 00480ebe f i RealConsole.obj
 0001:0007fed3       ??$xf_interlocked_new@UTermX@@@@YAPAUTermX@@AAPAU0@$$QAPAU0@PBDH@Z 00480ed3 f i RealConsole.obj
 0001:0007ff19       ??0?$CRefGuard@VCConHostSearch@CRealConsole@@@@QAE@PAVCConHostSearch@CRealConsole@@@Z 00480f19 f i RealConsole.obj
 0001:0007ff43       ??0?$CRefGuard@VCConHostSearch@CRealConsole@@@@QAE@XZ 00480f43 f i RealConsole.obj
 0001:0007ff5d       ??0?$MPipe@UCESERVER_REQ_HDR@@U1@@@QAE@XZ 00480f5d f i RealConsole.obj
 0001:00080039       ??0CConHostSearch@CRealConsole@@QAE@XZ 00481039 f   RealConsole.obj
 0001:00080094       ??0CRealConsole@@QAE@PAVCVirtualConsole@@PAVCConEmuMain@@@Z 00481094 f   RealConsole.obj
 0001:000801ec       ??1?$CRefGuard@VCConHostSearch@CRealConsole@@@@UAE@XZ 004811ec f i RealConsole.obj
 0001:00080237       ??1?$MPipe@UCESERVER_REQ_HDR@@U1@@@UAE@XZ 00481237 f i RealConsole.obj
 0001:00080242       ??1CConHostSearch@CRealConsole@@UAE@XZ 00481242 f i RealConsole.obj
 0001:00080292       ??1CRealConsole@@QAE@XZ    00481292 f   RealConsole.obj
 0001:000806b3       ??1CStartEnvTitle@@UAE@XZ  004816b3 f i RealConsole.obj
 0001:000806ba       ??1_TabsInfo@CRealConsole@@QAE@XZ 004816ba f i RealConsole.obj
 0001:00080705       ??_E?$CRefGuard@VCConHostSearch@CRealConsole@@@@UAEPAXI@Z 00481705 f i RealConsole.obj
 0001:00080705       ??_G?$CRefGuard@VCConHostSearch@CRealConsole@@@@UAEPAXI@Z 00481705 f i RealConsole.obj
 0001:00080727       ??_E?$MPipe@UCESERVER_REQ_HDR@@U1@@@UAEPAXI@Z 00481727 f i RealConsole.obj
 0001:00080727       ??_G?$MPipe@UCESERVER_REQ_HDR@@U1@@@UAEPAXI@Z 00481727 f i RealConsole.obj
 0001:00080752       ??_ECConHostSearch@CRealConsole@@UAEPAXI@Z 00481752 f i RealConsole.obj
 0001:00080752       ??_GCConHostSearch@CRealConsole@@UAEPAXI@Z 00481752 f i RealConsole.obj
 0001:00080774       ??_ECStartEnvBase@@UAEPAXI@Z 00481774 f i RealConsole.obj
 0001:00080774       ??_GCStartEnvBase@@UAEPAXI@Z 00481774 f i RealConsole.obj
 0001:00080797       ?ActivateFarWindow@CRealConsole@@QAE_NH@Z 00481797 f   RealConsole.obj
 0001:000809fd       ?AddIndicatorsCtrlState@CRealConsole@@QAEXAAK@Z 004819fd f   RealConsole.obj
 0001:00080a3b       ?AddModifiersCtrlState@CRealConsole@@QAEXAAK@Z 00481a3b f   RealConsole.obj
 0001:00080a9e       ?AdminDuplicate@CRealConsole@@QAEXXZ 00481a9e f   RealConsole.obj
 0001:00080ab0       ?AllocateBlock@?$MMap@PAUHWND__@@PAVCVirtualConsole@@$0A@@@IAEPAUMapItems@1@XZ 00481ab0 f i ConEmuApp.obj
 0001:00080ab0       ?AllocateBlock@?$MMap@KH$0A@@@IAEPAUMapItems@1@XZ 00481ab0 f i RealConsole.obj
 0001:00080ab0       ?AllocateBlock@?$MMap@PAUHWND__@@PAVCFindPanel@@$0A@@@IAEPAUMapItems@1@XZ 00481ab0 f i FindPanel.obj
 0001:00080ab0       ?AllocateBlock@?$MMap@PAUHWND__@@PAVCDynDialog@@$0A@@@IAEPAUMapItems@1@XZ 00481ab0 f i DynDialog.obj
 0001:00080ab0       ?AllocateBlock@?$MMap@IPBD$0A@@@IAEPAUMapItems@1@XZ 00481ab0 f i ConEmu.obj
 0001:00080ab0       ?AllocateBlock@?$MMap@PAUHWND__@@P6GJPAU1@IIJ@Z$0A@@@IAEPAUMapItems@1@XZ 00481ab0 f i SetDlgColors.obj
 0001:00080ab0       ?AllocateBlock@?$MMap@PAVCVConGroup@@PAVCVirtualConsole@@$0A@@@IAEPAUMapItems@1@XZ 00481ab0 f i TabBar.obj
 0001:00080ab0       ?AllocateBlock@?$MMap@HPAV?$MArray@UDlgItem@CDpiForDialog@@@@$0A@@@IAEPAUMapItems@1@XZ 00481ab0 f i DpiAware.obj
 0001:00080ae3       ?AttachConemuC@CRealConsole@@QAE_NPAUHWND__@@KPBUCESERVER_REQ_STARTSTOP@@AAUCESERVER_REQ_SRVSTARTSTOPRET@@@Z 00481ae3 f   RealConsole.obj
 0001:00080ced       ?AutoCopyTimer@CRealConsole@@QAEXXZ 00481ced f   RealConsole.obj
 0001:00080d3b       ?BufferToScreen@CRealConsole@@QAE?AU_COORD@@U2@_N1@Z 00481d3b f   RealConsole.obj
 0001:00080d6a       ?CanActivateFarWindow@CRealConsole@@QAEKH@Z 00481d6a f   RealConsole.obj
 0001:00080ef2       ?CanCloseTab@CRealConsole@@QAE_N_N@Z 00481ef2 f   RealConsole.obj
 0001:00080f0c       ?CanCutChildFrame@CRealConsole@@SA_NPB_W@Z 00481f0c f   RealConsole.obj
 0001:00080f46       ?ChangeAffinityPriority@CRealConsole@@QAE_NPB_W0@Z 00481f46 f   RealConsole.obj
 0001:00081135       ?ChangeBufferHeightMode@CRealConsole@@QAEX_N@Z 00482135 f   RealConsole.obj
 0001:0008114c       ?ChangePromptPosition@CRealConsole@@AAE_NPBUAppSettings@@U_COORD@@@Z 0048214c f   RealConsole.obj
 0001:00081298       ?ChangeSelectionByKey@CRealConsole@@QAEXI_N0@Z 00482298 f   RealConsole.obj
 0001:000812a7       ?CheckFarStates@CRealConsole@@AAEXXZ 004822a7 f   RealConsole.obj
 0001:00081535       ?CheckPanelTitle@CRealConsole@@AAEXXZ 00482535 f   RealConsole.obj
 0001:000815b6       ?CheckProgressInTitle@CRealConsole@@IAEFXZ 004825b6 f   RealConsole.obj
 0001:00081789       ?CheckVConRConPointer@CRealConsole@@AAEX_N@Z 00482789 f   RealConsole.obj
 0001:000817f7       ?ChildSystemMenu@CRealConsole@@QAEXXZ 004827f7 f   RealConsole.obj
 0001:00081891       ?CloseColorMapping@CRealConsole@@AAEXXZ 00482891 f   RealConsole.obj
 0001:000818bc       ?CloseConsole@CRealConsole@@QAEX_N00@Z 004828bc f   RealConsole.obj
 0001:00081a6b       ?CloseConsoleWindow@CRealConsole@@QAEX_N@Z 00482a6b f   RealConsole.obj
 0001:00081ad6       ?CloseFarMapData@CRealConsole@@AAEXPAVMSectionLock@@@Z 00482ad6 f   RealConsole.obj
 0001:00081b38       ?CloseLogFiles@CRealConsole@@AAEXXZ 00482b38 f   RealConsole.obj
 0001:00081b46       ?CloseMapHeader@CRealConsole@@AAEXXZ 00482b46 f   RealConsole.obj
 0001:00081ba7       ?ClosePtr@?$MFileMapping@UConEmuGuiMapping@@@@QAEXXZ 00482ba7 f i ConEmu.obj
 0001:00081ba7       ?ClosePtr@?$MFileMapping@UCESERVER_CONSOLE_APP_MAPPING@@@@QAEXXZ 00482ba7 f i RealConsole.obj
 0001:00081ba7       ?ClosePtr@?$MFileMapping@UAnnotationHeader@@@@QAEXXZ 00482ba7 f i RealConsole.obj
 0001:00081ba7       ?ClosePtr@?$MFileMapping@Utag_DetectedDialog@@@@QAEXXZ 00482ba7 f i VirtualConsole.obj
 0001:00081ba7       ?ClosePtr@?$MFileMapping@UCESERVER_CONSAVE_MAPHDR@@@@QAEXXZ 00482ba7 f i RealBuffer.obj
 0001:00081ba7       ?ClosePtr@?$MFileMapping@UCESERVER_CONSOLE_MAPPING_HDR@@@@QAEXXZ 00482ba7 f i RealConsole.obj
 0001:00081ba7       ?ClosePtr@?$MFileMapping@UCESERVER_CONSAVE_MAP@@@@QAEXXZ 00482ba7 f i RealBuffer.obj
 0001:00081ba7       ?ClosePtr@?$MFileMapping@$$CBUCEFAR_INFO_MAPPING@@@@QAEXXZ 00482ba7 f i RealConsole.obj
 0001:00081ba7       ?ClosePtr@?$MFileMapping@UPanelViewSetMapping@@@@QAEXXZ 00482ba7 f i OptionsClass.obj
 0001:00081bbf       ?CloseTab@CRealConsole@@QAEXXZ 00482bbf f   RealConsole.obj
 0001:00081d6c       ?ConHostSearch@CRealConsole@@IAEK_N@Z 00482d6c f   RealConsole.obj
 0001:00081f78       ?ConHostSearchPrepare@CRealConsole@@IAEXXZ 00482f78 f   RealConsole.obj
 0001:00082075       ?ConHostSetPID@CRealConsole@@IAEXK@Z 00483075 f   RealConsole.obj
 0001:000820bb       ?ConWnd@CRealConsole@@QAEPAUHWND__@@XZ 004830bb f   RealConsole.obj
 0001:000820c6       ?Construct@CRealConsole@@QAE_NPAVCVirtualConsole@@PAURConStartArgsEx@@@Z 004830c6 f   RealConsole.obj
 0001:000827c3       ?CoordInPanel@CRealConsole@@QAEHU_COORD@@_N@Z 004837c3 f   RealConsole.obj
 0001:0008285d       ?CorrectGuiChildRect@CRealConsole@@SAXKKAAUtagRECT@@PB_W@Z 0048385d f   RealConsole.obj
 0001:0008295e       ?CreateColorMapping@CRealConsole@@AAEXXZ 0048395e f   RealConsole.obj
 0001:00082a77       ?CreateCommandLine@CRealConsole@@QAEPA_W_N@Z 00483a77 f   RealConsole.obj
 0001:00082b6b       ?CreateLogFiles@CRealConsole@@AAEXXZ 00483b6b f   RealConsole.obj
 0001:00082c9c       ?CreateOrRunAs@CRealConsole@@KA_NPAV1@AAURConStartArgsEx@@PA_WAAPB_WAAU_STARTUPINFOW@@AAU_PROCESS_INFORMATION@@AAPAU_SHELLEXECUTEINFOW@@AAK_N@Z 00483c9c f   RealConsole.obj
 0001:00083305       ?CtrlWinAltSpace@CRealConsole@@QAEXXZ 00484305 f   RealConsole.obj
 0001:0008334f       ?DeleteWordKeyPress@CRealConsole@@QAE_N_N@Z 0048434f f   RealConsole.obj
 0001:000834ad       ?DetachRCon@CRealConsole@@QAE_N_N00@Z 004844ad f   RealConsole.obj
 0001:000837da       ?DoEndFindText@CRealConsole@@QAEXXZ 004847da f   RealConsole.obj
 0001:0008384d       ?DoFindText@CRealConsole@@QAEXH@Z 0048484d f   RealConsole.obj
 0001:000838ee       ?DoLockUnlock@CRealConsole@@QAEX_N@Z 004848ee f   RealConsole.obj
 0001:00083ab3       ?DoRenameTab@CRealConsole@@QAEXXZ 00484ab3 f   RealConsole.obj
 0001:00083b0c       ?DoScroll@CRealConsole@@QAEJHI@Z 00484b0c f   RealConsole.obj
 0001:00083d90       ?DoSelectionCopy@CRealConsole@@QAE_NW4CECopyMode@@EPB_W@Z 00484d90 f   RealConsole.obj
 0001:00083ee1       ?DoSelectionStop@CRealConsole@@QAEXXZ 00484ee1 f   RealConsole.obj
 0001:00083eec       ?DumpConsole@CRealConsole@@QAEXPAX@Z 00484eec f   RealConsole.obj
 0001:00083efb       ?DuplicateRoot@CRealConsole@@QAE_N_N0PB_W11@Z 00484efb f   RealConsole.obj
 0001:00084580       ?EvalPromptCtrlBSCount@CRealConsole@@AAEHPBUAppSettings@@@Z 00485580 f   RealConsole.obj
 0001:000846f3       ?EvalPromptLeftRightCount@CRealConsole@@AAEHPBUAppSettings@@U_COORD@@AAG@Z 004856f3 f   RealConsole.obj
 0001:00084abf       ?ExpandSelection@CRealConsole@@QAEXFF@Z 00485abf f   RealConsole.obj
 0001:00084aea       ?FinalRelease@CConHostSearch@CRealConsole@@MAEXXZ 00485aea f   RealConsole.obj
 0001:00084af2       ?FindChildGuiWindowProc@CRealConsole@@CGHPAUHWND__@@J@Z 00485af2 f   RealConsole.obj
 0001:00084b2c       ?FindPicViewFrom@CRealConsole@@AAEPAUHWND__@@PAU2@@Z 00485b2c f   RealConsole.obj
 0001:00084b84       ?GetActivateFarWindowError@CRealConsole@@QAEPB_WPA_WI@Z 00485b84 f   RealConsole.obj
 0001:00084bee       ?GetActiveAppFlags@CRealConsole@@QAEKXZ 00485bee f   RealConsole.obj
 0001:00084c09       ?GetActiveAppSettingsId@CRealConsole@@QAEH_N@Z 00485c09 f   RealConsole.obj
 0001:00084cbf       ?GetActiveBufferType@CRealConsole@@QAE?AW4RealBufferType@@XZ 00485cbf f   RealConsole.obj
 0001:00084cd3       ?GetActiveDlgFlags@CRealConsole@@QAEKXZ 00485cd3 f   RealConsole.obj
 0001:00084cf3       ?GetActivePID@CRealConsole@@QAEKPAUConProcess@@@Z 00485cf3 f   RealConsole.obj
 0001:00084d3f       ?GetActiveProcessInfo@CRealConsole@@QAEPB_WAAUCEStr@@@Z 00485d3f f   RealConsole.obj
 0001:00084f8c       ?GetActiveProcessName@CRealConsole@@QAEPB_WXZ 00485f8c f   RealConsole.obj
 0001:00084fa3       ?GetActiveTab@CRealConsole@@QAEHXZ 00485fa3 f   RealConsole.obj
 0001:00084fb1       ?GetActiveTabType@CRealConsole@@QAEIXZ 00485fb1 f   RealConsole.obj
 0001:00084fb8       ?GetAppCursorKeys@CRealConsole@@QAE_NXZ 00485fb8 f   RealConsole.obj
 0001:00084fd1       ?GetArgs@CRealConsole@@QAEABURConStartArgsEx@@XZ 00485fd1 f   RealConsole.obj
 0001:00084fd8       ?GetBracketedPaste@CRealConsole@@QAE_NXZ 00485fd8 f   RealConsole.obj
 0001:00084feb       ?GetCmd@CRealConsole@@QAEPB_W_N@Z 00485feb f   RealConsole.obj
 0001:00085020       ?GetConStatus@CRealConsole@@QAEPB_WXZ 00486020 f   RealConsole.obj
 0001:00085034       ?GetConsoleCP@CRealConsole@@QAEKXZ 00486034 f   RealConsole.obj
 0001:0008503f       ?GetConsoleCurDir@CRealConsole@@QAEPB_WAAUCEStr@@_N@Z 0048603f f   RealConsole.obj
 0001:00085120       ?GetConsoleCursorInfo@CRealConsole@@QAEXPAU_CONSOLE_CURSOR_INFO@@PAU_COORD@@@Z 00486120 f   RealConsole.obj
 0001:00085157       ?GetConsoleData@CRealConsole@@QAEXPA_WPAUtag_CharAttr@@HHAAUConEmuTextRange@@@Z 00486157 f   RealConsole.obj
 0001:0008517e       ?GetConsoleInfo@CRealConsole@@QAEPB_WPB_WAAUCEStr@@@Z 0048617e f   RealConsole.obj
 0001:000854bd       ?GetConsoleInfo@CRealConsole@@QAEXPAUConsoleInfoArg@@@Z 004864bd f   RealConsole.obj
 0001:000854f6       ?GetConsoleOutputCP@CRealConsole@@QAEKXZ 004864f6 f   RealConsole.obj
 0001:00085501       ?GetConsoleScreenBufferInfo@CRealConsole@@QAEXPAU_CONSOLE_SCREEN_BUFFER_INFO@@@Z 00486501 f   RealConsole.obj
 0001:0008551e       ?GetConsoleStartDir@CRealConsole@@QAEPB_WAAUCEStr@@@Z 0048651e f   RealConsole.obj
 0001:00085557       ?GetCursorShape@CRealConsole@@QAE?AW4TermCursorShapes@@XZ 00486557 f   RealConsole.obj
 0001:00085565       ?GetDefaultAppSettingsId@CRealConsole@@AAEHXZ 00486565 f   RealConsole.obj
 0001:000857e0       ?GetDetector@CRealConsole@@QAEPBVCRgnDetect@@XZ 004867e0 f   RealConsole.obj
 0001:000857f2       ?GetFarInfo@CRealConsole@@QAEPBUCEFAR_INFO_MAPPING@@XZ 004867f2 f   RealConsole.obj
 0001:00085807       ?GetFarPID@CRealConsole@@QAEK_N@Z 00486807 f   RealConsole.obj
 0001:00085842       ?GetFarStatus@CRealConsole@@QAEKXZ 00486842 f   RealConsole.obj
 0001:00085859       ?GetFarVersion@CRealConsole@@QAE_NPAUFarVersion@@@Z 00486859 f   RealConsole.obj
 0001:000858a1       ?GetFileFromConsole@CRealConsole@@QAEPB_WPB_WAAUCEStr@@@Z 004868a1 f   RealConsole.obj
 0001:0008593b       ?GetInteractivePID@CRealConsole@@QAEKXZ 0048693b f   RealConsole.obj
 0001:00085968       ?GetLastTextRangeType@CRealConsole@@QAE?AW4ExpandTextRangeType@@XZ 00486968 f   RealConsole.obj
 0001:00085973       ?GetLoadedPID@CRealConsole@@QAEKXZ 00486973 f   RealConsole.obj
 0001:000859ee       ?GetMaxConSize@CRealConsole@@QAE_NPAU_COORD@@@Z 004869ee f   RealConsole.obj
 0001:00085a0f       ?GetMntPrefix@CRealConsole@@QAEPB_WXZ 00486a0f f   RealConsole.obj
 0001:00085aa7       ?GetModifiedEditors@CRealConsole@@QAEHXZ 00486aa7 f   RealConsole.obj
 0001:00085afe       ?GetMonitorThreadID@CRealConsole@@QAEKXZ 00486afe f   RealConsole.obj
 0001:00085b0c       ?GetPanelDirs@CRealConsole@@QAEXAAUCEStr@@0@Z 00486b0c f   RealConsole.obj
 0001:00085b5c       ?GetPanelRect@CRealConsole@@QAE_N_NPAUtagRECT@@00@Z 00486b5c f   RealConsole.obj
 0001:00085bbe       ?GetPanelTitle@CRealConsole@@QAEPB_WXZ 00486bbe f   RealConsole.obj
 0001:00085be2       ?GetProcessInformation@CRealConsole@@QAE_NKPAUConProcess@@@Z 00486be2 f   RealConsole.obj
 0001:00085c92       ?GetProcesses@CRealConsole@@QAEHPAPAUConProcess@@_N@Z 00486c92 f   RealConsole.obj
 0001:00085ef2       ?GetProgramStatus@CRealConsole@@QAEKXZ 00486ef2 f   RealConsole.obj
 0001:00085f00       ?GetProgress@CRealConsole@@QAEFPAHPA_N@Z 00486f00 f   RealConsole.obj
 0001:00085f8c       ?GetRootProcessIcon@CRealConsole@@QAEHXZ 00486f8c f   RealConsole.obj
 0001:00085fa9       ?GetRootProcessName@CRealConsole@@QAEPB_WXZ 00486fa9 f   RealConsole.obj
 0001:00085fbc       ?GetRunTime@CRealConsole@@AAEKXZ 00486fbc f   RealConsole.obj
 0001:00085fe4       ?GetRunningPID@CRealConsole@@QAEKXZ 00486fe4 f   RealConsole.obj
 0001:000860e3       ?GetServerPID@CRealConsole@@QAEK_N@Z 004870e3 f   RealConsole.obj
 0001:00086108       ?GetStartTime@CRealConsole@@QAEXAAU_SYSTEMTIME@@@Z 00487108 f   RealConsole.obj
 0001:0008612c       ?GetStartupDir@CRealConsole@@QAEPB_WXZ 0048712c f   RealConsole.obj
 0001:00086152       ?GetStatusLineCount@CRealConsole@@QAEHH@Z 00487152 f   RealConsole.obj
 0001:0008617e       ?GetTab@CRealConsole@@QAE_NHAAVCTab@@@Z 0048717e f   RealConsole.obj
 0001:0008624f       ?GetTabCount@CRealConsole@@QAEH_N@Z 0048724f f   RealConsole.obj
 0001:0008628e       ?GetTabTitle@CRealConsole@@QAEPB_WAAVCTab@@@Z 0048728e f   RealConsole.obj
 0001:000862e2       ?GetTermType@CRealConsole@@QAE?AW4TermEmulationType@@XZ 004872e2 f   RealConsole.obj
 0001:00086349       ?GetTerminalPID@CRealConsole@@QAEKXZ 00487349 f   RealConsole.obj
 0001:00086357       ?GetTitle@CRealConsole@@QAEPB_W_N@Z 00487357 f   RealConsole.obj
 0001:00086462       ?GetUserPwd@CRealConsole@@QAE_NPAPB_W0PA_N@Z 00487462 f   RealConsole.obj
 0001:000864a6       ?GetView@CRealConsole@@QAEPAUHWND__@@XZ 004874a6 f   RealConsole.obj
 0001:000864b7       ?GuiAppAttachAllowed@CRealConsole@@QAE_NKPB_WK@Z 004874b7 f   RealConsole.obj
 0001:00086734       ?GuiNotifyChildWindow@CRealConsole@@QAEXXZ 00487734 f   RealConsole.obj
 0001:0008681e       ?GuiWnd@CRealConsole@@QAEPAUHWND__@@XZ 0048781e f   RealConsole.obj
 0001:00086831       ?GuiWndFocusRestore@CRealConsole@@QAEX_N@Z 00487831 f   RealConsole.obj
 0001:00086971       ?GuiWndFocusStore@CRealConsole@@QAEXXZ 00487971 f   RealConsole.obj
 0001:00086a9b       ?GuiWndFocusThread@CRealConsole@@AAEXPAUHWND__@@AAH1AAK@Z 00487a9b f   RealConsole.obj
 0001:00086b18       ?GuiWndPID@CRealConsole@@QAEKXZ 00487b18 f   RealConsole.obj
 0001:00086b29       ?InCreateRoot@CRealConsole@@QAE_NXZ 00487b29 f   RealConsole.obj
 0001:00086b42       ?InRecreate@CRealConsole@@QAE_NXZ 00487b42 f   RealConsole.obj
 0001:00086b55       ?InScroll@CRealConsole@@QAE_NXZ 00487b55 f   RealConsole.obj
 0001:00086b79       ?InitAltServer@CRealConsole@@IAE_NK@Z 00487b79 f   RealConsole.obj
 0001:00086c7c       ?InitName@?$MFileMapping@UPanelViewSetMapping@@@@QAEPB_WPB_WKK@Z 00487c7c f i OptionsClass.obj
 0001:00086c7c       ?InitName@?$MFileMapping@UCESERVER_CONSOLE_APP_MAPPING@@@@QAEPB_WPB_WKK@Z 00487c7c f i RealConsole.obj
 0001:00086c7c       ?InitName@?$MFileMapping@UCESERVER_CONSAVE_MAPHDR@@@@QAEPB_WPB_WKK@Z 00487c7c f i RealBuffer.obj
 0001:00086c7c       ?InitName@?$MFileMapping@UAnnotationHeader@@@@QAEPB_WPB_WKK@Z 00487c7c f i RealConsole.obj
 0001:00086c7c       ?InitName@?$MFileMapping@UCESERVER_CONSOLE_MAPPING_HDR@@@@QAEPB_WPB_WKK@Z 00487c7c f i RealConsole.obj
 0001:00086c7c       ?InitName@?$MFileMapping@UCESERVER_CONSAVE_MAP@@@@QAEPB_WPB_WKK@Z 00487c7c f i RealBuffer.obj
 0001:00086c7c       ?InitName@?$MFileMapping@$$CBUCEFAR_INFO_MAPPING@@@@QAEPB_WPB_WKK@Z 00487c7c f i RealConsole.obj
 0001:00086c7c       ?InitName@?$MFileMapping@UConEmuGuiMapping@@@@QAEPB_WPB_WKK@Z 00487c7c f i ConEmu.obj
 0001:00086c7c       ?InitName@?$MFileMapping@Utag_DetectedDialog@@@@QAEPB_WPB_WKK@Z 00487c7c f i VirtualConsole.obj
 0001:00086cad       ?InitName@?$MPipe@UCESERVER_REQ_HDR@@U1@@@QAEXPB_W00K@Z 00487cad f i RealConsole.obj
 0001:00086cf4       ?InitNames@CRealConsole@@IAEXXZ 00487cf4 f   RealConsole.obj
 0001:00086d91       ?InitiateDetach@CRealConsole@@AAEKXZ 00487d91 f   RealConsole.obj
 0001:00086e34       ?InternalOpenCreate@?$MFileMapping@$$CBUCEFAR_INFO_MAPPING@@@@IAEPBUCEFAR_INFO_MAPPING@@HHH@Z 00487e34 f i RealConsole.obj
 0001:00086f4f       ?InternalOpenCreate@?$MFileMapping@UAnnotationHeader@@@@IAEPAUAnnotationHeader@@HHH@Z 00487f4f f i RealConsole.obj
 0001:00087068       ?InternalOpenCreate@?$MFileMapping@UCESERVER_CONSOLE_APP_MAPPING@@@@IAEPAUCESERVER_CONSOLE_APP_MAPPING@@HHH@Z 00488068 f i RealConsole.obj
 0001:00087183       ?InternalOpenCreate@?$MFileMapping@UCESERVER_CONSOLE_MAPPING_HDR@@@@IAEPAUCESERVER_CONSOLE_MAPPING_HDR@@HHH@Z 00488183 f i RealConsole.obj
 0001:0008729e       ?IsConsoleDataChanged@CRealConsole@@QAE_NXZ 0048829e f   RealConsole.obj
 0001:000872c0       ?IsFarHyperlinkAllowed@CRealConsole@@QAE_N_N@Z 004882c0 f   RealConsole.obj
 0001:00087366       ?IsFarLua@CRealConsole@@QAE_NXZ 00488366 f   RealConsole.obj
 0001:00087389       ?IsPromptActionAllowed@CRealConsole@@AAE_N_NPBUAppSettings@@@Z 00488389 f   RealConsole.obj
 0001:00087404       ?IsSwitchFarWindowAllowed@CRealConsole@@QAE_NXZ 00488404 f   RealConsole.obj
 0001:00087441       ?LoadAlternativeConsole@CRealConsole@@AAE_NW4LoadAltMode@@@Z 00488441 f   RealConsole.obj
 0001:000874c8       ?LoadDumpConsole@CRealConsole@@QAE_NPB_W@Z 004884c8 f   RealConsole.obj
 0001:0008754f       ?LogInput@CRealConsole@@AAEXPAU_INPUT_RECORD@@@Z 0048854f f   RealConsole.obj
 0001:000878c5       ?LogInput@CRealConsole@@QAEXIIJPB_W@Z 004888c5 f   RealConsole.obj
 0001:00087bc6       ?LogString@CRealConsole@@QAEXPBD@Z 00488bc6 f   RealConsole.obj
 0001:00087c3e       ?LogString@CRealConsole@@QAEXPB_W@Z 00488c3e f   RealConsole.obj
 0001:00087cb4       ?MonitorAssertTrap@CRealConsole@@QAEXXZ 00488cb4 f   RealConsole.obj
 0001:00087cc0       ?MonitorThread@CRealConsole@@KGKPAX@Z 00488cc0 f   RealConsole.obj
 0001:00087ec5       ?MonitorThreadWorker@CRealConsole@@IAEK_NAA_N@Z 00488ec5 f   RealConsole.obj
 0001:00088ada       ?NeedRefreshRootProcessIcon@CRealConsole@@QAEXXZ 00489ada f   RealConsole.obj
 0001:00088ae6       ?OnActivate@CRealConsole@@QAEXHH@Z 00489ae6 f   RealConsole.obj
 0001:00088d0c       ?OnBufferHeight@CRealConsole@@QAEXXZ 00489d0c f   RealConsole.obj
 0001:00088d17       ?OnConsoleDataChanged@CRealConsole@@QAEXXZ 00489d17 f   RealConsole.obj
 0001:00088dab       ?OnConsoleKeyboardLayout@CRealConsole@@QAEXK@Z 00489dab f   RealConsole.obj
 0001:00088dca       ?OnConsoleLangChange@CRealConsole@@QAEXK@Z 00489dca f   RealConsole.obj
 0001:00088e8a       ?OnDeactivate@CRealConsole@@QAEXH@Z 00489e8a f   RealConsole.obj
 0001:00088eef       ?OnDosAppStartStop@CRealConsole@@QAEXW4StartStopType@@K@Z 00489eef f   RealConsole.obj
 0001:00088f71       ?OnFocus@CRealConsole@@QAEX_N@Z 00489f71 f   RealConsole.obj
 0001:00088fef       ?OnGuiFocused@CRealConsole@@QAEX_N0@Z 00489fef f   RealConsole.obj
 0001:0008909e       ?OnKeyboard@CRealConsole@@QAEXPAUHWND__@@IIJPB_WPBUtagMSG@@@Z 0048a09e f   RealConsole.obj
 0001:0008918b       ?OnKeyboardBackCall@CRealConsole@@CA_NPAVCVirtualConsole@@J@Z 0048a18b f   RealConsole.obj
 0001:000891b5       ?OnKeyboardIme@CRealConsole@@QAEXPAUHWND__@@IIJ@Z 0048a1b5 f   RealConsole.obj
 0001:0008936f       ?OnKeyboardInt@CRealConsole@@AAEXPAUHWND__@@IIJPB_WPBUtagMSG@@@Z 0048a36f f   RealConsole.obj
 0001:000896a4       ?OnKeysSending@CRealConsole@@QAEXXZ 0048a6a4 f   RealConsole.obj
 0001:000896b7       ?OnMouse@CRealConsole@@QAE_NIIHH_N@Z 0048a6b7 f   RealConsole.obj
 0001:00089960       ?OnMouseSelection@CRealConsole@@QAE_NIIHH@Z 0048a960 f   RealConsole.obj
 0001:000899a6       ?OnScroll@CRealConsole@@QAEXIIHH_N@Z 0048a9a6 f   RealConsole.obj
 0001:00089a2d       ?OnSelectionChanged@CRealConsole@@QAEXXZ 0048aa2d f   RealConsole.obj
 0001:00089b79       ?OnServerClosing@CRealConsole@@QAEXKPAH@Z 0048ab79 f   RealConsole.obj
 0001:00089cb5       ?OnServerStarted@CRealConsole@@AAEXKPAXK_N@Z 0048acb5 f   RealConsole.obj
 0001:00089d29       ?OnServerStarted@CRealConsole@@QAEPAUHWND__@@QAU2@KKAAUCESERVER_REQ_SRVSTARTSTOPRET@@@Z 0048ad29 f   RealConsole.obj
 0001:00089dac       ?OnStartProcessAllowed@CRealConsole@@QAEXXZ 0048adac f   RealConsole.obj
 0001:00089e59       ?OnStartedSuccess@CRealConsole@@AAEXXZ 0048ae59 f   RealConsole.obj
 0001:00089e6e       ?OnTimerCheck@CRealConsole@@QAEXXZ 0048ae6e f   RealConsole.obj
 0001:00089f47       ?OnTitleChanged@CRealConsole@@AAEXXZ 0048af47 f   RealConsole.obj
 0001:0008a28b       ?OpenConsoleEventPipe@CRealConsole@@QAE_NXZ 0048b28b f   RealConsole.obj
 0001:0008a415       ?OpenFarMapData@CRealConsole@@AAE_NXZ 0048b415 f   RealConsole.obj
 0001:0008a5c0       ?OpenMapHeader@CRealConsole@@AAE_N_N@Z 0048b5c0 f   RealConsole.obj
 0001:0008a6e5       ?Owner@CRealConsole@@QAEPAVCConEmuMain@@XZ 0048b6e5 f   RealConsole.obj
 0001:0008a6f0       ?Paste@CRealConsole@@QAEXW4CEPasteMode@@PB_W_NE@Z 0048b6f0 f   RealConsole.obj
 0001:0008aba2       ?PasteExplorerPath@CRealConsole@@QAEX_N0@Z 0048bba2 f   RealConsole.obj
 0001:0008ac1e       ?Pause@CRealConsole@@QAE?AW4CEPauseCmd@@W42@@Z 0048bc1e f   RealConsole.obj
 0001:0008ace9       ?PortableStarted@CRealConsole@@QAEXPAUCESERVER_REQ_PORTABLESTARTED@@@Z 0048bce9 f   RealConsole.obj
 0001:0008adad       ?PostCommand@CRealConsole@@AAEXKKPBX@Z 0048bdad f   RealConsole.obj
 0001:0008ae9b       ?PostConsoleEvent@CRealConsole@@QAE_NPAU_INPUT_RECORD@@_N@Z 0048be9b f   RealConsole.obj
 0001:0008b099       ?PostConsoleEventPipe@CRealConsole@@QAE_NPAUMSG64@@I@Z 0048c099 f   RealConsole.obj
 0001:0008b194       ?PostConsoleMessage@CRealConsole@@QAE_NPAUHWND__@@IIJ@Z 0048c194 f   RealConsole.obj
 0001:0008b2c7       ?PostCtrlBreakEvent@CRealConsole@@QAE_NKK@Z 0048c2c7 f   RealConsole.obj
 0001:0008b372       ?PostDragCopy@CRealConsole@@QAEX_N@Z 0048c372 f   RealConsole.obj
 0001:0008b45a       ?PostKeyPress@CRealConsole@@QAE_NGK_WH@Z 0048c45a f   RealConsole.obj
 0001:0008b52d       ?PostKeyUp@CRealConsole@@QAE_NGK_WH@Z 0048c52d f   RealConsole.obj
 0001:0008b5e7       ?PostLeftClickSync@CRealConsole@@QAE_NU_COORD@@@Z 0048c5e7 f   RealConsole.obj
 0001:0008b6f9       ?PostMacro@CRealConsole@@QAEXPB_W_N@Z 0048c6f9 f   RealConsole.obj
 0001:0008bb65       ?PostMacroThread@CRealConsole@@CGKPAX@Z 0048cb65 f   RealConsole.obj
 0001:0008bc65       ?PostMouseEvent@CRealConsole@@AAEXIIU_COORD@@_N@Z 0048cc65 f   RealConsole.obj
 0001:0008c226       ?PostPromptCmd@CRealConsole@@QAE_N_NPB_W@Z 0048d226 f   RealConsole.obj
 0001:0008c5bf       ?PostString@CRealConsole@@IAE_NPA_WI@Z 0048d5bf f   RealConsole.obj
 0001:0008ca07       ?PostponeMacro@CRealConsole@@QAEPA_W$$QAPA_W@Z 0048da07 f   RealConsole.obj
 0001:0008ca68       ?PreCreate@CRealConsole@@AAE_NPAURConStartArgsEx@@@Z 0048da68 f   RealConsole.obj
 0001:0008cca8       ?PrepareConsoleRegistryKey@CRealConsole@@AAEPAUHKEY__@@PB_W@Z 0048dca8 f   RealConsole.obj
 0001:0008cf90       ?PrepareDefaultColors@CRealConsole@@AAEXAAE000_NPAUHKEY__@@@Z 0048df90 f   RealConsole.obj
 0001:0008d21f       ?PrepareDefaultColors@CRealConsole@@QAEXXZ 0048e21f f   RealConsole.obj
 0001:0008d240       ?PrepareNewConArgs@CRealConsole@@AAEXXZ 0048e240 f   RealConsole.obj
 0001:0008d26c       ?PrepareOutputFile@CRealConsole@@AAE_N_NPA_W@Z 0048e26c f   RealConsole.obj
 0001:0008d676       ?PrepareOutputFileCreate@CRealConsole@@AAEPAXPA_W@Z 0048e676 f   RealConsole.obj
 0001:0008d6f7       ?ProcessCheckName@CRealConsole@@AAEXAAUConProcess@@PA_W@Z 0048e6f7 f   RealConsole.obj
 0001:0008d859       ?ProcessKeyboard@CRealConsole@@QAEXIIJPB_W@Z 0048e859 f   RealConsole.obj
 0001:0008d99a       ?ProcessPostponedMacro@CRealConsole@@AAEXXZ 0048e99a f   RealConsole.obj
 0001:0008da16       ?ProcessSelectionHotKey@CRealConsole@@QAEPBUConEmuHotKey@@ABUConEmuChord@@_NPB_W@Z 0048ea16 f   RealConsole.obj
 0001:0008da42       ?ProcessUpdate@CRealConsole@@AAE_NPBKI@Z 0048ea42 f   RealConsole.obj
 0001:0008e10b       ?ProcessUpdateFlags@CRealConsole@@AAE_N_N@Z 0048f10b f   RealConsole.obj
 0001:0008e4ba       ?ProcessXtermSubst@CRealConsole@@QAE_NABU_INPUT_RECORD@@@Z 0048f4ba f   RealConsole.obj
 0001:0008e610       ?QueryCellInfo@CRealConsole@@QAEXPA_WH@Z 0048f610 f   RealConsole.obj
 0001:0008e642       ?QueryPromptStart@CRealConsole@@QAE_NPAU_COORD@@@Z 0048f642 f   RealConsole.obj
 0001:0008e694       ?QueryRConModes@CRealConsole@@QAEXPA_WH_N@Z 0048f694 f   RealConsole.obj
 0001:0008e72d       ?QueryStartStopRet@CRealConsole@@QAEXAAUCESERVER_REQ_SRVSTARTSTOPRET@@@Z 0048f72d f   RealConsole.obj
 0001:0008e821       ?QueryTermModes@CRealConsole@@QAEXPA_WH_N@Z 0048f821 f   RealConsole.obj
 0001:0008ea60       ?RecreateProcess@CRealConsole@@QAE_NPAURConStartArgsEx@@@Z 0048fa60 f   RealConsole.obj
 0001:0008ed8c       ?RecreateProcessStart@CRealConsole@@AAE_NXZ 0048fd8c f   RealConsole.obj
 0001:0008ee89       ?RefreshAfterRestore@CRealConsole@@SA_NPAVCVirtualConsole@@J@Z 0048fe89 f   RealConsole.obj
 0001:0008ef25       ?RefreshFarPID@_TabsInfo@CRealConsole@@QAE_NK@Z 0048ff25 f   RealConsole.obj
 0001:0008ef91       ?Release@?$CRefGuard@VCVirtualConsole@@@@UAEXXZ 0048ff91 f i VConGroup.obj
 0001:0008ef91       ?Release@?$CRefGuard@VCConHostSearch@CRealConsole@@@@UAEXXZ 0048ff91 f i RealConsole.obj
 0001:0008ef91       ?Release@?$CRefGuard@VCVConGroup@@@@UAEXXZ 0048ff91 f i VConGroup.obj
 0001:0008ef91       ?Release@?$CRefGuard@VCRConData@@@@UAEXXZ 0048ff91 f i RealBuffer.obj
 0001:0008efa6       ?ReleaseBuffer@?$MPipe@UCESERVER_REQ_HDR@@U1@@@QAEXXZ 0048ffa6 f i RealConsole.obj
 0001:0008efda       ?ReloadFarWorkDir@CRealConsole@@IAE_NXZ 0048ffda f   RealConsole.obj
 0001:0008f076       ?RenameTab@CRealConsole@@QAEXPB_W@Z 00490076 f   RealConsole.obj
 0001:0008f12c       ?RenameWindow@CRealConsole@@QAEXPB_W@Z 0049012c f   RealConsole.obj
 0001:0008f1ec       ?ReopenServerPipes@CRealConsole@@IAE_NXZ 004901ec f   RealConsole.obj
 0001:0008f439       ?RepositionDialogWithTab@CRealConsole@@IAEXPAUHWND__@@@Z 00490439 f   RealConsole.obj
 0001:0008f507       ?RequestStartup@CRealConsole@@AAEX_N@Z 00490507 f   RealConsole.obj
 0001:0008f54c       ?Reset@?$MMap@PAUHWND__@@P6GJPAU1@IIJ@Z$0A@@@QAEXXZ 0049054c f i SetDlgColors.obj
 0001:0008f54c       ?Reset@?$MMap@KH$0A@@@QAEXXZ 0049054c f i RealConsole.obj
 0001:0008f56b       ?ResetActiveAppSettingsId@CRealConsole@@QAEXXZ 0049056b f   RealConsole.obj
 0001:0008f573       ?ResetTopLeft@CRealConsole@@QAEXXZ 00490573 f   RealConsole.obj
 0001:0008f586       ?ResetVarsOnStart@CRealConsole@@AAEXXZ 00490586 f   RealConsole.obj
 0001:0008f6b0       ?ScreenToBuffer@CRealConsole@@QAE?AU_COORD@@U2@@Z 004906b0 f   RealConsole.obj
 0001:0008f6d9       ?SetActiveBuffer@CRealConsole@@AAE_NPAVCRealBuffer@@_N@Z 004906d9 f   RealConsole.obj
 0001:0008f761       ?SetActiveBuffer@CRealConsole@@QAE_NW4RealBufferType@@@Z 00490761 f   RealConsole.obj
 0001:0008f7ad       ?SetActivePID@CRealConsole@@AAEXPBUConProcess@@@Z 004907ad f   RealConsole.obj
 0001:0008f825       ?SetAltSrvPID@CRealConsole@@IAEXK@Z 00490825 f   RealConsole.obj
 0001:0008f88c       ?SetAppDistinctPID@CRealConsole@@AAEXPBUConProcess@@@Z 0049088c f   RealConsole.obj
 0001:0008f967       ?SetConStatus@CRealConsole@@QAEXPB_WK@Z 00490967 f   RealConsole.obj
 0001:0008face       ?SetConsoleSize@CRealConsole@@QAE_NFFGK@Z 00490ace f   RealConsole.obj
 0001:0008faf9       ?SetCursorShape@CRealConsole@@QAEXW4TermCursorShapes@@@Z 00490af9 f   RealConsole.obj
 0001:0008fb29       ?SetFarPID@CRealConsole@@QAEXK@Z 00490b29 f   RealConsole.obj
 0001:0008fc13       ?SetFarPluginPID@CRealConsole@@QAEXK@Z 00490c13 f   RealConsole.obj
 0001:0008fcc1       ?SetFullScreen@CRealConsole@@QAE_NXZ 00490cc1 f   RealConsole.obj
 0001:0008fd40       ?SetGuiMode@CRealConsole@@QAEXKPAUHWND__@@KKPB_WKHUtagRECT@@@Z 00490d40 f   RealConsole.obj
 0001:000902a7       ?SetHwnd@CRealConsole@@AAEXPAUHWND__@@_N@Z 004912a7 f   RealConsole.obj
 0001:000903a9       ?SetInCloseConsole@CRealConsole@@IAEX_N@Z 004913a9 f   RealConsole.obj
 0001:000903c1       ?SetInitEnvCommands@CRealConsole@@QAEXAAUCESERVER_REQ_SRVSTARTSTOPRET@@@Z 004913c1 f   RealConsole.obj
 0001:000905b3       ?SetMainSrvPID@CRealConsole@@IAEXKPAX@Z 004915b3 f   RealConsole.obj
 0001:0009069c       ?SetMonitorThreadEvent@CRealConsole@@IAEXXZ 0049169c f   RealConsole.obj
 0001:000906ad       ?SetMountRoot@CRealConsole@@IAEXPAUCESERVER_REQ@@@Z 004916ad f   RealConsole.obj
 0001:00090739       ?SetOtherWindowParent@CRealConsole@@QAEPAUHWND__@@PAU2@0@Z 00491739 f   RealConsole.obj
 0001:00090828       ?SetOtherWindowPos@CRealConsole@@QAE_NPAUHWND__@@0HHHHI@Z 00491828 f   RealConsole.obj
 0001:00090a25       ?SetOtherWindowRgn@CRealConsole@@QAE_NPAUHWND__@@HPAUtagRECT@@_N@Z 00491a25 f   RealConsole.obj
 0001:00090b1f       ?SetPaletteName@CRealConsole@@QAEXPB_W@Z 00491b1f f   RealConsole.obj
 0001:00090b6d       ?SetProgress@CRealConsole@@QAE_NFFPB_W@Z 00491b6d f   RealConsole.obj
 0001:00090c31       ?SetRootProcessName@CRealConsole@@IAEXPB_W@Z 00491c31 f   RealConsole.obj
 0001:00090cc9       ?SetSplitProperties@CRealConsole@@QAEXW4SplitType@RConStartArgs@@II@Z 00491cc9 f   RealConsole.obj
 0001:00090cef       ?SetSwitchActiveServer@CRealConsole@@IAEX_NW4SwitchActiveServerEvt@1@1@Z 00491cef f   RealConsole.obj
 0001:00090d6d       ?SetTabs@CRealConsole@@QAEXPAUConEmuTab@@HK@Z 00491d6d f   RealConsole.obj
 0001:0009118e       ?SetTerminalPID@CRealConsole@@IAEXK@Z 0049218e f   RealConsole.obj
 0001:000911da       ?ShowConsole@CRealConsole@@QAEXH@Z 004921da f   RealConsole.obj
 0001:000912d4       ?ShowConsoleOrGuiClient@CRealConsole@@QAEXH@Z 004922d4 f   RealConsole.obj
 0001:0009130a       ?ShowGuiClientExt@CRealConsole@@QAEXH_N@Z 0049230a f   RealConsole.obj
 0001:00091476       ?ShowGuiClientInt@CRealConsole@@QAEX_N@Z 00492476 f   RealConsole.obj
 0001:000914fd       ?ShowKeyBarHint@CRealConsole@@QAEXG@Z 004924fd f   RealConsole.obj
 0001:00091518       ?ShowOtherWindow@CRealConsole@@QAE_NPAUHWND__@@H_N@Z 00492518 f   RealConsole.obj
 0001:00091616       ?ShowPropertiesDialog@CRealConsole@@QAEXXZ 00492616 f   RealConsole.obj
 0001:000916c6       ?StartDebugger@CRealConsole@@QAE_NW4StartDebugType@@@Z 004926c6 f   RealConsole.obj
 0001:00091afe       ?StartMonitorThread@CRealConsole@@IAE_NXZ 00492afe f   RealConsole.obj
 0001:00091be7       ?StartProcess@CRealConsole@@IAE_NXZ 00492be7 f   RealConsole.obj
 0001:0009265d       ?StartProcessInt@CRealConsole@@AAE_NAAPB_WAAPA_W0_NPAUHWND__@@AAK44EEEEAAU_STARTUPINFOW@@AAU_PROCESS_INFORMATION@@4@Z 0049365d f   RealConsole.obj
 0001:00092dca       ?StartSelection@CRealConsole@@QAEX_NFF0K@Z 00493dca f   RealConsole.obj
 0001:00092def       ?StartStopAppCursorKeys@CRealConsole@@QAEXK_N@Z 00493def f   RealConsole.obj
 0001:00092ee9       ?StartStopBracketedPaste@CRealConsole@@QAEXK_N@Z 00493ee9 f   RealConsole.obj
 0001:00092fa7       ?StartStopTermMode@CRealConsole@@QAE_NW4TermModeCommand@@W4ChangeTermAction@@@Z 00493fa7 f   RealConsole.obj
 0001:0009304b       ?StartStopXMouse@CRealConsole@@QAEXKW4TermMouseMode@@@Z 0049404b f   RealConsole.obj
 0001:000930f8       ?StartStopXTerm@CRealConsole@@QAEXK_N@Z 004940f8 f   RealConsole.obj
 0001:000931d4       ?StopSignal@CRealConsole@@QAEXXZ 004941d4 f   RealConsole.obj
 0001:000932bf       ?StopThread@CRealConsole@@QAEX_N@Z 004942bf f   RealConsole.obj
 0001:000934b5       ?StoreActiveTab@_TabsInfo@CRealConsole@@QAEXHAAVCTab@@@Z 004944b5 f   RealConsole.obj
 0001:00093502       ?StoreCurWorkDir@CRealConsole@@IAEXPAUCESERVER_REQ_STORECURDIR@@@Z 00494502 f   RealConsole.obj
 0001:0009368d       ?StoreGuiChildRect@CRealConsole@@QAEXPAUtagRECT@@@Z 0049468d f   RealConsole.obj
 0001:000936ef       ?SwitchKeyboardLayout@CRealConsole@@QAEXIK@Z 004946ef f   RealConsole.obj
 0001:0009380e       ?SyncConsole2Window@CRealConsole@@QAEX_NPAUtagRECT@@@Z 0049480e f   RealConsole.obj
 0001:000938f8       ?SyncGui2Window@CRealConsole@@QAEXUtagRECT@@@Z 004948f8 f   RealConsole.obj
 0001:00093a28       ?TerminateActiveProcess@CRealConsole@@QAE_N_NK@Z 00494a28 f   RealConsole.obj
 0001:00093b7e       ?TerminateActiveProcessConfirm@CRealConsole@@QAE_NK@Z 00494b7e f   RealConsole.obj
 0001:00093c55       ?TerminateAllButShell@CRealConsole@@QAE_N_N@Z 00494c55 f   RealConsole.obj
 0001:00093eb8       ?TextHeight@CRealConsole@@QAEIXZ 00494eb8 f   RealConsole.obj
 0001:00093ecb       ?TextWidth@CRealConsole@@QAEIXZ 00494ecb f   RealConsole.obj
 0001:00093ee0       ?Unfasten@CRealConsole@@QAEXXZ 00494ee0 f   RealConsole.obj
 0001:00094075       ?UpdateCursorInfo@CRealConsole@@QAEXXZ 00495075 f   RealConsole.obj
 0001:000940cd       ?UpdateFarSettings@CRealConsole@@QAEXKPAUFAR_REQ_FARSETCHANGED@@@Z 004950cd f   RealConsole.obj
 0001:00094214       ?UpdateGuiInfoMapping@CRealConsole@@QAEXPBUConEmuGuiMapping@@@Z 00495214 f   RealConsole.obj
 0001:000942b4       ?UpdateRootInfo@CRealConsole@@IAEXABUCESERVER_ROOT_INFO@@@Z 004952b4 f   RealConsole.obj
 0001:000943bf       ?UpdateScrollInfo@CRealConsole@@QAEXXZ 004953bf f   RealConsole.obj
 0001:000944ba       ?UpdateServerActive@CRealConsole@@QAEX_N@Z 004954ba f   RealConsole.obj
 0001:0009461e       ?UpdateTextColorSettings@CRealConsole@@QAEX_N0PBUAppSettings@@@Z 0049561e f   RealConsole.obj
 0001:000947da       ?VCon@CRealConsole@@QAEPAVCVirtualConsole@@XZ 004957da f   RealConsole.obj
 0001:000947e4       ?Write@CRealConsole@@QAE_NPB_WHPAK@Z 004957e4 f   RealConsole.obj
 0001:000948c6       ?erase@?$MArray@UConProcess@@@@QAEXH@Z 004958c6 f i RealConsole.obj
 0001:0009491f       ?isActive@CRealConsole@@QAE_N_N@Z 0049591f f   RealConsole.obj
 0001:00094938       ?isAdministrator@CRealConsole@@QAE_NXZ 00495938 f   RealConsole.obj
 0001:00094970       ?isAlive@CRealConsole@@QAE_NXZ 00495970 f   RealConsole.obj
 0001:000949ae       ?isAlternative@CRealConsole@@QAE_NXZ 004959ae f   RealConsole.obj
 0001:000949d1       ?isBufferHeight@CRealConsole@@QAE_NXZ 004959d1 f   RealConsole.obj
 0001:000949fd       ?isCloseTabConfirmed@CRealConsole@@QAE_NIPB_W_N@Z 004959fd f   RealConsole.obj
 0001:00094b1d       ?isConSelectMode@CRealConsole@@QAE_NXZ 00495b1d f   RealConsole.obj
 0001:00094b32       ?isConsoleClosing@CRealConsole@@QAE_NXZ 00495b32 f   RealConsole.obj
 0001:00094be5       ?isConsoleReady@CRealConsole@@QAE_NXZ 00495be5 f   RealConsole.obj
 0001:00094c07       ?isDetached@CRealConsole@@QAE_NXZ 00495c07 f   RealConsole.obj
 0001:00094c2b       ?isEditor@CRealConsole@@QAE_NXZ 00495c2b f   RealConsole.obj
 0001:00094c3d       ?isFar@CRealConsole@@QAE_N_N@Z 00495c3d f   RealConsole.obj
 0001:00094c59       ?isFarBufferSupported@CRealConsole@@QAE_NXZ 00495c59 f   RealConsole.obj
 0001:00094c8c       ?isFarInStack@CRealConsole@@QAE_NXZ 00495c8c f   RealConsole.obj
 0001:00094cc3       ?isFarKeyBarShown@CRealConsole@@QAE_NXZ 00495cc3 f   RealConsole.obj
 0001:00094d0d       ?isFarPanelAllowed@CRealConsole@@QAE_NXZ 00495d0d f   RealConsole.obj
 0001:00094e2b       ?isFilePanel@CRealConsole@@QAE_N_N00@Z 00495e2b f   RealConsole.obj
 0001:00094f80       ?isFixAndCenter@CRealConsole@@QAE_NPAU_COORD@@@Z 00495f80 f   RealConsole.obj
 0001:00094fb2       ?isGuiEagerFocus@CRealConsole@@QAE_NXZ 00495fb2 f   RealConsole.obj
 0001:00094fd6       ?isGuiForceConView@CRealConsole@@QAE_NXZ 00495fd6 f   RealConsole.obj
 0001:00094fee       ?isGuiOverCon@CRealConsole@@QAE_NXZ 00495fee f   RealConsole.obj
 0001:00095005       ?isGuiVisible@CRealConsole@@QAE_NXZ 00496005 f   RealConsole.obj
 0001:00095040       ?isHighlighted@CRealConsole@@QAE_NXZ 00496040 f   RealConsole.obj
 0001:00095083       ?isInFocus@CRealConsole@@QAE_NXZ 00496083 f   RealConsole.obj
 0001:000950b3       ?isInternalScroll@CRealConsole@@QAE_NXZ 004960b3 f   RealConsole.obj
 0001:000950f5       ?isLogging@CRealConsole@@QAEII@Z 004960f5 f   RealConsole.obj
 0001:00095117       ?isMouseButtonDown@CRealConsole@@QAE_NXZ 00496117 f   RealConsole.obj
 0001:00095125       ?isMouseSelectionPresent@CRealConsole@@QAE_NXZ 00496125 f   RealConsole.obj
 0001:00095137       ?isNeedCursorDraw@CRealConsole@@QAE_NXZ 00496137 f   RealConsole.obj
 0001:00095176       ?isNtvdm@CRealConsole@@QAE_NXZ 00496176 f   RealConsole.obj
 0001:00095189       ?isPaused@CRealConsole@@QAE_NXZ 00496189 f   RealConsole.obj
 0001:0009519b       ?isPictureView@CRealConsole@@QAEPAUHWND__@@_N@Z 0049619b f   RealConsole.obj
 0001:0009544d       ?isPosixConvertAllowed@CRealConsole@@QAE_NXZ 0049644d f   RealConsole.obj
 0001:0009549f       ?isSelectionPresent@CRealConsole@@QAE_NXZ 0049649f f   RealConsole.obj
 0001:000954b1       ?isSendMouseAllowed@CRealConsole@@QAE_NXZ 004964b1 f   RealConsole.obj
 0001:000954d0       ?isServerAlive@CRealConsole@@QAE_NXZ 004964d0 f   RealConsole.obj
 0001:000954f8       ?isServerAvailable@CRealConsole@@QAE_NXZ 004964f8 f   RealConsole.obj
 0001:00095506       ?isServerClosing@CRealConsole@@QAE_N_N@Z 00496506 f   RealConsole.obj
 0001:00095538       ?isServerCreated@CRealConsole@@QAE_N_N@Z 00496538 f   RealConsole.obj
 0001:0009555d       ?isUnixFS@CRealConsole@@QAE_NXZ 0049655d f   RealConsole.obj
 0001:0009557d       ?isViewer@CRealConsole@@QAE_NXZ 0049657d f   RealConsole.obj
 0001:0009558f       ?isVisible@CRealConsole@@QAE_NXZ 0049658f f   RealConsole.obj
 0001:000955a0       ?logProgress@CRealConsole@@IAEXPB_WHH@Z 004965a0 f   RealConsole.obj
 0001:000955fc       ?priorityProc@CRealConsole@@KGHPAUHWND__@@IIJ@Z 004965fc f   RealConsole.obj
 0001:00095964       ?push_back@?$MArray@UConProcess@@@@QAEHABUConProcess@@@Z 00496964 f i RealConsole.obj
 0001:000959b7       ?push_back@?$MArray@UtagPROCESSENTRY32W@@@@QAEHABUtagPROCESSENTRY32W@@@Z 004969b7 f i RealConsole.obj
 0001:00095a0a       ?renameProc@CRealConsole@@CGHPAUHWND__@@IIJ@Z 00496a0a f   RealConsole.obj
 0001:00095c14       ?setAppProgress@CRealConsole@@IAEXFF@Z 00496c14 f   RealConsole.obj
 0001:00095c5d       ?setConsoleProgress@CRealConsole@@IAEXF@Z 00496c5d f   RealConsole.obj
 0001:00095c8e       ?setGuiWnd@CRealConsole@@AAEXPAUHWND__@@@Z 00496c8e f   RealConsole.obj
 0001:00095ca9       ?setGuiWndPID@CRealConsole@@AAEXPAUHWND__@@KHPB_W@Z 00496ca9 f   RealConsole.obj
 0001:00095d7d       ?setLastConsoleProgress@CRealConsole@@IAEXF_N@Z 00496d7d f   RealConsole.obj
 0001:00095dce       ?setLastShownProgress@CRealConsole@@IAEXF@Z 00496dce f   RealConsole.obj
 0001:00095dff       ?setPreWarningProgress@CRealConsole@@IAEXF@Z 00496dff f   RealConsole.obj
 0001:00095e30       ?setProgress@CRealConsole@@IAEXF@Z 00496e30 f   RealConsole.obj
 0001:00095e83       ??0CRealServer@@QAE@XZ     00496e83 f   RealServer.obj
 0001:00095e93       ??1CRealServer@@QAE@XZ     00496e93 f   RealServer.obj
 0001:00095ecb       ?DelayedWrite@?$PipeServer@UCESERVER_REQ@@@@QAE_NPAXPBXK@Z 00496ecb f i RealServer.obj
 0001:00095ef4       ?Init@CRealServer@@QAEXPAVCRealConsole@@@Z 00496ef4 f   RealServer.obj
 0001:00095f26       ?ServerCommand@CRealServer@@KGHPAXPAUCESERVER_REQ@@AAPAU2@AAK3J@Z 00496f26 f   RealServer.obj
 0001:00096308       ?ServerThreadReady@CRealServer@@KGHPAXJ@Z 00497308 f   RealServer.obj
 0001:00096346       ?Start@CRealServer@@QAE_NXZ 00497346 f   RealServer.obj
 0001:0009640e       ?Stop@CRealServer@@QAEX_N@Z 0049740e f   RealServer.obj
 0001:00096478       ?cmdActivateCon@CRealServer@@IAEPAUCESERVER_REQ@@PAXPAU2@I@Z 00497478 f   RealServer.obj
 0001:000964b9       ?cmdActivateTab@CRealServer@@IAEPAUCESERVER_REQ@@PAXPAU2@I@Z 004974b9 f   RealServer.obj
 0001:00096588       ?cmdExportEnvVarAll@CRealServer@@IAEPAUCESERVER_REQ@@PAXPAU2@I@Z 00497588 f   RealServer.obj
 0001:000965cb       ?cmdFlashWindow@CRealServer@@IAEPAUCESERVER_REQ@@PAXPAU2@I@Z 004975cb f   RealServer.obj
 0001:000965f4       ?cmdGetAllPanels@CRealServer@@IAEPAUCESERVER_REQ@@PAXPAU2@I@Z 004975f4 f   RealServer.obj
 0001:00096699       ?cmdGetAllTabs@CRealServer@@IAEPAUCESERVER_REQ@@PAXPAU2@I@Z 00497699 f   RealServer.obj
 0001:00096726       ?cmdGetOutputFile@CRealServer@@IAEPAUCESERVER_REQ@@PAXPAU2@I@Z 00497726 f   RealServer.obj
 0001:00096777       ?cmdGetTaskCmd@CRealServer@@IAEPAUCESERVER_REQ@@PAXPAU2@I@Z 00497777 f   RealServer.obj
 0001:000968e6       ?cmdGuiMacro@CRealServer@@IAEPAUCESERVER_REQ@@PAXPAU2@I@Z 004978e6 f   RealServer.obj
 0001:0009698a       ?cmdIsAnsiExecAllowed@CRealServer@@IAEPAUCESERVER_REQ@@PAXPAU2@I@Z 0049798a f   RealServer.obj
 0001:00096a79       ?cmdLangChange@CRealServer@@IAEPAUCESERVER_REQ@@PAXPAU2@I@Z 00497a79 f   RealServer.obj
 0001:00096a9b       ?cmdLockDc@CRealServer@@IAEPAUCESERVER_REQ@@PAXPAU2@I@Z 00497a9b f   RealServer.obj
 0001:00096ace       ?cmdOnCreateProc@CRealServer@@IAEPAUCESERVER_REQ@@PAXPAU2@I@Z 00497ace f   RealServer.obj
 0001:00096b2a       ?cmdOnPeekReadInput@CRealServer@@IAEPAUCESERVER_REQ@@PAXPAU2@I@Z 00497b2a f   RealServer.obj
 0001:00096b9e       ?cmdOnSetConsoleKeyShortcuts@CRealServer@@IAEPAUCESERVER_REQ@@PAXPAU2@I@Z 00497b9e f   RealServer.obj
 0001:00096bd3       ?cmdPortableStarted@CRealServer@@IAEPAUCESERVER_REQ@@PAXPAU2@I@Z 00497bd3 f   RealServer.obj
 0001:00096bf7       ?cmdQueryPalette@CRealServer@@IAEPAUCESERVER_REQ@@PAXPAU2@I@Z 00497bf7 f   RealServer.obj
 0001:00096c64       ?cmdRegPanelView@CRealServer@@IAEPAUCESERVER_REQ@@PAXPAU2@I@Z 00497c64 f   RealServer.obj
 0001:00096cbc       ?cmdRenameTab@CRealServer@@IAEPAUCESERVER_REQ@@PAXPAU2@I@Z 00497cbc f   RealServer.obj
 0001:00096cf3       ?cmdResources@CRealServer@@IAEPAUCESERVER_REQ@@PAXPAU2@I@Z 00497cf3 f   RealServer.obj
 0001:00096e74       ?cmdSetBackground@CRealServer@@IAEPAUCESERVER_REQ@@PAXPAU2@I@Z 00497e74 f   RealServer.obj
 0001:00096ec6       ?cmdSetForeground@CRealServer@@IAEPAUCESERVER_REQ@@PAXPAU2@I@Z 00497ec6 f   RealServer.obj
 0001:00096f33       ?cmdSetProgress@CRealServer@@IAEPAUCESERVER_REQ@@PAXPAU2@I@Z 00497f33 f   RealServer.obj
 0001:00096f77       ?cmdSshAgentStarted@CRealServer@@IAEPAUCESERVER_REQ@@PAXPAU2@I@Z 00497f77 f   RealServer.obj
 0001:00096f9d       ?cmdStartStop@CRealServer@@IAEPAUCESERVER_REQ@@PAXPAU2@I@Z 00497f9d f   RealServer.obj
 0001:000979d5       ?cmdStartXTerm@CRealServer@@IAEPAUCESERVER_REQ@@PAXPAU2@I@Z 004989d5 f   RealServer.obj
 0001:00097ada       ?cmdTabsChanged@CRealServer@@IAEPAUCESERVER_REQ@@PAXPAU2@I@Z 00498ada f   RealServer.obj
 0001:00097c24       ?cmdTabsCmd@CRealServer@@IAEPAUCESERVER_REQ@@PAXPAU2@I@Z 00498c24 f   RealServer.obj
 0001:00097c47       ??0CRecreateDlg@@QAE@XZ    00498c47 f   Recreate.obj
 0001:00097ca1       ??1CRecreateDlg@@QAE@XZ    00498ca1 f   Recreate.obj
 0001:00097cee       ?AddCommandList@CRecreateDlg@@IAEXPB_WH@Z 00498cee f   Recreate.obj
 0001:00097d47       ?AddDirectoryList@CRecreateDlg@@IAEXPB_WH@Z 00498d47 f   Recreate.obj
 0001:00097d90       ?BrowseCallbackProc@CRecreateDlg@@SGHPAUHWND__@@IJJ@Z 00498d90 f   Recreate.obj
 0001:00097dbd       ?Close@CRecreateDlg@@QAEXXZ 00498dbd f   Recreate.obj
 0001:00097df2       ?FreeVars@CRecreateDlg@@IAEXXZ 00498df2 f   Recreate.obj
 0001:00097e78       ?InitVars@CRecreateDlg@@IAEXXZ 00498e78 f   Recreate.obj
 0001:0009807f       ?OnButtonClicked@CRecreateDlg@@IAEHPAUHWND__@@IIJ@Z 0049907f f   Recreate.obj
 0001:0009864d       ?OnComboSetFocus@CRecreateDlg@@IAEHPAUHWND__@@IIJ@Z 0049964d f   Recreate.obj
 0001:00098681       ?OnCtlColorStatic@CRecreateDlg@@IAEHPAUHWND__@@IIJ@Z 00499681 f   Recreate.obj
 0001:000986c6       ?OnEditSetFocus@CRecreateDlg@@IAEHPAUHWND__@@IIJ@Z 004996c6 f   Recreate.obj
 0001:00098701       ?OnFillCmdList@CRecreateDlg@@IAEHPAUHWND__@@IIJ@Z 00499701 f   Recreate.obj
 0001:0009878d       ?OnInitDialog@CRecreateDlg@@IAEHPAUHWND__@@IIJ@Z 0049978d f   Recreate.obj
 0001:00099420       ?OnSysCommand@CRecreateDlg@@IAEHPAUHWND__@@IIJ@Z 0049a420 f   Recreate.obj
 0001:00099538       ?OnUserControls@CRecreateDlg@@IAEHPAUHWND__@@IIJ@Z 0049a538 f   Recreate.obj
 0001:000997dc       ?RecreateDlg@CRecreateDlg@@QAEHPAURConStartArgsEx@@_N@Z 0049a7dc f   Recreate.obj
 0001:000998df       ?RecreateDlgProc@CRecreateDlg@@SGHPAUHWND__@@IIJ@Z 0049a8df f   Recreate.obj
 0001:00099aa4       ??0SettingsRegistry@@QAE@XZ 0049aaa4 f   Registry.obj
 0001:00099adf       ??0SettingsXML@@QAE@ABUSettingsStorage@@@Z 0049aadf f   Registry.obj
 0001:00099b33       ??1SettingsRegistry@@UAE@XZ 0049ab33 f   Registry.obj
 0001:00099b49       ??1SettingsXML@@UAE@XZ     0049ab49 f   Registry.obj
 0001:00099b8f       ??_ESettingsBase@@UAEPAXI@Z 0049ab8f f i Registry.obj
 0001:00099b8f       ??_GSettingsBase@@UAEPAXI@Z 0049ab8f f i Registry.obj
 0001:00099bb2       ??_GSettingsRegistry@@UAEPAXI@Z 0049abb2 f i Registry.obj
 0001:00099bb2       ??_ESettingsRegistry@@UAEPAXI@Z 0049abb2 f i Registry.obj
 0001:00099bd4       ??_GSettingsXML@@UAEPAXI@Z 0049abd4 f i Registry.obj
 0001:00099bd4       ??_ESettingsXML@@UAEPAXI@Z 0049abd4 f i Registry.obj
 0001:00099bf6       ?AppendIndent@SettingsXML@@IAEXPAUIXMLDOMNode@@H@Z 0049abf6 f   Registry.obj
 0001:00099c80       ?AppendNewLine@SettingsXML@@IAEXPAUIXMLDOMNode@@@Z 0049ac80 f   Registry.obj
 0001:00099cac       ?AppendText@SettingsXML@@IAEXPAUIXMLDOMNode@@PA_W@Z 0049acac f   Registry.obj
 0001:00099d41       ?ClearChildrenTail@SettingsXML@@IAEXPAUIXMLDOMNode@@0@Z 0049ad41 f   Registry.obj
 0001:00099e08       ?CloseKey@SettingsRegistry@@UAEXXZ 0049ae08 f   Registry.obj
 0001:00099e20       ?CloseKey@SettingsXML@@UAEXXZ 0049ae20 f   Registry.obj
 0001:00099e52       ?CloseStorage@SettingsXML@@IAEXXZ 0049ae52 f   Registry.obj
 0001:00099f50       ?CreateDomDocument@SettingsXML@@KAPAUIXMLDOMDocument@@AAPA_W@Z 0049af50 f   Registry.obj
 0001:0009a1ac       ?Delete@SettingsRegistry@@UAEXPB_W@Z 0049b1ac f   Registry.obj
 0001:0009a1bf       ?Delete@SettingsXML@@UAEXPB_W@Z 0049b1bf f   Registry.obj
 0001:0009a1d4       ?FindItem@SettingsXML@@IAEPAUIXMLDOMNode@@PAU2@PB_W1_N@Z 0049b1d4 f   Registry.obj
 0001:0009a5cd       ?GetAttr@SettingsXML@@IAEPA_WPAUIXMLDOMNode@@PAUIXMLDOMNamedNodeMap@@PB_W@Z 0049b5cd f   Registry.obj
 0001:0009a62f       ?GetAttr@SettingsXML@@IAEPA_WPAUIXMLDOMNode@@PB_W@Z 0049b62f f   Registry.obj
 0001:0009a677       ?IsXmlAllowed@SettingsXML@@SA_NXZ 0049b677 f   Registry.obj
 0001:0009a6e1       ?Load@SettingsBase@@QAE_NPB_WAAE@Z 0049b6e1 f   Registry.obj
 0001:0009a6e1       ?Load@SettingsBase@@QAE_NPB_WAAD@Z 0049b6e1 f   Registry.obj
 0001:0009a6f5       ?Load@SettingsBase@@QAE_NPB_WAAH@Z 0049b6f5 f   Registry.obj
 0001:0009a6f5       ?Load@SettingsBase@@QAE_NPB_WAAJ@Z 0049b6f5 f   Registry.obj
 0001:0009a6f5       ?Load@SettingsBase@@QAE_NPB_WAAI@Z 0049b6f5 f   Registry.obj
 0001:0009a6f5       ?Load@SettingsBase@@QAE_NPB_WAAK@Z 0049b6f5 f   Registry.obj
 0001:0009a709       ?Load@SettingsBase@@QAE_NPB_WAAUtagRECT@@@Z 0049b709 f   Registry.obj
 0001:0009a806       ?Load@SettingsBase@@QAE_NPB_WAA_N@Z 0049b806 f   Registry.obj
 0001:0009a832       ?Load@SettingsRegistry@@UAE_NPB_WPAEK@Z 0049b832 f   Registry.obj
 0001:0009a8a1       ?Load@SettingsRegistry@@UAE_NPB_WPAPA_W@Z 0049b8a1 f   Registry.obj
 0001:0009a948       ?Load@SettingsRegistry@@UAE_NPB_WPA_WH@Z 0049b948 f   Registry.obj
 0001:0009a9b9       ?Load@SettingsXML@@UAE_NPB_WPAEK@Z 0049b9b9 f   Registry.obj
 0001:0009ac38       ?Load@SettingsXML@@UAE_NPB_WPAPA_W@Z 0049bc38 f   Registry.obj
 0001:0009afb4       ?Load@SettingsXML@@UAE_NPB_WPA_WH@Z 0049bfb4 f   Registry.obj
 0001:0009b011       ?OpenKey@SettingsRegistry@@QAE_NPAUHKEY__@@PB_WIH@Z 0049c011 f   Registry.obj
 0001:0009b05a       ?OpenKey@SettingsRegistry@@UAE_NPB_WIH@Z 0049c05a f   Registry.obj
 0001:0009b073       ?OpenKey@SettingsXML@@UAE_NPB_WIH@Z 0049c073 f   Registry.obj
 0001:0009b2b2       ?OpenStorage@SettingsXML@@IAE_NIAAPA_W@Z 0049c2b2 f   Registry.obj
 0001:0009b736       ?Save@SettingsBase@@QAEXPB_W0@Z 0049c736 f   Registry.obj
 0001:0009b775       ?Save@SettingsBase@@QAEXPB_WABE@Z 0049c775 f   Registry.obj
 0001:0009b775       ?Save@SettingsBase@@QAEXPB_WABD@Z 0049c775 f   Registry.obj
 0001:0009b775       ?Save@SettingsBase@@QAEXPB_WAB_N@Z 0049c775 f   Registry.obj
 0001:0009b794       ?Save@SettingsBase@@QAEXPB_WABI@Z 0049c794 f   Registry.obj
 0001:0009b7ad       ?Save@SettingsBase@@QAEXPB_WABH@Z 0049c7ad f   Registry.obj
 0001:0009b7ad       ?Save@SettingsBase@@QAEXPB_WABJ@Z 0049c7ad f   Registry.obj
 0001:0009b7c6       ?Save@SettingsBase@@QAEXPB_WABK@Z 0049c7c6 f   Registry.obj
 0001:0009b7dc       ?Save@SettingsBase@@QAEXPB_WABUtagRECT@@@Z 0049c7dc f   Registry.obj
 0001:0009b83a       ?Save@SettingsRegistry@@UAEXPB_WPBEKK@Z 0049c83a f   Registry.obj
 0001:0009b86a       ?Save@SettingsXML@@UAEXPB_WPBEKK@Z 0049c86a f   Registry.obj
 0001:0009bc7f       ?SaveMSZ@SettingsBase@@QAEXPB_W0K@Z 0049cc7f f   Registry.obj
 0001:0009bcab       ?SetAttr@SettingsXML@@IAE_NPAUIXMLDOMNode@@PAUIXMLDOMNamedNodeMap@@PB_W2@Z 0049ccab f   Registry.obj
 0001:0009be1a       ?SetAttr@SettingsXML@@IAE_NPAUIXMLDOMNode@@PB_W1@Z 0049ce1a f   Registry.obj
 0001:0009be65       ?SetMultiLine@SettingsXML@@IAE_NPAUIXMLDOMNode@@PB_WJ@Z 0049ce65 f   Registry.obj
 0001:0009c08d       ?TouchKey@SettingsXML@@IAEXPAUIXMLDOMNode@@@Z 0049d08d f   Registry.obj
 0001:0009c119       ??0CRunQueue@@QAE@XZ       0049d119 f   RunQueue.obj
 0001:0009c1a1       ??1CRunQueue@@QAE@XZ       0049d1a1 f   RunQueue.obj
 0001:0009c23e       ?AdvanceQueue@CRunQueue@@QAEXXZ 0049d23e f   RunQueue.obj
 0001:0009c277       ?ProcessRunQueue@CRunQueue@@AAEXXZ 0049d277 f   RunQueue.obj
 0001:0009c393       ?RequestRConStartup@CRunQueue@@QAEXPAVCRealConsole@@@Z 0049d393 f   RunQueue.obj
 0001:0009c40c       ?RunQueueThread@CRunQueue@@AAEKXZ 0049d40c f   RunQueue.obj
 0001:0009c465       ?RunQueueThreadHelper@CRunQueue@@CGKPAX@Z 0049d465 f   RunQueue.obj
 0001:0009c47f       ?StartQueue@CRunQueue@@QAEXXZ 0049d47f f   RunQueue.obj
 0001:0009c4ab       ?Terminate@CRunQueue@@QAEXXZ 0049d4ab f   RunQueue.obj
 0001:0009c4fa       ?pop_back@?$MArray@PAUHWND__@@@@QAE_NAAPAUHWND__@@@Z 0049d4fa f i ConEmu.obj
 0001:0009c4fa       ?pop_back@?$MArray@PAVCFont@@@@QAE_NAAPAVCFont@@@Z 0049d4fa f i FontMgr.obj
 0001:0009c4fa       ?pop_back@?$MArray@PA_W@@QAE_NAAPA_W@Z 0049d4fa f i SetPgIntegr.obj
 0001:0009c4fa       ?pop_back@?$MArray@URunQueueItem@CRunQueue@@@@QAE_NAAURunQueueItem@CRunQueue@@@Z 0049d4fa f i RunQueue.obj
 0001:0009c4fa       ?pop_back@?$MArray@PAVCVConGuard@@@@QAE_NAAPAVCVConGuard@@@Z 0049d4fa f i VConGroup.obj
 0001:0009c4fa       ?pop_back@?$MArray@PAUSwitch@@@@QAE_NAAPAUSwitch@@@Z 0049d4fa f i SetPgIntegr.obj
 0001:0009c531       ?DumpImage@@YAHPAUHDC__@@PAUHBITMAP__@@HHHHPB_W_N@Z 0049d531 f   ScreenDump.obj
 0001:0009c7e7       ?DumpImage@@YAHPAUHDC__@@PAUHBITMAP__@@HHPB_W@Z 0049d7e7 f   ScreenDump.obj
 0001:0009c809       ?LoadScreen@@YAHPAUHDC__@@HHHHPAPAEPAK_N@Z 0049d809 f   ScreenDump.obj
 0001:0009c9cd       ?AllocateBlock@?$MMap@HUCEIconDrawHandles@@$0A@@@IAEPAUMapItems@1@XZ 0049d9cd f i SearchCtrl.obj
 0001:0009ca02       ?AllocateBlock@?$MMap@PAUHWND__@@UCEIconHintInfo@@$0A@@@IAEPAUMapItems@1@XZ 0049da02 f i SearchCtrl.obj
 0001:0009d50f       ?EditIconHint_Process@@YA_NPAUHWND__@@IIJAAH@Z 0049e50f f   SearchCtrl.obj
 0001:0009d842       ?EditIconHint_ResChanged@@YAXPAUHWND__@@@Z 0049e842 f   SearchCtrl.obj
 0001:0009d8bd       ?EditIconHint_Set@@YAXPAUHWND__@@0_NPB_W1IG@Z 0049e8bd f   SearchCtrl.obj
 0001:0009dac1       ?EditIconHint_SetTimer@@YAXPAUHWND__@@@Z 0049eac1 f   SearchCtrl.obj
 0001:0009dadb       ?EditIconHint_Subclass@@YAXPAUHWND__@@0@Z 0049eadb f   SearchCtrl.obj
 0001:0009dafa       ?FindBlockItem@?$MMap@HUCEIconDrawHandles@@$0A@@@IAE_NABHAAPAUMapItems@1@AAPAUMapItem@1@@Z 0049eafa f i SearchCtrl.obj
 0001:0009db61       ?FindBlockItem@?$MMap@PAUHWND__@@UCEIconHintInfo@@$0A@@@IAE_NABQAUHWND__@@AAPAUMapItems@1@AAPAUMapItem@1@@Z 0049eb61 f i SearchCtrl.obj
 0001:0009dbcb       ?Get@?$MMap@HUCEIconDrawHandles@@$0A@@@QAE_NABHPAUCEIconDrawHandles@@_N@Z 0049ebcb f i SearchCtrl.obj
 0001:0009dc33       ?Get@?$MMap@PAUHWND__@@UCEIconHintInfo@@$0A@@@QAE_NABQAUHWND__@@PAUCEIconHintInfo@@_N@Z 0049ec33 f i SearchCtrl.obj
 0001:0009dcac       ?Get@?$MMap@PAUHWND__@@UTabPanelWinMap@@$0A@@@QAE_NABQAUHWND__@@PAUTabPanelWinMap@@_N@Z 0049ecac f i WinObjBase.obj
 0001:0009dcac       ?Get@?$MMap@PAUHWND__@@UCEIconHintOthers@@$0A@@@QAE_NABQAUHWND__@@PAUCEIconHintOthers@@_N@Z 0049ecac f i SearchCtrl.obj
 0001:0009dd12       ?GetNext@?$MMap@PAUHWND__@@UCEIconHintInfo@@$0A@@@QAE_NPBQAUHWND__@@PAPAU2@PAUCEIconHintInfo@@@Z 0049ed12 f i SearchCtrl.obj
 0001:0009dda9       ?Init@?$MMap@HUCEIconDrawHandles@@$0A@@@QAE_NI_N@Z 0049eda9 f i SearchCtrl.obj
 0001:0009dde1       ?Init@?$MMap@PAUHWND__@@UCEIconHintInfo@@$0A@@@QAE_NI_N@Z 0049ede1 f i SearchCtrl.obj
 0001:0009de19       ?Init@?$MMap@PAUHWND__@@UCEIconHintOthers@@$0A@@@QAE_NI_N@Z 0049ee19 f i SearchCtrl.obj
 0001:0009de51       ?Set@?$MMap@HUCEIconDrawHandles@@$0A@@@QAE_NABHABUCEIconDrawHandles@@@Z 0049ee51 f i SearchCtrl.obj
 0001:0009df51       ?Set@?$MMap@PAUHWND__@@UCEIconHintInfo@@$0A@@@QAE_NABQAUHWND__@@ABUCEIconHintInfo@@@Z 0049ef51 f i SearchCtrl.obj
 0001:0009e044       ?Set@?$MMap@PAUHWND__@@UCEIconHintOthers@@$0A@@@QAE_NABQAUHWND__@@ABUCEIconHintOthers@@@Z 0049f044 f i SearchCtrl.obj
 0001:0009e044       ?Set@?$MMap@PAUHWND__@@UTabPanelWinMap@@$0A@@@QAE_NABQAUHWND__@@ABUTabPanelWinMap@@@Z 0049f044 f i WinObjBase.obj
 0001:0009e133       ?BackColorIdx@AppSettings@@QBEEXZ 0049f133 f   SetAppSettings.obj
 0001:0009e152       ?CTSBashMargin@AppSettings@@QBE_NXZ 0049f152 f   SetAppSettings.obj
 0001:0009e174       ?CTSClickPromptPosition@AppSettings@@QBEEXZ 0049f174 f   SetAppSettings.obj
 0001:0009e196       ?CTSDeleteLeftWord@AppSettings@@QBEEXZ 0049f196 f   SetAppSettings.obj
 0001:0009e1b8       ?CTSDetectLineEnd@AppSettings@@QBE_NXZ 0049f1b8 f   SetAppSettings.obj
 0001:0009e1da       ?CTSEOL@AppSettings@@QBEEXZ 0049f1da f   SetAppSettings.obj
 0001:0009e1fc       ?CTSShiftArrowStart@AppSettings@@QBE_NXZ 0049f1fc f   SetAppSettings.obj
 0001:0009e21e       ?CTSTrimTrailing@AppSettings@@QBEEXZ 0049f21e f   SetAppSettings.obj
 0001:0009e240       ?Cursor@AppSettings@@QBE?ATCECursorType@@_N@Z 0049f240 f   SetAppSettings.obj
 0001:0009e29a       ?CursorBlink@AppSettings@@QBE_N_N@Z 0049f29a f   SetAppSettings.obj
 0001:0009e2b4       ?CursorFixedSize@AppSettings@@QBEE_N@Z 0049f2b4 f   SetAppSettings.obj
 0001:0009e2ce       ?CursorIgnoreSize@AppSettings@@QBE_N_N@Z 0049f2ce f   SetAppSettings.obj
 0001:0009e2e8       ?ExtendColorIdx@AppSettings@@QBEEXZ 0049f2e8 f   SetAppSettings.obj
 0001:0009e307       ?ExtendColors@AppSettings@@QBE_NXZ 0049f307 f   SetAppSettings.obj
 0001:0009e326       ?ExtendFonts@AppSettings@@QBE_NXZ 0049f326 f   SetAppSettings.obj
 0001:0009e348       ?FontBoldColor@AppSettings@@QBEEXZ 0049f348 f   SetAppSettings.obj
 0001:0009e36a       ?FontItalicColor@AppSettings@@QBEEXZ 0049f36a f   SetAppSettings.obj
 0001:0009e38c       ?FontNormalColor@AppSettings@@QBEEXZ 0049f38c f   SetAppSettings.obj
 0001:0009e3ae       ?FreeApps@AppSettings@@QAEXXZ 0049f3ae f   SetAppSettings.obj
 0001:0009e3f3       ?PasteAllLines@AppSettings@@QBEEXZ 0049f3f3 f   SetAppSettings.obj
 0001:0009e415       ?PasteFirstLine@AppSettings@@QBEEXZ 0049f415 f   SetAppSettings.obj
 0001:0009e437       ?PopBackColorIdx@AppSettings@@QBEEXZ 0049f437 f   SetAppSettings.obj
 0001:0009e456       ?PopTextColorIdx@AppSettings@@QBEEXZ 0049f456 f   SetAppSettings.obj
 0001:0009e475       ?PosixAllLines@AppSettings@@QBEEXZ 0049f475 f   SetAppSettings.obj
 0001:0009e497       ?PosixFirstLine@AppSettings@@QBEEXZ 0049f497 f   SetAppSettings.obj
 0001:0009e4b9       ?SetNames@AppSettings@@QAEXPB_W@Z 0049f4b9 f   SetAppSettings.obj
 0001:0009e583       ?TextColorIdx@AppSettings@@QBEEXZ 0049f583 f   SetAppSettings.obj
 0001:0009e5a2       ?FreePtr@CommandTasks@@QAEXXZ 0049f5a2 f   SetCmdTask.obj
 0001:0009e608       ?LoadCmdTask@CommandTasks@@QAE_NPAUSettingsBase@@H@Z 0049f608 f   SetCmdTask.obj
 0001:0009e923       ?ParseGuiArgs@CommandTasks@@QBEXPAURConStartArgsEx@@@Z 0049f923 f   SetCmdTask.obj
 0001:0009ec05       ?SaveCmdTask@CommandTasks@@QAE_NPAUSettingsBase@@_N@Z 0049fc05 f   SetCmdTask.obj
 0001:0009ed97       ?SetCommands@CommandTasks@@QAEXPB_W@Z 0049fd97 f   SetCmdTask.obj
 0001:0009ee1d       ?SetGuiArg@CommandTasks@@QAEXPB_W@Z 0049fe1d f   SetCmdTask.obj
 0001:0009ee9d       ?SetName@CommandTasks@@QAEXPB_WH@Z 0049fe9d f   SetCmdTask.obj
 0001:0009efb8       ?FreePtr@ColorPalette@@QAEXXZ 0049ffb8 f   SetColorPalette.obj
 0001:0009efe5       ?GetColors@ColorPalette@@QAEPAK_N@Z 0049ffe5 f   SetColorPalette.obj
 0001:0009f00e       ??$GetPageObj@VCSetPgComspec@@@CSettings@@QAE_NAAPAVCSetPgComspec@@@Z 004a000e f i SetDlgButtons.obj
 0001:0009f03d       ??$GetPageObj@VCSetPgFeatures@@@CSettings@@QAE_NAAPAVCSetPgFeatures@@@Z 004a003d f i SetDlgButtons.obj
 0001:0009f06c       ??$GetPageObj@VCSetPgTasks@@@CSettings@@QAE_NAAPAVCSetPgTasks@@@Z 004a006c f i SetDlgButtons.obj
 0001:0009f09b       ?CheckButtonMacro@CSetDlgButtons@@SAPA_WGE@Z 004a009b f   SetDlgButtons.obj
 0001:0009f168       ?OnBtn_ActivateSplitMouseOver@CSetDlgButtons@@KAXPAUHWND__@@GE@Z 004a0168 f   SetDlgButtons.obj
 0001:0009f196       ?OnBtn_ActivityReset@CSetDlgButtons@@KAXPAUHWND__@@GE@Z 004a0196 f   SetDlgButtons.obj
 0001:0009f1de       ?OnBtn_ActivitySaveAs@CSetDlgButtons@@KAXPAUHWND__@@GE@Z 004a01de f   SetDlgButtons.obj
 0001:0009f1f7       ?OnBtn_AddConEmu2Path@CSetDlgButtons@@KAXPAUHWND__@@GE@Z 004a01f7 f   SetDlgButtons.obj
 0001:0009f222       ?OnBtn_AddConEmuBase2Path@CSetDlgButtons@@KAXPAUHWND__@@GE@Z 004a0222 f   SetDlgButtons.obj
 0001:0009f24a       ?OnBtn_AddDefaults@CSetDlgButtons@@KAXPAUHWND__@@GE@Z 004a024a f   SetDlgButtons.obj
 0001:0009f2d2       ?OnBtn_AdminSuffixOrShield@CSetDlgButtons@@KAXPAUHWND__@@GE@Z 004a02d2 f   SetDlgButtons.obj
 0001:0009f3c4       ?OnBtn_AlwaysOnTop@CSetDlgButtons@@KAXPAUHWND__@@GE@Z 004a03c4 f   SetDlgButtons.obj
 0001:0009f3eb       ?OnBtn_AlwaysShowTrayIcon@CSetDlgButtons@@KAXPAUHWND__@@GE@Z 004a03eb f   SetDlgButtons.obj
 0001:0009f40b       ?OnBtn_AnsiSecureRadio@CSetDlgButtons@@KAXPAUHWND__@@GE@Z 004a040b f   SetDlgButtons.obj
 0001:0009f464       ?OnBtn_AntiAliasing2@CSetDlgButtons@@KAXPAUHWND__@@GE@Z 004a0464 f   SetDlgButtons.obj
 0001:0009f496       ?OnBtn_ApplyPos@CSetDlgButtons@@KAXPAUHWND__@@GE@Z 004a0496 f   SetDlgButtons.obj
 0001:0009f72f       ?OnBtn_BgAllowPlugin@CSetDlgButtons@@KAXPAUHWND__@@GE@Z 004a072f f   SetDlgButtons.obj
 0001:0009f75a       ?OnBtn_BgImageChoose@CSetDlgButtons@@KAXPAUHWND__@@GE@Z 004a075a f   SetDlgButtons.obj
 0001:0009f98b       ?OnBtn_BgImageEnable@CSetDlgButtons@@KAXPAUHWND__@@GE@Z 004a098b f   SetDlgButtons.obj
 0001:0009fa97       ?OnBtn_CTSAutoCopy@CSetDlgButtons@@KAXPAUHWND__@@GE@Z 004a0a97 f   SetDlgButtons.obj
 0001:0009fafc       ?OnBtn_CTSBlockSelection@CSetDlgButtons@@KAXPAUHWND__@@GE@Z 004a0afc f   SetDlgButtons.obj
 0001:0009fb21       ?OnBtn_CTSClickPromptPosition@CSetDlgButtons@@KAXPAUHWND__@@GE@Z 004a0b21 f   SetDlgButtons.obj
 0001:0009fb42       ?OnBtn_CTSEndCopyAuto@CSetDlgButtons@@KAXPAUHWND__@@GE@Z 004a0b42 f   SetDlgButtons.obj
 0001:0009fc21       ?OnBtn_CTSIBeam@CSetDlgButtons@@KAXPAUHWND__@@GE@Z 004a0c21 f   SetDlgButtons.obj
 0001:0009fc47       ?OnBtn_CTSTextSelection@CSetDlgButtons@@KAXPAUHWND__@@GE@Z 004a0c47 f   SetDlgButtons.obj
 0001:0009fc6c       ?OnBtn_CascadeFixed@CSetDlgButtons@@KAXPAUHWND__@@GE@Z 004a0c6c f   SetDlgButtons.obj
 0001:0009fccc       ?OnBtn_ClinkWebPage@CSetDlgButtons@@KAXPAUHWND__@@GE@Z 004a0ccc f   SetDlgButtons.obj
 0001:0009fce4       ?OnBtn_CloseConEmuOptions@CSetDlgButtons@@KAXPAUHWND__@@GE@Z 004a0ce4 f   SetDlgButtons.obj
 0001:0009febb       ?OnBtn_CloseConfirmFlags@CSetDlgButtons@@KAXPAUHWND__@@GE@Z 004a0ebb f   SetDlgButtons.obj
 0001:0009ff07       ?OnBtn_CmdAutoActions@CSetDlgButtons@@KAXPAUHWND__@@GE@Z 004a0f07 f   SetDlgButtons.obj
 0001:0009ff52       ?OnBtn_CmdGroupApp@CSetDlgButtons@@KAXPAUHWND__@@GE@Z 004a0f52 f   SetDlgButtons.obj
 0001:000a014a       ?OnBtn_CmdGroupKey@CSetDlgButtons@@KAXPAUHWND__@@GE@Z 004a114a f   SetDlgButtons.obj
 0001:000a0214       ?OnBtn_CmdTaskbarUpdate@CSetDlgButtons@@KAXPAUHWND__@@GE@Z 004a1214 f   SetDlgButtons.obj
 0001:000a025c       ?OnBtn_CmdTasksActive@CSetDlgButtons@@KAXPAUHWND__@@GE@Z 004a125c f   SetDlgButtons.obj
 0001:000a0297       ?OnBtn_CmdTasksAdd@CSetDlgButtons@@KAXPAUHWND__@@GE@Z 004a1297 f   SetDlgButtons.obj
 0001:000a032e       ?OnBtn_CmdTasksDel@CSetDlgButtons@@KAXPAUHWND__@@GE@Z 004a132e f   SetDlgButtons.obj
 0001:000a05d8       ?OnBtn_CmdTasksDir@CSetDlgButtons@@KAXPAUHWND__@@GE@Z 004a15d8 f   SetDlgButtons.obj
 0001:000a0713       ?OnBtn_CmdTasksDup@CSetDlgButtons@@KAXPAUHWND__@@GE@Z 004a1713 f   SetDlgButtons.obj
 0001:000a081c       ?OnBtn_CmdTasksFlags@CSetDlgButtons@@KAXPAUHWND__@@GE@Z 004a181c f   SetDlgButtons.obj
 0001:000a093d       ?OnBtn_CmdTasksParm@CSetDlgButtons@@KAXPAUHWND__@@GE@Z 004a193d f   SetDlgButtons.obj
 0001:000a0a42       ?OnBtn_CmdTasksReload@CSetDlgButtons@@KAXPAUHWND__@@GE@Z 004a1a42 f   SetDlgButtons.obj
 0001:000a0aba       ?OnBtn_CmdTasksUpDown@CSetDlgButtons@@KAXPAUHWND__@@GE@Z 004a1aba f   SetDlgButtons.obj
 0001:000a0b65       ?OnBtn_ColorField@CSetDlgButtons@@KAXPAUHWND__@@GE@Z 004a1b65 f   SetDlgButtons.obj
 0001:000a0cc1       ?OnBtn_ColorFormat@CSetDlgButtons@@KAXPAUHWND__@@GE@Z 004a1cc1 f   SetDlgButtons.obj
 0001:000a0d01       ?OnBtn_ColorKeyTransparent@CSetDlgButtons@@KAXPAUHWND__@@GE@Z 004a1d01 f   SetDlgButtons.obj
 0001:000a0d22       ?OnBtn_ColorResetExt@CSetDlgButtons@@KAXPAUHWND__@@GE@Z 004a1d22 f   SetDlgButtons.obj
 0001:000a0dd9       ?OnBtn_ColorSchemeSaveDelete@CSetDlgButtons@@KAXPAUHWND__@@GE@Z 004a1dd9 f   SetDlgButtons.obj
 0001:000a0e05       ?OnBtn_CompressLongStrings@CSetDlgButtons@@KAXPAUHWND__@@GE@Z 004a1e05 f   SetDlgButtons.obj
 0001:000a0e29       ?OnBtn_ComspecBitsRadio@CSetDlgButtons@@KAXPAUHWND__@@GE@Z 004a1e29 f   SetDlgButtons.obj
 0001:000a0e7e       ?OnBtn_ComspecExplicit@CSetDlgButtons@@KAXPAUHWND__@@GE@Z 004a1e7e f   SetDlgButtons.obj
 0001:000a0fc3       ?OnBtn_ComspecRadio@CSetDlgButtons@@KAXPAUHWND__@@GE@Z 004a1fc3 f   SetDlgButtons.obj
 0001:000a105b       ?OnBtn_ComspecTest@CSetDlgButtons@@KAXPAUHWND__@@GE@Z 004a205b f   SetDlgButtons.obj
 0001:000a10af       ?OnBtn_ComspecUpdateEnv@CSetDlgButtons@@KAXPAUHWND__@@GE@Z 004a20af f   SetDlgButtons.obj
 0001:000a10ca       ?OnBtn_ConsoleExceptionHandler@CSetDlgButtons@@KAXPAUHWND__@@GE@Z 004a20ca f   SetDlgButtons.obj
 0001:000a10eb       ?OnBtn_CursorOptions@CSetDlgButtons@@KAXPAUHWND__@@GE@Z 004a20eb f   SetDlgButtons.obj
 0001:000a111d       ?OnBtn_DebugActivityRadio@CSetDlgButtons@@KAXPAUHWND__@@GE@Z 004a211d f   SetDlgButtons.obj
 0001:000a1172       ?OnBtn_DebugLog@CSetDlgButtons@@KAXPAUHWND__@@GE@Z 004a2172 f   SetDlgButtons.obj
 0001:000a11f6       ?OnBtn_DefTerm@CSetDlgButtons@@KAXPAUHWND__@@GE@Z 004a21f6 f   SetDlgButtons.obj
 0001:000a1477       ?OnBtn_DosBox@CSetDlgButtons@@KAXPAUHWND__@@GE@Z 004a2477 f   SetDlgButtons.obj
 0001:000a14f3       ?OnBtn_DragLR@CSetDlgButtons@@KAXPAUHWND__@@GE@Z 004a24f3 f   SetDlgButtons.obj
 0001:000a1531       ?OnBtn_DragPanel@CSetDlgButtons@@KAXPAUHWND__@@GE@Z 004a2531 f   SetDlgButtons.obj
 0001:000a1553       ?OnBtn_DragPanelBothEdges@CSetDlgButtons@@KAXPAUHWND__@@GE@Z 004a2553 f   SetDlgButtons.obj
 0001:000a1579       ?OnBtn_EnhanceButtons@CSetDlgButtons@@KAXPAUHWND__@@GE@Z 004a2579 f   SetDlgButtons.obj
 0001:000a159d       ?OnBtn_EnhanceGraphics@CSetDlgButtons@@KAXPAUHWND__@@GE@Z 004a259d f   SetDlgButtons.obj
 0001:000a15c1       ?OnBtn_ExtendColors@CSetDlgButtons@@KAXPAUHWND__@@GE@Z 004a25c1 f   SetDlgButtons.obj
 0001:000a163c       ?OnBtn_ExtendFonts@CSetDlgButtons@@KAXPAUHWND__@@GE@Z 004a263c f   SetDlgButtons.obj
 0001:000a167a       ?OnBtn_ExtendUCharMap@CSetDlgButtons@@KAXPAUHWND__@@GE@Z 004a267a f   SetDlgButtons.obj
 0001:000a169e       ?OnBtn_FARuseASCIIsort@CSetDlgButtons@@KAXPAUHWND__@@GE@Z 004a269e f   SetDlgButtons.obj
 0001:000a16b9       ?OnBtn_FadeInactive@CSetDlgButtons@@KAXPAUHWND__@@GE@Z 004a26b9 f   SetDlgButtons.obj
 0001:000a16d4       ?OnBtn_FarHourglass@CSetDlgButtons@@KAXPAUHWND__@@GE@Z 004a26d4 f   SetDlgButtons.obj
 0001:000a16fa       ?OnBtn_FixFarBorders@CSetDlgButtons@@KAXPAUHWND__@@GE@Z 004a26fa f   SetDlgButtons.obj
 0001:000a1729       ?OnBtn_FontAuto@CSetDlgButtons@@KAXPAUHWND__@@GE@Z 004a2729 f   SetDlgButtons.obj
 0001:000a17c4       ?OnBtn_NoneStandardCleartype@CSetDlgButtons@@KAXPAUHWND__@@GE@Z 004a27c4 f   SetDlgButtons.obj
 0001:000a17c4       ?OnBtn_FontStyles@CSetDlgButtons@@KAXPAUHWND__@@GE@Z 004a27c4 f   SetDlgButtons.obj
 0001:000a17e4       ?OnBtn_GotoEditorCmd@CSetDlgButtons@@KAXPAUHWND__@@GE@Z 004a27e4 f   SetDlgButtons.obj
 0001:000a196e       ?OnBtn_HideCaption@CSetDlgButtons@@KAXPAUHWND__@@GE@Z 004a296e f   SetDlgButtons.obj
 0001:000a19bf       ?OnBtn_HideCaptionAlways@CSetDlgButtons@@KAXPAUHWND__@@GE@Z 004a29bf f   SetDlgButtons.obj
 0001:000a1a39       ?OnBtn_HideChildCaption@CSetDlgButtons@@KAXPAUHWND__@@GE@Z 004a2a39 f   SetDlgButtons.obj
 0001:000a1a6c       ?OnBtn_HideInactiveConTabs@CSetDlgButtons@@KAXPAUHWND__@@GE@Z 004a2a6c f   SetDlgButtons.obj
 0001:000a1a96       ?OnBtn_HideOrMinOnLastTabClose@CSetDlgButtons@@KAXPAUHWND__@@GE@Z 004a2a96 f   SetDlgButtons.obj
 0001:000a1b9b       ?OnBtn_HighlightMouseCol@CSetDlgButtons@@KAXPAUHWND__@@GE@Z 004a2b9b f   SetDlgButtons.obj
 0001:000a1bbf       ?OnBtn_HighlightMouseRow@CSetDlgButtons@@KAXPAUHWND__@@GE@Z 004a2bbf f   SetDlgButtons.obj
 0001:000a1be3       ?OnBtn_InstallKeybHooks@CSetDlgButtons@@KAXPAUHWND__@@GE@Z 004a2be3 f   SetDlgButtons.obj
 0001:000a1c39       ?OnBtn_LongOutput@CSetDlgButtons@@KAXPAUHWND__@@GE@Z 004a2c39 f   SetDlgButtons.obj
 0001:000a1c71       ?OnBtn_MinByEscRadio@CSetDlgButtons@@KAXPAUHWND__@@GE@Z 004a2c71 f   SetDlgButtons.obj
 0001:000a1cc8       ?OnBtn_Monospace@CSetDlgButtons@@KAXPAUHWND__@@GE@Z 004a2cc8 f   SetDlgButtons.obj
 0001:000a1d19       ?OnBtn_MultiCon@CSetDlgButtons@@KAXPAUHWND__@@GE@Z 004a2d19 f   SetDlgButtons.obj
 0001:000a1d3a       ?OnBtn_MultiShowPanes@CSetDlgButtons@@KAXPAUHWND__@@GE@Z 004a2d3a f   SetDlgButtons.obj
 0001:000a1d87       ?OnBtn_NormalFullscreenMaximized@CSetDlgButtons@@KAXPAUHWND__@@GE@Z 004a2d87 f   SetDlgButtons.obj
 0001:000a1dc0       ?OnBtn_NumberInCaption@CSetDlgButtons@@KAXPAUHWND__@@GE@Z 004a2dc0 f   SetDlgButtons.obj
 0001:000a1de1       ?OnBtn_OneTabPerGroup@CSetDlgButtons@@KAXPAUHWND__@@GE@Z 004a2de1 f   SetDlgButtons.obj
 0001:000a1e0b       ?OnBtn_ProcessAnsi@CSetDlgButtons@@KAXPAUHWND__@@GE@Z 004a2e0b f   SetDlgButtons.obj
 0001:000a1e2c       ?OnBtn_ProcessCmdStart@CSetDlgButtons@@KAXPAUHWND__@@GE@Z 004a2e2c f   SetDlgButtons.obj
 0001:000a1e4d       ?OnBtn_ProcessCtrlZ@CSetDlgButtons@@KAXPAUHWND__@@GE@Z 004a2e4d f   SetDlgButtons.obj
 0001:000a1e6e       ?OnBtn_ProcessNewConArg@CSetDlgButtons@@KAXPAUHWND__@@GE@Z 004a2e6e f   SetDlgButtons.obj
 0001:000a1e8f       ?OnBtn_QuakeStyles@CSetDlgButtons@@KAXPAUHWND__@@GE@Z 004a2e8f f   SetDlgButtons.obj
 0001:000a1ef9       ?OnBtn_RConVisible@CSetDlgButtons@@KAXPAUHWND__@@GE@Z 004a2ef9 f   SetDlgButtons.obj
 0001:000a1f46       ?OnBtn_RealConsoleSettings@CSetDlgButtons@@KAXPAUHWND__@@GE@Z 004a2f46 f   SetDlgButtons.obj
 0001:000a1f58       ?OnBtn_RetardInactivePanes@CSetDlgButtons@@KAXPAUHWND__@@GE@Z 004a2f58 f   SetDlgButtons.obj
 0001:000a1f7a       ?OnBtn_ScrollbarDynamic@CSetDlgButtons@@KAXPAUHWND__@@GE@Z 004a2f7a f   SetDlgButtons.obj
 0001:000a1f9b       ?OnBtn_ScrollbarStyle@CSetDlgButtons@@KAXPAUHWND__@@GE@Z 004a2f9b f   SetDlgButtons.obj
 0001:000a206c       ?OnBtn_SendConsoleSpecials@CSetDlgButtons@@KAXPAUHWND__@@GE@Z 004a306c f   SetDlgButtons.obj
 0001:000a20fb       ?OnBtn_ShellNoZoneCheck@CSetDlgButtons@@KAXPAUHWND__@@GE@Z 004a30fb f   SetDlgButtons.obj
 0001:000a2116       ?OnBtn_ShowFarWindows@CSetDlgButtons@@KAXPAUHWND__@@GE@Z 004a3116 f   SetDlgButtons.obj
 0001:000a2140       ?OnBtn_ShowStatusBar@CSetDlgButtons@@KAXPAUHWND__@@GE@Z 004a3140 f   SetDlgButtons.obj
 0001:000a215c       ?OnBtn_SleepInBackground@CSetDlgButtons@@KAXPAUHWND__@@GE@Z 004a315c f   SetDlgButtons.obj
 0001:000a217e       ?OnBtn_SnapToDesktopEdges@CSetDlgButtons@@KAXPAUHWND__@@GE@Z 004a317e f   SetDlgButtons.obj
 0001:000a21b8       ?OnBtn_StatusAddDel@CSetDlgButtons@@KAXPAUHWND__@@GE@Z 004a31b8 f   SetDlgButtons.obj
 0001:000a2346       ?OnBtn_StatusHorzSep@CSetDlgButtons@@KAXPAUHWND__@@GE@Z 004a3346 f   SetDlgButtons.obj
 0001:000a237f       ?OnBtn_StatusSystemColors@CSetDlgButtons@@KAXPAUHWND__@@GE@Z 004a337f f   SetDlgButtons.obj
 0001:000a23d7       ?OnBtn_StatusVertPad@CSetDlgButtons@@KAXPAUHWND__@@GE@Z 004a33d7 f   SetDlgButtons.obj
 0001:000a2410       ?OnBtn_StatusVertSep@CSetDlgButtons@@KAXPAUHWND__@@GE@Z 004a3410 f   SetDlgButtons.obj
 0001:000a2445       ?OnBtn_SuppressBells@CSetDlgButtons@@KAXPAUHWND__@@GE@Z 004a3445 f   SetDlgButtons.obj
 0001:000a2466       ?OnBtn_TabsInCaption@CSetDlgButtons@@KAXPAUHWND__@@GE@Z 004a3466 f   SetDlgButtons.obj
 0001:000a248d       ?OnBtn_TabsLocationBottom@CSetDlgButtons@@KAXPAUHWND__@@GE@Z 004a348d f   SetDlgButtons.obj
 0001:000a24bc       ?OnBtn_TabsRadioAuto@CSetDlgButtons@@KAXPAUHWND__@@GE@Z 004a34bc f   SetDlgButtons.obj
 0001:000a254c       ?OnBtn_TaskbarBtnRadio@CSetDlgButtons@@KAXPAUHWND__@@GE@Z 004a354c f   SetDlgButtons.obj
 0001:000a25d9       ?OnBtn_TaskbarOverlay@CSetDlgButtons@@KAXPAUHWND__@@GE@Z 004a35d9 f   SetDlgButtons.obj
 0001:000a2600       ?OnBtn_TaskbarProgress@CSetDlgButtons@@KAXPAUHWND__@@GE@Z 004a3600 f   SetDlgButtons.obj
 0001:000a2621       ?OnBtn_ThumbBackColors@CSetDlgButtons@@KAXPAUHWND__@@GE@Z 004a3621 f   SetDlgButtons.obj
 0001:000a266f       ?OnBtn_ThumbLoadFiles@CSetDlgButtons@@KAXPAUHWND__@@GE@Z 004a366f f   SetDlgButtons.obj
 0001:000a26a5       ?OnBtn_ThumbPreviewBoxColors@CSetDlgButtons@@KAXPAUHWND__@@GE@Z 004a36a5 f   SetDlgButtons.obj
 0001:000a26f3       ?OnBtn_ThumbSelectionBoxColors@CSetDlgButtons@@KAXPAUHWND__@@GE@Z 004a36f3 f   SetDlgButtons.obj
 0001:000a2741       ?OnBtn_Transparent@CSetDlgButtons@@KAXPAUHWND__@@GE@Z 004a3741 f   SetDlgButtons.obj
 0001:000a27d3       ?OnBtn_TransparentSeparate@CSetDlgButtons@@KAXPAUHWND__@@GE@Z 004a37d3 f   SetDlgButtons.obj
 0001:000a288c       ?OnBtn_TrueColorer@CSetDlgButtons@@KAXPAUHWND__@@GE@Z 004a388c f   SetDlgButtons.obj
 0001:000a28b5       ?OnBtn_TryToCenter@CSetDlgButtons@@KAXPAUHWND__@@GE@Z 004a38b5 f   SetDlgButtons.obj
 0001:000a28f2       ?OnBtn_UnicodeRangesApply@CSetDlgButtons@@KAXPAUHWND__@@GE@Z 004a38f2 f   SetDlgButtons.obj
 0001:000a299e       ?OnBtn_UpdateApplyAndCheck@CSetDlgButtons@@KAXPAUHWND__@@GE@Z 004a399e f   SetDlgButtons.obj
 0001:000a2a57       ?OnBtn_UpdateArcCmdLine@CSetDlgButtons@@KAXPAUHWND__@@GE@Z 004a3a57 f   SetDlgButtons.obj
 0001:000a2b7e       ?OnBtn_UpdateDownloadPath@CSetDlgButtons@@KAXPAUHWND__@@GE@Z 004a3b7e f   SetDlgButtons.obj
 0001:000a2ca5       ?OnBtn_UpdateInetTool@CSetDlgButtons@@KAXPAUHWND__@@GE@Z 004a3ca5 f   SetDlgButtons.obj
 0001:000a2d32       ?OnBtn_UpdateInetToolCmd@CSetDlgButtons@@KAXPAUHWND__@@GE@Z 004a3d32 f   SetDlgButtons.obj
 0001:000a2e90       ?OnBtn_UpdateTypeRadio@CSetDlgButtons@@KAXPAUHWND__@@GE@Z 004a3e90 f   SetDlgButtons.obj
 0001:000a2eda       ?OnBtn_UpdateUseProxy@CSetDlgButtons@@KAXPAUHWND__@@GE@Z 004a3eda f   SetDlgButtons.obj
 0001:000a2f68       ?OnBtn_UseClink@CSetDlgButtons@@KAXPAUHWND__@@GE@Z 004a3f68 f   SetDlgButtons.obj
 0001:000a300c       ?OnBtn_UseCurrentSizePos@CSetDlgButtons@@KAXPAUHWND__@@GE@Z 004a400c f   SetDlgButtons.obj
 0001:000a3099       ?OnBtn_UseInjects@CSetDlgButtons@@KAXPAUHWND__@@GE@Z 004a4099 f   SetDlgButtons.obj
 0001:000a30ba       ?OnBtn_UseWinArrowNumTab@CSetDlgButtons@@KAXPAUHWND__@@GE@Z 004a40ba f   SetDlgButtons.obj
 0001:000a3117       ?OnBtn_UserScreenTransparent@CSetDlgButtons@@KAXPAUHWND__@@GE@Z 004a4117 f   SetDlgButtons.obj
 0001:000a3151       ?OnBtn_VividColors@CSetDlgButtons@@KAXPAUHWND__@@GE@Z 004a4151 f   SetDlgButtons.obj
 0001:000a3175       ?OnButtonClicked@CSetDlgButtons@@KAJPAUHWND__@@IJ@Z 004a4175 f   SetDlgButtons.obj
 0001:000a31b1       ?OnButtonClicked_Cursor@CSetDlgButtons@@KAXPAUHWND__@@GEPAUAppSettings@@@Z 004a41b1 f   SetDlgButtons.obj
 0001:000a32da       ?ProcessButtonClick@CSetDlgButtons@@KA_NPAUHWND__@@GE@Z 004a42da f   SetDlgButtons.obj
 0001:000a4c62       ?ColorBoxProc@CSetDlgColors@@KGJPAUHWND__@@IIJ@Z 004a5c62 f   SetDlgColors.obj
 0001:000a4e99       ?ColorCtlStatic@CSetDlgColors@@SAHPAUHWND__@@G0@Z 004a5e99 f   SetDlgColors.obj
 0001:000a4fc2       ?ColorEditDialog@CSetDlgColors@@SA_NPAUHWND__@@G@Z 004a5fc2 f   SetDlgColors.obj
 0001:000a5033       ?ColorSetEdit@CSetDlgColors@@SAXPAUHWND__@@G@Z 004a6033 f   SetDlgColors.obj
 0001:000a5188       ?FillBgImageColors@CSetDlgColors@@SAXPAUHWND__@@@Z 004a6188 f   SetDlgColors.obj
 0001:000a526b       ?GetColorById@CSetDlgColors@@SA_NGPAK@Z 004a626b f   SetDlgColors.obj
 0001:000a5324       ?GetColorRef@CSetDlgColors@@SA_NPAUHWND__@@GPAK@Z 004a6324 f   SetDlgColors.obj
 0001:000a5386       ?OnSettingsLoaded@CSetDlgColors@@SAXAAY0CA@$$CBK@Z 004a6386 f   SetDlgColors.obj
 0001:000a53a1       ?ReleaseHandles@CSetDlgColors@@SAXXZ 004a63a1 f   SetDlgColors.obj
 0001:000a53ca       ?SetColorById@CSetDlgColors@@SA_NGK@Z 004a63ca f   SetDlgColors.obj
 0001:000a54f0       ?ShowColorDialog@CSetDlgColors@@SA_NPAUHWND__@@PAK@Z 004a64f0 f   SetDlgColors.obj
 0001:000a5544       ?EnumFamCallBack@CSetDlgFonts@@KGHPAUtagLOGFONTW@@PAUtagNEWTEXTMETRICW@@KPAX@Z 004a6544 f   SetDlgFonts.obj
 0001:000a5606       ?EnumFontCallBackEx@CSetDlgFonts@@KGHPAUtagENUMLOGFONTEXW@@PAUtagNEWTEXTMETRICEXW@@KJ@Z 004a6606 f   SetDlgFonts.obj
 0001:000a5659       ?EnumFontsFinished@CSetDlgFonts@@SA_NXZ 004a6659 f   SetDlgFonts.obj
 0001:000a565f       ?EnumFontsThread@CSetDlgFonts@@CGKPAX@Z 004a665f f   SetDlgFonts.obj
 0001:000a5931       ?StartEnumFontsThread@CSetDlgFonts@@KA_NXZ 004a6931 f   SetDlgFonts.obj
 0001:000a595c       ?EnableDlgItems@CSetDlgLists@@SAXPAUHWND__@@PBKI_N@Z 004a695c f   SetDlgLists.obj
 0001:000a598e       ?EnableDlgItems@CSetDlgLists@@SAXPAUHWND__@@W4eWordItems@1@_N@Z 004a698e f   SetDlgLists.obj
 0001:000a59b4       ?FillCBList@CSetDlgLists@@SAXPAUHWND__@@_NPAPB_WPB_W@Z 004a69b4 f   SetDlgLists.obj
 0001:000a5a43       ?FillListBox@CSetDlgLists@@SAXPAUHWND__@@GW4eFillListBoxItems@1@@Z 004a6a43 f   SetDlgLists.obj
 0001:000a5a95       ?FillListBoxItems@CSetDlgLists@@SAXPAUHWND__@@W4eFillListBoxItems@1@AAE_N@Z 004a6a95 f   SetDlgLists.obj
 0001:000a5acc       ?FillListBoxItems@CSetDlgLists@@SAXPAUHWND__@@W4eFillListBoxItems@1@AAI_N@Z 004a6acc f   SetDlgLists.obj
 0001:000a5b91       ?FillListBoxItems@CSetDlgLists@@SAXPAUHWND__@@W4eFillListBoxItems@1@ABI@Z 004a6b91 f   SetDlgLists.obj
 0001:000a5bb2       ?FillListBoxItems@CSetDlgLists@@SAXPAUHWND__@@W4eWordItems@1@AAI_N@Z 004a6bb2 f   SetDlgLists.obj
 0001:000a5c85       ?GetListBoxItem@CSetDlgLists@@SA_NPAUHWND__@@GW4eFillListBoxItems@1@AAE@Z 004a6c85 f   SetDlgLists.obj
 0001:000a5caf       ?GetListBoxItem@CSetDlgLists@@SA_NPAUHWND__@@GW4eFillListBoxItems@1@AAI@Z 004a6caf f   SetDlgLists.obj
 0001:000a5d32       ?GetListBoxItem@CSetDlgLists@@SA_NPAUHWND__@@GW4eWordItems@1@AAI@Z 004a6d32 f   SetDlgLists.obj
 0001:000a5db5       ?GetListItems@CSetDlgLists@@SAIW4eFillListBoxItems@1@AAPBUListBoxItem@@@Z 004a6db5 f   SetDlgLists.obj
 0001:000a5ef5       ?GetListItems@CSetDlgLists@@SAIW4eWordItems@1@AAPBK@Z 004a6ef5 f   SetDlgLists.obj
 0001:000a5f99       ?GetListboxCurSel@CSetDlgLists@@SAHPAUHWND__@@I_N@Z 004a6f99 f   SetDlgLists.obj
 0001:000a601b       ?GetListboxSelection@CSetDlgLists@@SAHPAUHWND__@@IAAPAH@Z 004a701b f   SetDlgLists.obj
 0001:000a60cd       ?GetSelectedString@CSetDlgLists@@SAHPAUHWND__@@GPAPA_W@Z 004a70cd f   SetDlgLists.obj
 0001:000a61f8       ?ListBoxMultiSel@CSetDlgLists@@SAXPAUHWND__@@IH@Z 004a71f8 f   SetDlgLists.obj
 0001:000a6249       ?SelectString@CSetDlgLists@@SAHPAUHWND__@@GPB_W@Z 004a7249 f   SetDlgLists.obj
 0001:000a6271       ?SelectStringExact@CSetDlgLists@@SAHPAUHWND__@@GPB_W@Z 004a7271 f   SetDlgLists.obj
 0001:000a6409       ??0CSetPgANSI@@QAE@XZ      004a7409 f   SetPgANSI.obj
 0001:000a6425       ??_GCSetPgANSI@@UAEPAXI@Z  004a7425 f i SetPgANSI.obj
 0001:000a6425       ??_ECSetPgANSI@@UAEPAXI@Z  004a7425 f i SetPgANSI.obj
 0001:000a644d       ?GetPageType@CSetPgANSI@@UAE?AW4TabHwndIndex@@XZ 004a744d f i SetPgANSI.obj
 0001:000a6451       ?OnEditChanged@CSetPgANSI@@UAEJPAUHWND__@@G@Z 004a7451 f   SetPgANSI.obj
 0001:000a64ae       ?OnInitDialog@CSetPgANSI@@UAEJPAUHWND__@@_N@Z 004a74ae f   SetPgANSI.obj
 0001:000a651a       ?PageDlgProc@CSetPgBase@@UAEHPAUHWND__@@IIJ@Z 004a751a f i SetPgANSI.obj
 0001:000a651f       ?QueryDialogCancel@CSetPgBase@@UAE_NXZ 004a751f f i SetPgANSI.obj
 0001:000a651f       ___acrt_uninitialize_command_line 004a751f f i libucrt:argv_data.obj
 0001:000a651f       __should_initialize_environment 004a751f f i LIBCMT:env_mode.obj
 0001:000a6522       ?NotifyHookingStatus@CDefTermBase@@MAE_NKPB_W@Z 004a7522 f i DefaultTerm.obj
 0001:000a6522       ?SelectNextItem@CSetPgBase@@UAE_N_N0@Z 004a7522 f i SetPgANSI.obj
 0001:000a6527       ??0CSetPgAppear@@QAE@XZ    004a7527 f   SetPgAppear.obj
 0001:000a6543       ??_ECSetPgAppear@@UAEPAXI@Z 004a7543 f i SetPgAppear.obj
 0001:000a6543       ??_GCSetPgAppear@@UAEPAXI@Z 004a7543 f i SetPgAppear.obj
 0001:000a656b       ?GetPageType@CSetPgAppear@@UAE?AW4TabHwndIndex@@XZ 004a756b f i SetPgAppear.obj
 0001:000a656f       ?OnEditChanged@CSetPgAppear@@UAEJPAUHWND__@@G@Z 004a756f f   SetPgAppear.obj
 0001:000a66da       ?OnInitDialog@CSetPgAppear@@UAEJPAUHWND__@@_N@Z 004a76da f   SetPgAppear.obj
 0001:000a68fd       ??$GetPageObj@VCSetPgApps@@@CSettings@@QAE_NAAPAVCSetPgApps@@@Z 004a78fd f i SetPgApps.obj
 0001:000a692c       ??0CSetPgApps@@QAE@XZ      004a792c f   SetPgApps.obj
 0001:000a695b       ??1CSetPgApps@@UAE@XZ      004a795b f   SetPgApps.obj
 0001:000a69be       ??_ECSetPgApps@@UAEPAXI@Z  004a79be f i SetPgApps.obj
 0001:000a69be       ??_GCSetPgApps@@UAEPAXI@Z  004a79be f i SetPgApps.obj
 0001:000a69e0       ?CreateChildDlg@CSetPgApps@@IAE_NXZ 004a79e0 f   SetPgApps.obj
 0001:000a6ba5       ?DoAppAdd@CSetPgApps@@IAEXXZ 004a7ba5 f   SetPgApps.obj
 0001:000a6c29       ?DoAppDel@CSetPgApps@@IAEXXZ 004a7c29 f   SetPgApps.obj
 0001:000a6d02       ?DoAppMove@CSetPgApps@@IAEX_N@Z 004a7d02 f   SetPgApps.obj
 0001:000a6dbf       ?DoEnableControls@CSetPgApps@@QAEXG@Z 004a7dbf f   SetPgApps.obj
 0001:000a6eda       ?DoFillControls@CSetPgApps@@QAEXPBUAppSettings@@@Z 004a7eda f   SetPgApps.obj
 0001:000a716a       ?DoReloadApps@CSetPgApps@@IAEXXZ 004a816a f   SetPgApps.obj
 0001:000a71b2       ?GetPageType@CSetPgApps@@UAE?AW4TabHwndIndex@@XZ 004a81b2 f i SetPgApps.obj
 0001:000a71b6       ?NotifyVCon@CSetPgApps@@IAEXXZ 004a81b6 f   SetPgApps.obj
 0001:000a71d5       ?OnAppSelectionChanged@CSetPgApps@@IAEXXZ 004a81d5 f   SetPgApps.obj
 0001:000a727f       ?OnButtonClicked@CSetPgApps@@UAEHPAUHWND__@@0G@Z 004a827f f   SetPgApps.obj
 0001:000a76db       ?OnComboBox@CSetPgApps@@UAEHPAUHWND__@@GG@Z 004a86db f   SetPgApps.obj
 0001:000a7934       ?OnEditChanged@CSetPgApps@@UAEJPAUHWND__@@G@Z 004a8934 f   SetPgApps.obj
 0001:000a7a2b       ?OnInitDialog@CSetPgApps@@UAEJPAUHWND__@@_N@Z 004a8a2b f   SetPgApps.obj
 0001:000a7bd1       ?PageDlgProc@CSetPgApps@@UAEHPAUHWND__@@IIJ@Z 004a8bd1 f   SetPgApps.obj
 0001:000a7d47       ?ProcessDpiChange@CSetPgApps@@UAEXPBVCDpiForDialog@@@Z 004a8d47 f   SetPgApps.obj
 0001:000a7df0       ?SetListAppName@CSetPgApps@@IAEHPBUAppSettings@@HH@Z 004a8df0 f   SetPgApps.obj
 0001:000a7eef       ?pageOpProc_AppsChild@CSetPgApps@@SGHPAUHWND__@@IIJ@Z 004a8eef f   SetPgApps.obj
 0001:000a80e2       ??0CSetPgBackgr@@QAE@XZ    004a90e2 f   SetPgBackgr.obj
 0001:000a80fe       ??_GCSetPgBackgr@@UAEPAXI@Z 004a90fe f i SetPgBackgr.obj
 0001:000a80fe       ??_ECSetPgBackgr@@UAEPAXI@Z 004a90fe f i SetPgBackgr.obj
 0001:000a8126       ?GetPageType@CSetPgBackgr@@UAE?AW4TabHwndIndex@@XZ 004a9126 f i SetPgBackgr.obj
 0001:000a812a       ?OnComboBox@CSetPgBackgr@@UAEHPAUHWND__@@GG@Z 004a912a f   SetPgBackgr.obj
 0001:000a8193       ?OnEditChanged@CSetPgBackgr@@UAEJPAUHWND__@@G@Z 004a9193 f   SetPgBackgr.obj
 0001:000a838f       ?OnInitDialog@CSetPgBackgr@@UAEJPAUHWND__@@_N@Z 004a938f f   SetPgBackgr.obj
 0001:000a84c6       ??$GetPageObj@VCSetPgFonts@@@CSettings@@QAE_NAAPAVCSetPgFonts@@@Z 004a94c6 f i SetPgBase.obj
 0001:000a84f4       ??0CSetPgBase@@QAE@XZ      004a94f4 f   SetPgBase.obj
 0001:000a8521       ??1CSetPgBase@@UAE@XZ      004a9521 f   SetPgBase.obj
 0001:000a857d       ??_GCSetPgBase@@UAEPAXI@Z  004a957d f i SetPgBase.obj
 0001:000a857d       ??_ECSetPgBase@@UAEPAXI@Z  004a957d f i SetPgBase.obj
 0001:000a859f       ?CreatePage@CSetPgBase@@SAPAUHWND__@@PAUConEmuSetupPages@@PAU2@IPBVCDpiForDialog@@@Z 004a959f f   SetPgBase.obj
 0001:000a864a       ?InitObject@CSetPgBase@@UAEXPAUHWND__@@IPBVCDpiForDialog@@PAUConEmuSetupPages@@@Z 004a964a f   SetPgBase.obj
 0001:000a8686       ?OnButtonClicked@CSetPgBase@@UAEHPAUHWND__@@0G@Z 004a9686 f   SetPgBase.obj
 0001:000a86a0       ?OnCtlColorStatic@CSetPgBase@@UAEHPAUHWND__@@PAUHDC__@@0G@Z 004a96a0 f   SetPgBase.obj
 0001:000a8732       ?OnDpiChanged@CSetPgBase@@UAEXPBVCDpiForDialog@@@Z 004a9732 f   SetPgBase.obj
 0001:000a876e       ?OnEditChanged@CSetPgBase@@UAEJPAUHWND__@@G@Z 004a976e f i SetPgBase.obj
 0001:000a8773       ?OnSetCursor@CSetPgBase@@UAEHPAUHWND__@@0GGG@Z 004a9773 f   SetPgBase.obj
 0001:000a87b8       ?ProcessDpiChange@CSetPgBase@@UAEXPBVCDpiForDialog@@@Z 004a97b8 f   SetPgBase.obj
 0001:000a8837       ?pageOpProc@CSetPgBase@@SGHPAUHWND__@@IIJ@Z 004a9837 f   SetPgBase.obj
 0001:000a8f2e       ?setCtrlTitleByHotkey@CSetPgBase@@SAXPAUHWND__@@GHPB_W1@Z 004a9f2e f   SetPgBase.obj
 0001:000a9146       ?setHotkeyCheckbox@CSetPgBase@@SAXPAUHWND__@@GHPB_W1I@Z 004aa146 f   SetPgBase.obj
 0001:000a929c       ??0CSetPgChildGui@@QAE@XZ  004aa29c f   SetPgChildGui.obj
 0001:000a92b8       ??_ECSetPgChildGui@@UAEPAXI@Z 004aa2b8 f i SetPgChildGui.obj
 0001:000a92b8       ??_GCSetPgChildGui@@UAEPAXI@Z 004aa2b8 f i SetPgChildGui.obj
 0001:000a92e0       ?GetPageType@CSetPgChildGui@@UAE?AW4TabHwndIndex@@XZ 004aa2e0 f i SetPgChildGui.obj
 0001:000a92e4       ?OnInitDialog@CSetPgChildGui@@UAEJPAUHWND__@@_N@Z 004aa2e4 f   SetPgChildGui.obj
 0001:000a9324       ??0CSetPgColors@@QAE@XZ    004aa324 f   SetPgColors.obj
 0001:000a9340       ??_ECSetPgColors@@UAEPAXI@Z 004aa340 f i SetPgColors.obj
 0001:000a9340       ??_GCSetPgColors@@UAEPAXI@Z 004aa340 f i SetPgColors.obj
 0001:000a9368       ?ColorSchemeSaveDelete@CSetPgColors@@QAEXGE@Z 004aa368 f   SetPgColors.obj
 0001:000a9442       ?GetPageType@CSetPgColors@@UAE?AW4TabHwndIndex@@XZ 004aa442 f i SetPgColors.obj
 0001:000a9446       ?OnComboBox@CSetPgColors@@UAEHPAUHWND__@@GG@Z 004aa446 f   SetPgColors.obj
 0001:000a9701       ?OnEditChanged@CSetPgColors@@UAEJPAUHWND__@@G@Z 004aa701 f   SetPgColors.obj
 0001:000a97fd       ?OnInitDialog@CSetPgColors@@UAEJPAUHWND__@@_N@Z 004aa7fd f   SetPgColors.obj
 0001:000a9af2       ??0CSetPgComspec@@QAE@XZ   004aaaf2 f   SetPgComspec.obj
 0001:000a9b0e       ??_GCSetPgComspec@@UAEPAXI@Z 004aab0e f i SetPgComspec.obj
 0001:000a9b0e       ??_ECSetPgComspec@@UAEPAXI@Z 004aab0e f i SetPgComspec.obj
 0001:000a9b36       ?GetPageType@CSetPgComspec@@UAE?AW4TabHwndIndex@@XZ 004aab36 f i SetPgComspec.obj
 0001:000a9b3a       ?LoadAutorunValue@CSetPgComspec@@QAEPA_WPAUHKEY__@@_N@Z 004aab3a f   SetPgComspec.obj
 0001:000a9cae       ?OnComboBox@CSetPgBase@@UAEHPAUHWND__@@GG@Z 004aacae f   SetPgBase.obj
 0001:000a9cae       ?OnComboBox@CSetPgComspec@@UAEHPAUHWND__@@GG@Z 004aacae f   SetPgComspec.obj
 0001:000a9cb3       ?OnEditChanged@CSetPgComspec@@UAEJPAUHWND__@@G@Z 004aacb3 f   SetPgComspec.obj
 0001:000a9cdf       ?OnInitDialog@CSetPgComspec@@UAEJPAUHWND__@@_N@Z 004aacdf f   SetPgComspec.obj
 0001:000a9da8       ?RegisterCmdAutorun@CSetPgComspec@@QAEX_N0@Z 004aada8 f   SetPgComspec.obj
 0001:000a9fee       ?ReloadAutorun@CSetPgComspec@@QAEXXZ 004aafee f   SetPgComspec.obj
 0001:000aa0aa       ??0CSetPgConfirm@@QAE@XZ   004ab0aa f   SetPgConfirm.obj
 0001:000aa0c6       ??_GCSetPgConfirm@@UAEPAXI@Z 004ab0c6 f i SetPgConfirm.obj
 0001:000aa0c6       ??_ECSetPgConfirm@@UAEPAXI@Z 004ab0c6 f i SetPgConfirm.obj
 0001:000aa0ee       ?GetPageType@CSetPgConfirm@@UAE?AW4TabHwndIndex@@XZ 004ab0ee f i SetPgConfirm.obj
 0001:000aa0f2       ?OnInitDialog@CSetPgConfirm@@UAEJPAUHWND__@@_N@Z 004ab0f2 f   SetPgConfirm.obj
 0001:000aa1fa       ??0CSetPgCursor@@QAE@XZ    004ab1fa f   SetPgCursor.obj
 0001:000aa216       ??_GCSetPgCursor@@UAEPAXI@Z 004ab216 f i SetPgCursor.obj
 0001:000aa216       ??_ECSetPgCursor@@UAEPAXI@Z 004ab216 f i SetPgCursor.obj
 0001:000aa23e       ?GetPageType@CSetPgCursor@@UAE?AW4TabHwndIndex@@XZ 004ab23e f i SetPgCursor.obj
 0001:000aa242       ?InitCursorCtrls@CSetPgCursor@@SAXPAUHWND__@@PBUAppSettings@@@Z 004ab242 f   SetPgCursor.obj
 0001:000aa39f       ?OnEditChanged@CSetPgCursor@@UAEJPAUHWND__@@G@Z 004ab39f f   SetPgCursor.obj
 0001:000aa3ef       ?OnEditChangedCursor@CSetPgCursor@@SA_NPAUHWND__@@GPAUAppSettings@@@Z 004ab3ef f   SetPgCursor.obj
 0001:000aa4e4       ?OnInitDialog@CSetPgCursor@@UAEJPAUHWND__@@_N@Z 004ab4e4 f   SetPgCursor.obj
 0001:000aa502       ??0CSetPgDebug@@QAE@XZ     004ab502 f   SetPgDebug.obj
 0001:000aa526       ??_ECSetPgDebug@@UAEPAXI@Z 004ab526 f i SetPgDebug.obj
 0001:000aa526       ??_GCSetPgDebug@@UAEPAXI@Z 004ab526 f i SetPgDebug.obj
 0001:000aa54e       ?GetActivityLoggingType@CSetPgDebug@@SA?AW4GuiLoggingType@@XZ 004ab54e f   SetPgDebug.obj
 0001:000aa564       ?GetPageType@CSetPgDebug@@UAE?AW4TabHwndIndex@@XZ 004ab564 f i SetPgDebug.obj
 0001:000aa568       ?OnActivityLogNotify@CSetPgDebug@@QAEJIJ@Z 004ab568 f   SetPgDebug.obj
 0001:000aa775       ?OnInitDialog@CSetPgDebug@@UAEJPAUHWND__@@_N@Z 004ab775 f   SetPgDebug.obj
 0001:000aa848       ?OnSaveActivityLogFile@CSetPgDebug@@QAEXXZ 004ab848 f   SetPgDebug.obj
 0001:000aab54       ?SetLoggingType@CSetPgDebug@@QAEXW4GuiLoggingType@@@Z 004abb54 f   SetPgDebug.obj
 0001:000ab266       ?debugLog@CSetPgDebug@@QAEXIJ@Z 004ac266 f   SetPgDebug.obj
 0001:000ab2ac       ?debugLogCommand@CSetPgDebug@@QAEXPAULogCommandsData@1@@Z 004ac2ac f   SetPgDebug.obj
 0001:000ab555       ?debugLogCommand@CSetPgDebug@@SAXPAUCESERVER_REQ@@HKKPB_W0@Z 004ac555 f   SetPgDebug.obj
 0001:000ab6d5       ?debugLogInfo@CSetPgDebug@@QAEXPAUCESERVER_REQ_PEEKREADINFO@@@Z 004ac6d5 f   SetPgDebug.obj
 0001:000abd8d       ?debugLogShell@CSetPgDebug@@QAEXPAUDebugLogShellActivity@1@@Z 004acd8d f   SetPgDebug.obj
 0001:000ac295       ?debugLogShell@CSetPgDebug@@SAXKPAUCESERVER_REQ_ONCREATEPROCESS@@@Z 004ad295 f   SetPgDebug.obj
 0001:000ac6a0       ?debugLogShellText@CSetPgDebug@@KAXAAPA_WPB_W@Z 004ad6a0 f   SetPgDebug.obj
 0001:000ac783       ?debugLogString@CSetPgDebug@@QAEXPAULogRConString@1@@Z 004ad783 f   SetPgDebug.obj
 0001:000ac906       ??0CSetPgDefTerm@@QAE@XZ   004ad906 f   SetPgDefTerm.obj
 0001:000ac922       ??_ECSetPgDefTerm@@UAEPAXI@Z 004ad922 f i SetPgDefTerm.obj
 0001:000ac922       ??_GCSetPgDefTerm@@UAEPAXI@Z 004ad922 f i SetPgDefTerm.obj
 0001:000ac94a       ?GetPageType@CSetPgDefTerm@@UAE?AW4TabHwndIndex@@XZ 004ad94a f i SetPgDefTerm.obj
 0001:000ac94e       ?OnEditChanged@CSetPgDefTerm@@UAEJPAUHWND__@@G@Z 004ad94e f   SetPgDefTerm.obj
 0001:000ac9c9       ?OnInitDialog@CSetPgDefTerm@@UAEJPAUHWND__@@_N@Z 004ad9c9 f   SetPgDefTerm.obj
 0001:000acb2b       ??0CSetPgEnvironment@@QAE@XZ 004adb2b f   SetPgEnvironment.obj
 0001:000acb47       ??_ECSetPgEnvironment@@UAEPAXI@Z 004adb47 f i SetPgEnvironment.obj
 0001:000acb47       ??_GCSetPgEnvironment@@UAEPAXI@Z 004adb47 f i SetPgEnvironment.obj
 0001:000acb6f       ?GetPageType@CSetPgEnvironment@@UAE?AW4TabHwndIndex@@XZ 004adb6f f i SetPgEnvironment.obj
 0001:000acb73       ?OnEditChanged@CSetPgEnvironment@@UAEJPAUHWND__@@G@Z 004adb73 f   SetPgEnvironment.obj
 0001:000acbd0       ?OnInitDialog@CSetPgEnvironment@@UAEJPAUHWND__@@_N@Z 004adbd0 f   SetPgEnvironment.obj
 0001:000acc34       ??0CSetPgFar@@QAE@XZ       004adc34 f   SetPgFar.obj
 0001:000acc50       ??_ECSetPgFar@@UAEPAXI@Z   004adc50 f i SetPgFar.obj
 0001:000acc50       ??_GCSetPgFar@@UAEPAXI@Z   004adc50 f i SetPgFar.obj
 0001:000acc78       ?GetPageType@CSetPgFar@@UAE?AW4TabHwndIndex@@XZ 004adc78 f i SetPgFar.obj
 0001:000acc7c       ?OnComboBox@CSetPgFar@@UAEHPAUHWND__@@GG@Z 004adc7c f   SetPgFar.obj
 0001:000accc3       ?OnEditChanged@CSetPgFar@@UAEJPAUHWND__@@G@Z 004adcc3 f   SetPgFar.obj
 0001:000acdd7       ?OnInitDialog@CSetPgFar@@UAEJPAUHWND__@@_N@Z 004addd7 f   SetPgFar.obj
 0001:000ad044       ??0CSetPgFarMacro@@QAE@XZ  004ae044 f   SetPgFarMacro.obj
 0001:000ad060       ??_GCSetPgFarMacro@@UAEPAXI@Z 004ae060 f i SetPgFarMacro.obj
 0001:000ad060       ??_ECSetPgFarMacro@@UAEPAXI@Z 004ae060 f i SetPgFarMacro.obj
 0001:000ad088       ?GetPageType@CSetPgFarMacro@@UAE?AW4TabHwndIndex@@XZ 004ae088 f i SetPgFarMacro.obj
 0001:000ad08c       ?OnComboBox@CSetPgFarMacro@@UAEHPAUHWND__@@GG@Z 004ae08c f   SetPgFarMacro.obj
 0001:000ad140       ?OnInitDialog@CSetPgFarMacro@@UAEJPAUHWND__@@_N@Z 004ae140 f   SetPgFarMacro.obj
 0001:000ad2b7       ??0CSetPgFeatures@@QAE@XZ  004ae2b7 f   SetPgFeatures.obj
 0001:000ad2d3       ??_GCSetPgFeatures@@UAEPAXI@Z 004ae2d3 f i SetPgFeatures.obj
 0001:000ad2d3       ??_ECSetPgFeatures@@UAEPAXI@Z 004ae2d3 f i SetPgFeatures.obj
 0001:000ad2fb       ?GetPageType@CSetPgFeatures@@UAE?AW4TabHwndIndex@@XZ 004ae2fb f i SetPgFeatures.obj
 0001:000ad2ff       ?OnEditChanged@CSetPgFeatures@@UAEJPAUHWND__@@G@Z 004ae2ff f   SetPgFeatures.obj
 0001:000ad357       ?OnInitDialog@CSetPgFeatures@@UAEJPAUHWND__@@_N@Z 004ae357 f   SetPgFeatures.obj
 0001:000ad5c8       ?UpdateLogLocation@CSetPgFeatures@@IAEXXZ 004ae5c8 f   SetPgFeatures.obj
 0001:000ad643       ??0CSetPgFonts@@QAE@XZ     004ae643 f   SetPgFonts.obj
 0001:000ad65f       ??_ECSetPgFonts@@UAEPAXI@Z 004ae65f f i SetPgFonts.obj
 0001:000ad65f       ??_GCSetPgFonts@@UAEPAXI@Z 004ae65f f i SetPgFonts.obj
 0001:000ad687       ?CopyFontsTo@CSetPgFonts@@QAAXPAUHWND__@@HZZ 004ae687 f   SetPgFonts.obj
 0001:000ad89f       ?OnComboBox@CSetPgFonts@@UAEHPAUHWND__@@GG@Z 004ae89f f   SetPgFonts.obj
 0001:000ada1e       ?OnInitDialog@CSetPgFonts@@UAEJPAUHWND__@@_N@Z 004aea1e f   SetPgFonts.obj
 0001:000adedf       ??0CSetPgHilight@@QAE@XZ   004aeedf f   SetPgHilight.obj
 0001:000adefb       ??_GCSetPgHilight@@UAEPAXI@Z 004aeefb f i SetPgHilight.obj
 0001:000adefb       ??_ECSetPgHilight@@UAEPAXI@Z 004aeefb f i SetPgHilight.obj
 0001:000adf23       ?GetPageType@CSetPgHilight@@UAE?AW4TabHwndIndex@@XZ 004aef23 f i SetPgHilight.obj
 0001:000adf27       ?OnComboBox@CSetPgHilight@@UAEHPAUHWND__@@GG@Z 004aef27 f   SetPgHilight.obj
 0001:000adfae       ?OnInitDialog@CSetPgHilight@@UAEJPAUHWND__@@_N@Z 004aefae f   SetPgHilight.obj
 0001:000ae0ae       ??0CSetPgInfo@@QAE@XZ      004af0ae f   SetPgInfo.obj
 0001:000ae0ca       ??_GCSetPgInfo@@UAEPAXI@Z  004af0ca f i SetPgInfo.obj
 0001:000ae0ca       ??_ECSetPgInfo@@UAEPAXI@Z  004af0ca f i SetPgInfo.obj
 0001:000ae0f2       ?FillConsoleMode@CSetPgInfo@@QAEXPAUHWND__@@PAVCRealConsole@@@Z 004af0f2 f   SetPgInfo.obj
 0001:000ae1da       ?FillCursorInfo@CSetPgInfo@@QAEXPAUHWND__@@PBUConsoleInfoArg@@@Z 004af1da f   SetPgInfo.obj
 0001:000ae24c       ?FillFontInfo@CSetPgInfo@@QAEXPAUHWND__@@@Z 004af24c f   SetPgInfo.obj
 0001:000ae340       ?GetPageType@CSetPgInfo@@UAE?AW4TabHwndIndex@@XZ 004af340 f i SetPgInfo.obj
 0001:000ae344       ?OnInitDialog@CSetPgInfo@@UAEJPAUHWND__@@_N@Z 004af344 f   SetPgInfo.obj
 0001:000ae3ed       ?OnPostLocalize@CSetPgInfo@@UAEXPAUHWND__@@@Z 004af3ed f   SetPgInfo.obj
 0001:000ae452       ??$SafeDelete@USwitch@@@@YAXAAPAUSwitch@@@Z 004af452 f i SetPgIntegr.obj
 0001:000ae483       ??0CSetPgIntegr@@QAE@XZ    004af483 f   SetPgIntegr.obj
 0001:000ae49f       ??0Switch@@QAE@$$QAPA_W0@Z 004af49f f i SetPgIntegr.obj
 0001:000ae4e4       ??0SwitchParser@@QAE@XZ    004af4e4 f i SetPgIntegr.obj
 0001:000ae557       ??1SwitchParser@@QAE@XZ    004af557 f i SetPgIntegr.obj
 0001:000ae5c9       ??_ECSetPgIntegr@@UAEPAXI@Z 004af5c9 f i SetPgIntegr.obj
 0001:000ae5c9       ??_GCSetPgIntegr@@UAEPAXI@Z 004af5c9 f i SetPgIntegr.obj
 0001:000ae5f1       ??_GSwitch@@QAEPAXI@Z      004af5f1 f i SetPgIntegr.obj
 0001:000ae620       ?CreateCommand@SwitchParser@@QAEPB_WAAUCEStr@@@Z 004af620 f i SetPgIntegr.obj
 0001:000ae759       ?FillHereValues@CSetPgIntegr@@IAEXG@Z 004af759 f   SetPgIntegr.obj
 0001:000aeae9       ?GetNextPair@SwitchParser@@QAEPAUSwitch@@AAPB_W@Z 004afae9 f i SetPgIntegr.obj
 0001:000aeb52       ?GetNextSwitch@SwitchParser@@QAEPAUSwitch@@AAPB_WAAUCEStr@@@Z 004afb52 f i SetPgIntegr.obj
 0001:000aebf6       ?GetPageType@CSetPgIntegr@@UAE?AW4TabHwndIndex@@XZ 004afbf6 f i SetPgIntegr.obj
 0001:000aebfa       ?IsIgnored@SwitchParser@@QAE_NPAUSwitch@@AAV?$MArray@PAUSwitch@@@@@Z 004afbfa f i SetPgIntegr.obj
 0001:000aec59       ?IsIgnored@SwitchParser@@QAE_NPAUSwitch@@PAPB_W@Z 004afc59 f i SetPgIntegr.obj
 0001:000aec91       ?OnInitDialog@CSetPgIntegr@@UAEJPAUHWND__@@_N@Z 004afc91 f   SetPgIntegr.obj
 0001:000aee62       ?PageDlgProc@CSetPgIntegr@@UAEHPAUHWND__@@IIJ@Z 004afe62 f   SetPgIntegr.obj
 0001:000af01d       ?ParseStdSwitches@SwitchParser@@QAEXXZ 004b001d f i SetPgIntegr.obj
 0001:000af0e3       ?RegisterShell@CSetPgIntegr@@SAXPB_W0000@Z 004b00e3 f   SetPgIntegr.obj
 0001:000af594       ?ReleaseVectors@SwitchParser@@QAEXXZ 004b0594 f i SetPgIntegr.obj
 0001:000af5d7       ?ReloadHereList@CSetPgIntegr@@IAE_NPAH0@Z 004b05d7 f   SetPgIntegr.obj
 0001:000afa2d       ?ShellIntegration@CSetPgIntegr@@QAEXPAUHWND__@@W4ShellIntegrType@1@_N2@Z 004b0a2d f   SetPgIntegr.obj
 0001:000afcc2       ?StripDupSwitches@SwitchParser@@QAEXPB_W@Z 004b0cc2 f i SetPgIntegr.obj
 0001:000aff7f       ?UnregisterShell@CSetPgIntegr@@SAXPB_W@Z 004b0f7f f   SetPgIntegr.obj
 0001:000affdb       ?UnregisterShellInvalids@CSetPgIntegr@@SAXXZ 004b0fdb f   SetPgIntegr.obj
 0001:000b024a       ??0CSetPgKeyboard@@QAE@XZ  004b124a f   SetPgKeyboard.obj
 0001:000b0266       ??_ECSetPgKeyboard@@UAEPAXI@Z 004b1266 f i SetPgKeyboard.obj
 0001:000b0266       ??_GCSetPgKeyboard@@UAEPAXI@Z 004b1266 f i SetPgKeyboard.obj
 0001:000b028e       ?GetPageType@CSetPgKeyboard@@UAE?AW4TabHwndIndex@@XZ 004b128e f i SetPgKeyboard.obj
 0001:000b0292       ?OnInitDialog@CSetPgKeyboard@@UAEJPAUHWND__@@_N@Z 004b1292 f   SetPgKeyboard.obj
 0001:000b040d       ??$GetPageObj@VCSetPgKeys@@@CSettings@@QAE_NAAPAVCSetPgKeys@@@Z 004b140d f i SetPgKeys.obj
 0001:000b043c       ??0CSetPgKeys@@QAE@XZ      004b143c f   SetPgKeys.obj
 0001:000b0476       ??1CSetPgKeys@@UAE@XZ      004b1476 f   SetPgKeys.obj
 0001:000b048f       ??_GCSetPgKeys@@UAEPAXI@Z  004b148f f i SetPgKeys.obj
 0001:000b048f       ??_ECSetPgKeys@@UAEPAXI@Z  004b148f f i SetPgKeys.obj
 0001:000b04b4       ?FillHotKeysList@CSetPgKeys@@QAEXPAUHWND__@@_N@Z 004b14b4 f   SetPgKeys.obj
 0001:000b0a54       ?GetPageType@CSetPgKeys@@UAE?AW4TabHwndIndex@@XZ 004b1a54 f i SetPgKeys.obj
 0001:000b0a58       ?HotkeysCompare@CSetPgKeys@@SGHJJJ@Z 004b1a58 f   SetPgKeys.obj
 0001:000b0baa       ?OnButtonClicked@CSetPgKeys@@UAEHPAUHWND__@@0G@Z 004b1baa f   SetPgKeys.obj
 0001:000b0bcb       ?OnComboBox@CSetPgKeys@@UAEHPAUHWND__@@GG@Z 004b1bcb f   SetPgKeys.obj
 0001:000b0e6d       ?OnEditChanged@CSetPgKeys@@UAEJPAUHWND__@@G@Z 004b1e6d f   SetPgKeys.obj
 0001:000b0f79       ?OnHotkeysNotify@CSetPgKeys@@QAEJPAUHWND__@@IJ@Z 004b1f79 f   SetPgKeys.obj
 0001:000b148d       ?OnInitDialog@CSetPgKeys@@UAEJPAUHWND__@@_N@Z 004b248d f   SetPgKeys.obj
 0001:000b1724       ?PageDlgProc@CSetPgKeys@@UAEHPAUHWND__@@IIJ@Z 004b2724 f   SetPgKeys.obj
 0001:000b17e1       ?QueryDialogCancel@CSetPgKeys@@UAE_NXZ 004b27e1 f   SetPgKeys.obj
 0001:000b1832       ?ReInitHotkeys@CSetPgKeys@@SAXXZ 004b2832 f   SetPgKeys.obj
 0001:000b186a       ?RefilterHotkeys@CSetPgKeys@@QAEX_N@Z 004b286a f   SetPgKeys.obj
 0001:000b1891       ?SetHotkeyVkMod@CSetPgKeys@@QAEXPAUConEmuHotKey@@K@Z 004b2891 f   SetPgKeys.obj
 0001:000b18bc       ??$GetPageObj@VCSetPgMarkCopy@@@CSettings@@QAE_NAAPAVCSetPgMarkCopy@@@Z 004b28bc f i SetPgMarkCopy.obj
 0001:000b18eb       ??0CSetPgMarkCopy@@QAE@XZ  004b28eb f   SetPgMarkCopy.obj
 0001:000b190b       ??_GCSetPgMarkCopy@@UAEPAXI@Z 004b290b f i SetPgMarkCopy.obj
 0001:000b190b       ??_ECSetPgMarkCopy@@UAEPAXI@Z 004b290b f i SetPgMarkCopy.obj
 0001:000b1933       ?GetPageType@CSetPgMarkCopy@@UAE?AW4TabHwndIndex@@XZ 004b2933 f i SetPgMarkCopy.obj
 0001:000b1937       ?MarkCopyPreviewProc@CSetPgMarkCopy@@KGJPAUHWND__@@IIJ@Z 004b2937 f   SetPgMarkCopy.obj
 0001:000b1c03       ?OnComboBox@CSetPgMarkCopy@@UAEHPAUHWND__@@GG@Z 004b2c03 f   SetPgMarkCopy.obj
 0001:000b1d9e       ?OnEditChanged@CSetPgMarkCopy@@UAEJPAUHWND__@@G@Z 004b2d9e f   SetPgMarkCopy.obj
 0001:000b1de4       ?OnInitDialog@CSetPgMarkCopy@@UAEJPAUHWND__@@_N@Z 004b2de4 f   SetPgMarkCopy.obj
 0001:000b217b       ??0CSetPgMouse@@QAE@XZ     004b317b f   SetPgMouse.obj
 0001:000b2197       ??_GCSetPgMouse@@UAEPAXI@Z 004b3197 f i SetPgMouse.obj
 0001:000b2197       ??_ECSetPgMouse@@UAEPAXI@Z 004b3197 f i SetPgMouse.obj
 0001:000b21bf       ?GetPageType@CSetPgMouse@@UAE?AW4TabHwndIndex@@XZ 004b31bf f i SetPgMouse.obj
 0001:000b21c3       ?OnComboBox@CSetPgMouse@@UAEHPAUHWND__@@GG@Z 004b31c3 f   SetPgMouse.obj
 0001:000b228e       ?OnInitDialog@CSetPgMouse@@UAEJPAUHWND__@@_N@Z 004b328e f   SetPgMouse.obj
 0001:000b23e1       ?OnPostLocalize@CSetPgMouse@@UAEXPAUHWND__@@@Z 004b33e1 f   SetPgMouse.obj
 0001:000b2404       ??0CSetPgPaste@@QAE@XZ     004b3404 f   SetPgPaste.obj
 0001:000b2420       ??_ECSetPgPaste@@UAEPAXI@Z 004b3420 f i SetPgPaste.obj
 0001:000b2420       ??_GCSetPgPaste@@UAEPAXI@Z 004b3420 f i SetPgPaste.obj
 0001:000b2448       ?GetPageType@CSetPgPaste@@UAE?AW4TabHwndIndex@@XZ 004b3448 f i SetPgPaste.obj
 0001:000b244c       ?OnBtn_ClipConfirmEnter@CSetPgPaste@@SAXPAUHWND__@@GE@Z 004b344c f   SetPgPaste.obj
 0001:000b2463       ?OnBtn_ClipConfirmLimit@CSetPgPaste@@SAXPAUHWND__@@GE@Z 004b3463 f   SetPgPaste.obj
 0001:000b24d5       ?OnBtn_ClipCtrlV@CSetPgPaste@@SAXPAUHWND__@@GE@Z 004b34d5 f   SetPgPaste.obj
 0001:000b252a       ?OnBtn_ClipPosixCvt@CSetPgPaste@@SAXPAUHWND__@@GE@Z 004b352a f   SetPgPaste.obj
 0001:000b256e       ?OnBtn_ClipShiftIns@CSetPgPaste@@SAXPAUHWND__@@GE@Z 004b356e f   SetPgPaste.obj
 0001:000b25c3       ?OnEditChanged@CSetPgPaste@@UAEJPAUHWND__@@G@Z 004b35c3 f   SetPgPaste.obj
 0001:000b2667       ?OnInitDialog@CSetPgPaste@@UAEJPAUHWND__@@_N@Z 004b3667 f   SetPgPaste.obj
 0001:000b2766       ?OnPostLocalize@CSetPgPaste@@UAEXPAUHWND__@@@Z 004b3766 f   SetPgPaste.obj
 0001:000b27a6       ??0CSetPgQuake@@QAE@XZ     004b37a6 f   SetPgQuake.obj
 0001:000b27c2       ??_ECSetPgQuake@@UAEPAXI@Z 004b37c2 f i SetPgQuake.obj
 0001:000b27c2       ??_GCSetPgQuake@@UAEPAXI@Z 004b37c2 f i SetPgQuake.obj
 0001:000b27ea       ?GetPageType@CSetPgQuake@@UAE?AW4TabHwndIndex@@XZ 004b37ea f i SetPgQuake.obj
 0001:000b27ee       ?OnEditChanged@CSetPgQuake@@UAEJPAUHWND__@@G@Z 004b37ee f   SetPgQuake.obj
 0001:000b290b       ?OnInitDialog@CSetPgQuake@@UAEJPAUHWND__@@_N@Z 004b390b f   SetPgQuake.obj
 0001:000b29ec       ??0CSetPgSizePos@@QAE@XZ   004b39ec f   SetPgSizePos.obj
 0001:000b2a08       ??_GCSetPgSizePos@@UAEPAXI@Z 004b3a08 f i SetPgSizePos.obj
 0001:000b2a08       ??_ECSetPgSizePos@@UAEPAXI@Z 004b3a08 f i SetPgSizePos.obj
 0001:000b2a30       ?EnablePosSizeControls@CSetPgSizePos@@QAEXPAUHWND__@@@Z 004b3a30 f   SetPgSizePos.obj
 0001:000b2ae1       ?FillSizeControls@CSetPgSizePos@@QAEXPAUHWND__@@@Z 004b3ae1 f   SetPgSizePos.obj
 0001:000b2b90       ?OnComboBox@CSetPgSizePos@@UAEHPAUHWND__@@GG@Z 004b3b90 f   SetPgSizePos.obj
 0001:000b2be8       ?OnEditChanged@CSetPgSizePos@@UAEJPAUHWND__@@G@Z 004b3be8 f   SetPgSizePos.obj
 0001:000b2e46       ?OnInitDialog@CSetPgSizePos@@UAEJPAUHWND__@@_N@Z 004b3e46 f   SetPgSizePos.obj
 0001:000b3162       ?OnPostLocalize@CSetPgSizePos@@UAEXPAUHWND__@@@Z 004b4162 f   SetPgSizePos.obj
 0001:000b3204       ??0CSetPgStartup@@QAE@XZ   004b4204 f   SetPgStartup.obj
 0001:000b3220       ??_ECSetPgStartup@@UAEPAXI@Z 004b4220 f i SetPgStartup.obj
 0001:000b3220       ??_GCSetPgStartup@@UAEPAXI@Z 004b4220 f i SetPgStartup.obj
 0001:000b3248       ?GetPageType@CSetPgStartup@@UAE?AW4TabHwndIndex@@XZ 004b4248 f i SetPgStartup.obj
 0001:000b324c       ?OnInitDialog@CSetPgStartup@@UAEJPAUHWND__@@_N@Z 004b424c f   SetPgStartup.obj
 0001:000b3269       ?PageDlgProc@CSetPgStartup@@UAEHPAUHWND__@@IIJ@Z 004b4269 f   SetPgStartup.obj
 0001:000b398b       ??0CSetPgStatus@@QAE@XZ    004b498b f   SetPgStatus.obj
 0001:000b39a7       ??_GCSetPgStatus@@UAEPAXI@Z 004b49a7 f i SetPgStatus.obj
 0001:000b39a7       ??_ECSetPgStatus@@UAEPAXI@Z 004b49a7 f i SetPgStatus.obj
 0001:000b39cf       ?GetPageType@CSetPgStatus@@UAE?AW4TabHwndIndex@@XZ 004b49cf f i SetPgStatus.obj
 0001:000b39d3       ?OnComboBox@CSetPgStatus@@UAEHPAUHWND__@@GG@Z 004b49d3 f   SetPgStatus.obj
 0001:000b3b02       ?OnEditChanged@CSetPgStatus@@UAEJPAUHWND__@@G@Z 004b4b02 f   SetPgStatus.obj
 0001:000b3b75       ?OnInitDialog@CSetPgStatus@@UAEJPAUHWND__@@_N@Z 004b4b75 f   SetPgStatus.obj
 0001:000b3ce9       ?UpdateStatusItems@CSetPgStatus@@QAEXPAUHWND__@@@Z 004b4ce9 f   SetPgStatus.obj
 0001:000b3e2c       ??0CSetPgTabs@@QAE@XZ      004b4e2c f   SetPgTabs.obj
 0001:000b3e48       ??_ECSetPgTabs@@UAEPAXI@Z  004b4e48 f i SetPgTabs.obj
 0001:000b3e48       ??_GCSetPgTabs@@UAEPAXI@Z  004b4e48 f i SetPgTabs.obj
 0001:000b3e70       ?GetPageType@CSetPgTabs@@UAE?AW4TabHwndIndex@@XZ 004b4e70 f i SetPgTabs.obj
 0001:000b3e74       ?OnComboBox@CSetPgTabs@@UAEHPAUHWND__@@GG@Z 004b4e74 f   SetPgTabs.obj
 0001:000b4041       ?OnEditChanged@CSetPgTabs@@UAEJPAUHWND__@@G@Z 004b5041 f   SetPgTabs.obj
 0001:000b423a       ?OnInitDialog@CSetPgTabs@@UAEJPAUHWND__@@_N@Z 004b523a f   SetPgTabs.obj
 0001:000b44e5       ??0CSetPgTaskbar@@QAE@XZ   004b54e5 f   SetPgTaskbar.obj
 0001:000b4501       ??_GCSetPgTaskbar@@UAEPAXI@Z 004b5501 f i SetPgTaskbar.obj
 0001:000b4501       ??_ECSetPgTaskbar@@UAEPAXI@Z 004b5501 f i SetPgTaskbar.obj
 0001:000b4529       ?GetPageType@CSetPgTaskbar@@UAE?AW4TabHwndIndex@@XZ 004b5529 f i SetPgTaskbar.obj
 0001:000b452d       ?OnInitDialog@CSetPgTaskbar@@UAEJPAUHWND__@@_N@Z 004b552d f   SetPgTaskbar.obj
 0001:000b4821       ??0CSetPgTasks@@QAE@XZ     004b5821 f   SetPgTasks.obj
 0001:000b4843       ??_GCSetPgTasks@@UAEPAXI@Z 004b5843 f i SetPgTasks.obj
 0001:000b4843       ??_ECSetPgTasks@@UAEPAXI@Z 004b5843 f i SetPgTasks.obj
 0001:000b486b       ?GetPageType@CSetPgTasks@@UAE?AW4TabHwndIndex@@XZ 004b586b f i SetPgTasks.obj
 0001:000b486f       ?OnComboBox@CSetPgTasks@@UAEHPAUHWND__@@GG@Z 004b586f f   SetPgTasks.obj
 0001:000b4ad1       ?OnEditChanged@CSetPgTasks@@UAEJPAUHWND__@@G@Z 004b5ad1 f   SetPgTasks.obj
 0001:000b4c71       ?OnInitDialog@CSetPgTasks@@UAEJPAUHWND__@@_N@Z 004b5c71 f   SetPgTasks.obj
 0001:000b4e6a       ?SelectNextItem@CSetPgTasks@@UAE_N_N0@Z 004b5e6a f   SetPgTasks.obj
 0001:000b4ed9       ??0CSetPgTransparent@@QAE@XZ 004b5ed9 f   SetPgTransparent.obj
 0001:000b4ef5       ??_ECSetPgTransparent@@UAEPAXI@Z 004b5ef5 f i SetPgTransparent.obj
 0001:000b4ef5       ??_GCSetPgTransparent@@UAEPAXI@Z 004b5ef5 f i SetPgTransparent.obj
 0001:000b4f1d       ?GetPageType@CSetPgTransparent@@UAE?AW4TabHwndIndex@@XZ 004b5f1d f i SetPgTransparent.obj
 0001:000b4f24       ?OnInitDialog@CSetPgTransparent@@UAEJPAUHWND__@@_N@Z 004b5f24 f   SetPgTransparent.obj
 0001:000b5084       ??0CSetPgUpdate@@QAE@XZ    004b6084 f   SetPgUpdate.obj
 0001:000b50a0       ??_ECSetPgUpdate@@UAEPAXI@Z 004b60a0 f i SetPgUpdate.obj
 0001:000b50a0       ??_GCSetPgUpdate@@UAEPAXI@Z 004b60a0 f i SetPgUpdate.obj
 0001:000b50c8       ?GetPageType@CSetPgUpdate@@UAE?AW4TabHwndIndex@@XZ 004b60c8 f i SetPgUpdate.obj
 0001:000b50cc       ?OnEditChanged@CSetPgUpdate@@UAEJPAUHWND__@@G@Z 004b60cc f   SetPgUpdate.obj
 0001:000b51b4       ?OnInitDialog@CSetPgUpdate@@UAEJPAUHWND__@@_N@Z 004b61b4 f   SetPgUpdate.obj
 0001:000b541d       ??0CSetPgViews@@QAE@XZ     004b641d f   SetPgViews.obj
 0001:000b5439       ??_GCSetPgViews@@UAEPAXI@Z 004b6439 f i SetPgViews.obj
 0001:000b5439       ??_ECSetPgViews@@UAEPAXI@Z 004b6439 f i SetPgViews.obj
 0001:000b5461       ?GetPageType@CSetPgViews@@UAE?AW4TabHwndIndex@@XZ 004b6461 f i SetPgViews.obj
 0001:000b5465       ?OnComboBox@CSetPgViews@@UAEHPAUHWND__@@GG@Z 004b6465 f   SetPgViews.obj
 0001:000b568d       ?OnEditChanged@CSetPgViews@@UAEJPAUHWND__@@G@Z 004b668d f   SetPgViews.obj
 0001:000b5871       ?OnInitDialog@CSetPgViews@@UAEJPAUHWND__@@_N@Z 004b6871 f   SetPgViews.obj
 0001:000b5ca1       ?Transparent_IsMenuChecked@CStatus@@SAHHPAH@Z 004b6ca1 f   Status.obj
 0001:000b5d41       ?Zoom_IsMenuChecked@CStatus@@SAHHPAH@Z 004b6d41 f   Status.obj
 0001:000b5d7c       ?TermMode_IsMenuChecked@CStatus@@SAHHPAH@Z 004b6d7c f   Status.obj
 0001:000b5e04       ??0CStatus@@QAE@XZ         004b6e04 f   Status.obj
 0001:000b6017       ??1CStatus@@UAE@XZ         004b7017 f   Status.obj
 0001:000b6051       ??_ECStatus@@UAEPAXI@Z     004b7051 f i Status.obj
 0001:000b6051       ??_GCStatus@@UAEPAXI@Z     004b7051 f i Status.obj
 0001:000b6076       ?CreateStatusMenu@CStatus@@IAEPAUHMENU__@@PAUStatusMenuOptions@1@I@Z 004b7076 f   Status.obj
 0001:000b614d       ?DoStatusResize@CStatus@@AAEXABUtagPOINT@@@Z 004b714d f   Status.obj
 0001:000b6234       ?GetAllStatusCols@CStatus@@SAIPAPAUStatusColInfo@@@Z 004b7234 f   Status.obj
 0001:000b6249       ?GetSettingName@CStatus@@QAEPB_WW4CEStatusItems@@@Z 004b7249 f   Status.obj
 0001:000b626c       ?GetStatusBarClientRect@CStatus@@QAE_NPAUtagRECT@@@Z 004b726c f   Status.obj
 0001:000b62df       ?GetStatusBarItemRect@CStatus@@QAE_NW4CEStatusItems@@PAUtagRECT@@@Z 004b72df f   Status.obj
 0001:000b634a       ?GetStatusMenuItem@CStatus@@IAEPAUStatusMenuOptions@1@GPAU21@I@Z 004b734a f   Status.obj
 0001:000b6380       ?InvalidateStatusBar@CStatus@@QAEXPAUtagRECT@@@Z 004b7380 f   Status.obj
 0001:000b63f8       ?IsCursorOverResizeMark@CStatus@@QAE_NUtagPOINT@@@Z 004b73f8 f   Status.obj
 0001:000b6424       ?IsKeyboardChanged@CStatus@@AAE_NXZ 004b7424 f   Status.obj
 0001:000b6518       ?IsResizeAllowed@CStatus@@QAE_NXZ 004b7518 f   Status.obj
 0001:000b6555       ?IsStatusResizing@CStatus@@QAE_NXZ 004b7555 f   Status.obj
 0001:000b656d       ?IsTimeChanged@CStatus@@AAE_NXZ 004b756d f   Status.obj
 0001:000b6613       ?IsWindowChanged@CStatus@@AAE_NXZ 004b7613 f   Status.obj
 0001:000b677b       ?LoadActiveProcess@CStatus@@AAE_NPAVCRealConsole@@PA_WH@Z 004b777b f   Status.obj
 0001:000b67d9       ?OnActiveVConChanged@CStatus@@QAEXHPAVCRealConsole@@@Z 004b77d9 f   Status.obj
 0001:000b697d       ?OnConsoleBufferChanged@CStatus@@QAEXPAVCRealConsole@@@Z 004b797d f   Status.obj
 0001:000b6a57       ?OnConsoleChanged@CStatus@@QAEXPBU_CONSOLE_SCREEN_BUFFER_INFO@@PBU_CONSOLE_CURSOR_INFO@@PBUTOPLEFTCOORD@@_N@Z 004b7a57 f   Status.obj
 0001:000b6d36       ?OnCursorChanged@CStatus@@QAEXPBU_COORD@@PBU_CONSOLE_CURSOR_INFO@@HH@Z 004b7d36 f   Status.obj
 0001:000b6f36       ?OnDataChanged@CStatus@@AAE_NPAW4CEStatusItems@@I_N@Z 004b7f36 f   Status.obj
 0001:000b6fb7       ?OnKeyboardChanged@CStatus@@QAEXXZ 004b7fb7 f   Status.obj
 0001:000b6fd0       ?OnServerChanged@CStatus@@QAEXKK@Z 004b7fd0 f   Status.obj
 0001:000b7062       ?OnTimer@CStatus@@QAEXXZ   004b8062 f   Status.obj
 0001:000b715e       ?OnTransparency@CStatus@@QAEXXZ 004b815e f   Status.obj
 0001:000b71e7       ?OnWindowReposition@CStatus@@QAEXPBUtagRECT@@@Z 004b81e7 f   Status.obj
 0001:000b74b8       ?PaintStatus@CStatus@@QAEXPAUHDC__@@PAUtagRECT@@@Z 004b84b8 f   Status.obj
 0001:000b8410       ?ProcessMenuHighlight@CStatus@@QAEXPAUHMENU__@@GG@Z 004b9410 f   Status.obj
 0001:000b8476       ?ProcessStatusMessage@CStatus@@QAE_NPAUHWND__@@IIJUtagPOINT@@AAJ@Z 004b9476 f   Status.obj
 0001:000b8980       ?ProcessTermModeMenuId@CStatus@@AAE_NG@Z 004b9980 f   Status.obj
 0001:000b8a01       ?ProcessTransparentMenuId@CStatus@@AAE_NG_N@Z 004b9a01 f   Status.obj
 0001:000b8ad4       ?ProcessZoomMenuId@CStatus@@AAE_NG@Z 004b9ad4 f   Status.obj
 0001:000b8b04       ?SetClickedItemDesc@CStatus@@AAEXW4CEStatusItems@@@Z 004b9b04 f   Status.obj
 0001:000b8b46       ?SetStatus@CStatus@@QAEXPB_W@Z 004b9b46 f   Status.obj
 0001:000b8bc2       ?ShowStatusBarMenu@CStatus@@IAEHUtagPOINT@@PAUHMENU__@@W4CEStatusItems@@@Z 004b9bc2 f   Status.obj
 0001:000b8c73       ?ShowStatusSetupMenu@CStatus@@AAEXXZ 004b9c73 f   Status.obj
 0001:000b8fa5       ?ShowTermModeMenu@CStatus@@AAEXUtagPOINT@@@Z 004b9fa5 f   Status.obj
 0001:000b8ff1       ?ShowTransparencyMenu@CStatus@@AAEXUtagPOINT@@@Z 004b9ff1 f   Status.obj
 0001:000b909f       ?ShowVConMenu@CStatus@@AAEXUtagPOINT@@@Z 004ba09f f   Status.obj
 0001:000b90d4       ?ShowZoomMenu@CStatus@@AAEXUtagPOINT@@@Z 004ba0d4 f   Status.obj
 0001:000b9157       ?UpdateStatusBar@CStatus@@QAEX_N0@Z 004ba157 f   Status.obj
 0001:000b91ee       ?isSettingsOpened@CStatus@@AAE_NI@Z 004ba1ee f   Status.obj
 0001:000b9241       ??0CTabBarClass@@QAE@XZ    004ba241 f   TabBar.obj
 0001:000b9340       ??1?$MMap@IPBD$0A@@@QAE@XZ 004ba340 f i ConEmu.obj
 0001:000b9340       ??1?$MMap@PAVCVConGroup@@PAVCVirtualConsole@@$0A@@@QAE@XZ 004ba340 f i TabBar.obj
 0001:000b9340       ??1?$MMap@KH$0A@@@QAE@XZ   004ba340 f i RealConsole.obj
 0001:000b937f       ??1CTabBarClass@@UAE@XZ    004ba37f f   TabBar.obj
 0001:000b942e       ??_ECTabBarClass@@UAEPAXI@Z 004ba42e f i TabBar.obj
 0001:000b942e       ??_GCTabBarClass@@UAEPAXI@Z 004ba42e f i TabBar.obj
 0001:000b9453       ?Activate@CTabBarClass@@QAEXH@Z 004ba453 f   TabBar.obj
 0001:000b94ab       ?ActivateSearchPane@CTabBarClass@@QAEPAUHWND__@@_N@Z 004ba4ab f   TabBar.obj
 0001:000b94cd       ?ActivateTabByPoint@CTabBarClass@@QAEHPAUtagPOINT@@_N1@Z 004ba4cd f   TabBar.obj
 0001:000b9518       ?ActiveTabByName@CTabBarClass@@QAEHHPB_WPAVCVConGuard@@@Z 004ba518 f   TabBar.obj
 0001:000b9699       ?AddStack@CTabBarClass@@IAE_NAAVCTab@@@Z 004ba699 f   TabBar.obj
 0001:000b972f       ?CanActivateTab@CTabBarClass@@AAE_NH@Z 004ba72f f   TabBar.obj
 0001:000b978d       ?CheckRebarCreated@CTabBarClass@@QAEXXZ 004ba78d f   TabBar.obj
 0001:000b97e4       ?CheckStack@CTabBarClass@@IAE_NXZ 004ba7e4 f   TabBar.obj
 0001:000b98f4       ?CountActiveTabs@CTabBarClass@@AAEHH@Z 004ba8f4 f   TabBar.obj
 0001:000b9988       ?CreateTabIcon@CTabBarClass@@QAEHPB_W_N0@Z 004ba988 f   TabBar.obj
 0001:000b99a9       ?Deactivate@CTabBarClass@@QAEXH@Z 004ba9a9 f   TabBar.obj
 0001:000b99d0       ?DeleteItem@CTabBarClass@@AAEXH@Z 004ba9d0 f   TabBar.obj
 0001:000b9a1e       ?GetActiveTabRect@CTabBarClass@@QAE_NPAUtagRECT@@@Z 004baa1e f   TabBar.obj
 0001:000b9a54       ?GetCurSel@CTabBarClass@@QAEHXZ 004baa54 f   TabBar.obj
 0001:000b9a73       ?GetFirstLastVConTab@CTabBarClass@@IAEHPAVCVirtualConsole@@_NH@Z 004baa73 f   TabBar.obj
 0001:000b9b13       ?GetItemCount@CTabBarClass@@AAEHXZ 004bab13 f   TabBar.obj
 0001:000b9b37       ?GetMargins@CTabBarClass@@QAE?AUtagRECT@@_N@Z 004bab37 f   TabBar.obj
 0001:000b9bc1       ?GetNextTab@CTabBarClass@@AAEH_N0@Z 004babc1 f   TabBar.obj
 0001:000b9cb6       ?GetNextTabHelper@CTabBarClass@@AAEHH_N0@Z 004bacb6 f   TabBar.obj
 0001:000b9e4e       ?GetTabFromPoint@CTabBarClass@@QAEHPAUtagPOINT@@_N1@Z 004bae4e f   TabBar.obj
 0001:000b9ead       ?GetTabIcon@CTabBarClass@@QAEH_N@Z 004baead f   TabBar.obj
 0001:000b9eb9       ?GetTabIconByIndex@CTabBarClass@@QAEPAUHICON__@@H@Z 004baeb9 f   TabBar.obj
 0001:000b9ec5       ?GetTabIcons@CTabBarClass@@QAEPAU_IMAGELIST@@H@Z 004baec5 f   TabBar.obj
 0001:000b9eed       ?GetTabbarHeight@CTabBarClass@@QAEHXZ 004baeed f   TabBar.obj
 0001:000b9f14       ?GetVConFromTab@CTabBarClass@@QAE_NHPAVCVConGuard@@PAK@Z 004baf14 f   TabBar.obj
 0001:000b9fc8       ?HighlightTab@CTabBarClass@@QAEXPBVCTabID@@_N@Z 004bafc8 f   TabBar.obj
 0001:000ba011       ?Init@?$MMap@PAVCVConGroup@@PAVCVirtualConsole@@$0A@@@QAE_NI_N@Z 004bb011 f i TabBar.obj
 0001:000ba011       ?Init@?$MMap@IPBD$0A@@@QAE_NI_N@Z 004bb011 f i ConEmu.obj
 0001:000ba011       ?Init@?$MMap@PAUHWND__@@PAVCVirtualConsole@@$0A@@@QAE_NI_N@Z 004bb011 f i ConEmuApp.obj
 0001:000ba011       ?Init@?$MMap@PAUHWND__@@PAVCDynDialog@@$0A@@@QAE_NI_N@Z 004bb011 f i DynDialog.obj
 0001:000ba049       ?Invalidate@CTabBarClass@@QAEXXZ 004bb049 f   TabBar.obj
 0001:000ba068       ?IsInSwitch@CTabBarClass@@QAE_NXZ 004bb068 f   TabBar.obj
 0001:000ba06f       ?IsSearchShown@CTabBarClass@@QAE_N_N@Z 004bb06f f   TabBar.obj
 0001:000ba095       ?IsTabsActive@CTabBarClass@@QAE_NXZ 004bb095 f   TabBar.obj
 0001:000ba0a0       ?IsTabsShown@CTabBarClass@@QAE_NXZ 004bb0a0 f   TabBar.obj
 0001:000ba0bc       ?NeedPostUpdate@CTabBarClass@@QAE_NXZ 004bb0bc f   TabBar.obj
 0001:000ba0d4       ?OnAlternative@CTabBarClass@@QAEXH@Z 004bb0d4 f   TabBar.obj
 0001:000ba103       ?OnBufferHeight@CTabBarClass@@QAEXH@Z 004bb103 f   TabBar.obj
 0001:000ba132       ?OnCaptionHidden@CTabBarClass@@QAEXXZ 004bb132 f   TabBar.obj
 0001:000ba159       ?OnChooseTabPopup@CTabBarClass@@QAEXXZ 004bb159 f   TabBar.obj
 0001:000ba1a2       ?OnCommand@CTabBarClass@@QAEXIJ@Z 004bb1a2 f   TabBar.obj
 0001:000ba486       ?OnConsoleActivated@CTabBarClass@@QAEXH@Z 004bb486 f   TabBar.obj
 0001:000ba4a7       ?OnKeyboard@CTabBarClass@@QAE_NIIJ@Z 004bb4a7 f   TabBar.obj
 0001:000ba565       ?OnNotify@CTabBarClass@@QAE_NPAUtagNMHDR@@AAJ@Z 004bb565 f   TabBar.obj
 0001:000ba859       ?OnShowButtonsChanged@CTabBarClass@@QAEXXZ 004bb859 f   TabBar.obj
 0001:000ba896       ?OnTimer@CTabBarClass@@QAE_NI@Z 004bb896 f   TabBar.obj
 0001:000ba8af       ?OnWindowStateChanged@CTabBarClass@@QAEXXZ 004bb8af f   TabBar.obj
 0001:000ba8d7       ?PrepareTab@CTabBarClass@@AAEHAAVCTab@@PAVCVirtualConsole@@@Z 004bb8d7 f   TabBar.obj
 0001:000bb1bd       ?Recreate@CTabBarClass@@QAEXXZ 004bc1bd f   TabBar.obj
 0001:000bb219       ?Release@?$MMap@PAUHWND__@@PAVCDynDialog@@$0A@@@QAEXXZ 004bc219 f i DynDialog.obj
 0001:000bb219       ?Release@?$MMap@HPAV?$MArray@UDlgItem@CDpiForDialog@@@@$0A@@@QAEXXZ 004bc219 f i DpiAware.obj
 0001:000bb219       ?Release@?$MMap@PAUHWND__@@PAVCVirtualConsole@@$0A@@@QAEXXZ 004bc219 f i ConEmuApp.obj
 0001:000bb219       ?Release@?$MMap@IPBD$0A@@@QAEXXZ 004bc219 f i ConEmu.obj
 0001:000bb219       ?Release@?$MMap@KH$0A@@@QAEXXZ 004bc219 f i RealConsole.obj
 0001:000bb219       ?Release@?$MMap@PAUHWND__@@P6GJPAU1@IIJ@Z$0A@@@QAEXXZ 004bc219 f i SetDlgColors.obj
 0001:000bb219       ?Release@?$MMap@PAUHWND__@@PAVCFindPanel@@$0A@@@QAEXXZ 004bc219 f i FindPanel.obj
 0001:000bb219       ?Release@?$MMap@PAVCVConGroup@@PAVCVirtualConsole@@$0A@@@QAEXXZ 004bc219 f i TabBar.obj
 0001:000bb248       ?Reposition@CTabBarClass@@QAEXXZ 004bc248 f   TabBar.obj
 0001:000bb261       ?RequestPostUpdate@CTabBarClass@@AAEXXZ 004bc261 f   TabBar.obj
 0001:000bb2b2       ?Reset@CTabBarClass@@QAEXXZ 004bc2b2 f   TabBar.obj
 0001:000bb2c0       ?Retrieve@CTabBarClass@@QAEXXZ 004bc2c0 f   TabBar.obj
 0001:000bb2e7       ?SelectTab@CTabBarClass@@AAEXH@Z 004bc2e7 f   TabBar.obj
 0001:000bb37c       ?SetRedraw@CTabBarClass@@QAEXH@Z 004bc37c f   TabBar.obj
 0001:000bb391       ?ShowSearchPane@CTabBarClass@@QAE_N_N0@Z 004bc391 f   TabBar.obj
 0001:000bb3a0       ?ShowTabError@CTabBarClass@@QAEXPB_WH@Z 004bc3a0 f   TabBar.obj
 0001:000bb3ac       ?Switch@CTabBarClass@@QAEX_N0@Z 004bc3ac f   TabBar.obj
 0001:000bb433       ?SwitchCommit@CTabBarClass@@QAEXXZ 004bc433 f   TabBar.obj
 0001:000bb476       ?SwitchNext@CTabBarClass@@QAEX_N@Z 004bc476 f   TabBar.obj
 0001:000bb487       ?SwitchPrev@CTabBarClass@@QAEX_N@Z 004bc487 f   TabBar.obj
 0001:000bb498       ?SwitchRollback@CTabBarClass@@QAEXXZ 004bc498 f   TabBar.obj
 0001:000bb4b0       ?Toolbar_GetBtnRect@CTabBarClass@@QAE_NHPAUtagRECT@@@Z 004bc4b0 f   TabBar.obj
 0001:000bb4ce       ?Update@CTabBarClass@@QAEXH@Z 004bc4ce f   TabBar.obj
 0001:000bb8dc       ?UpdateAddTab@CTabBarClass@@AAEHPAXAAH1AA_NPAVCVirtualConsole@@K@Z 004bc8dc f   TabBar.obj
 0001:000bba9f       ?UpdatePosition@CTabBarClass@@QAEXXZ 004bca9f f   TabBar.obj
 0001:000bbb24       ?UpdateToolConsoles@CTabBarClass@@QAEX_N@Z 004bcb24 f   TabBar.obj
 0001:000bbb4a       ??0CTabPanelBase@@QAE@PAVCTabBarClass@@@Z 004bcb4a f   TabCtrlBase.obj
 0001:000bbbbb       ??1CTabPanelBase@@UAE@XZ   004bcbbb f   TabCtrlBase.obj
 0001:000bbbdf       ??_GCTabPanelBase@@UAEPAXI@Z 004bcbdf f i TabCtrlBase.obj
 0001:000bbbdf       ??_ECTabPanelBase@@UAEPAXI@Z 004bcbdf f i TabCtrlBase.obj
 0001:000bbc04       ?DoTabDrag@CTabPanelBase@@IAEXI@Z 004bcc04 f   TabCtrlBase.obj
 0001:000bbe7e       ?EndTabDrag@CTabPanelBase@@IAEXXZ 004bce7e f   TabCtrlBase.obj
 0001:000bbea2       ?FarSendChangeTab@CTabPanelBase@@QAE_NHPAVCVConGuard@@@Z 004bcea2 f   TabCtrlBase.obj
 0001:000bc09d       ?InitTooltips@CTabPanelBase@@IAEXPAUHWND__@@@Z 004bd09d f   TabCtrlBase.obj
 0001:000bc1b5       ?OnMouseRebar@CTabPanelBase@@QAEJIHH@Z 004bd1b5 f   TabCtrlBase.obj
 0001:000bc34e       ?OnMouseTabbar@CTabPanelBase@@QAEJIHHH@Z 004bd34e f   TabCtrlBase.obj
 0001:000bc745       ?OnMouseToolbar@CTabPanelBase@@QAEJIHHH@Z 004bd745 f   TabCtrlBase.obj
 0001:000bc837       ?OnSetCursorRebar@CTabPanelBase@@QAE_NXZ 004bd837 f   TabCtrlBase.obj
 0001:000bc8cd       ?OnTimerInt@CTabPanelBase@@UAE_NI@Z 004bd8cd f   TabCtrlBase.obj
 0001:000bc91b       ?ShowTabErrorInt@CTabPanelBase@@QAEXPB_WH@Z 004bd91b f   TabCtrlBase.obj
 0001:000bca16       ?UpdateTabFontInt@CTabPanelBase@@QAEXXZ 004bda16 f   TabCtrlBase.obj
 0001:000bcb0e       ??$SafeDelete@VCFindPanel@@@@YAXAAPAVCFindPanel@@@Z 004bdb0e f i TabCtrlWin.obj
 0001:000bcb4b       ??0CTabPanelWin@@QAE@PAVCTabBarClass@@@Z 004bdb4b f   TabCtrlWin.obj
 0001:000bcbc5       ??1CTabPanelWin@@UAE@XZ    004bdbc5 f   TabCtrlWin.obj
 0001:000bcc21       ??_GCTabPanelWin@@UAEPAXI@Z 004bdc21 f i TabCtrlWin.obj
 0001:000bcc21       ??_ECTabPanelWin@@UAEPAXI@Z 004bdc21 f i TabCtrlWin.obj
 0001:000bcc46       ?ActivateSearchPaneInt@CTabPanelWin@@UAEPAUHWND__@@_N@Z 004bdc46 f   TabCtrlWin.obj
 0001:000bcc6e       ?AddTabInt@CTabPanelWin@@UAEXPB_WHIH@Z 004bdc6e f   TabCtrlWin.obj
 0001:000bce4d       ?CreateRebar@CTabPanelWin@@UAEXXZ 004bde4d f   TabCtrlWin.obj
 0001:000bcfb2       ?CreateTabbar@CTabPanelWin@@AAEPAUHWND__@@XZ 004bdfb2 f   TabCtrlWin.obj
 0001:000bd195       ?CreateToolbar@CTabPanelWin@@AAEPAUHWND__@@XZ 004be195 f   TabCtrlWin.obj
 0001:000bd5ae       ?DeleteItemInt@CTabPanelWin@@UAEXH@Z 004be5ae f   TabCtrlWin.obj
 0001:000bd5d0       ?DestroyRebar@CTabPanelWin@@UAEXXZ 004be5d0 f   TabCtrlWin.obj
 0001:000bd636       ?GetCurSelInt@CTabPanelWin@@UAEHXZ 004be636 f   TabCtrlWin.obj
 0001:000bd654       ?GetItemCountInt@CTabPanelWin@@UAEHXZ 004be654 f   TabCtrlWin.obj
 0001:000bd66a       ?GetRebarClientRect@CTabPanelWin@@UAE_NPAUtagRECT@@@Z 004be66a f   TabCtrlWin.obj
 0001:000bd6b0       ?GetRect@CTabPanelWin@@AAE?AUtagRECT@@XZ 004be6b0 f   TabCtrlWin.obj
 0001:000bd719       ?GetTabBarClientRect@CTabPanelWin@@UAE_NPAUtagRECT@@@Z 004be719 f   TabCtrlWin.obj
 0001:000bd73a       ?GetTabFromPoint@CTabPanelWin@@UAEHUtagPOINT@@_N1@Z 004be73a f   TabCtrlWin.obj
 0001:000bd84d       ?GetTabRect@CTabPanelWin@@UAE_NHPAUtagRECT@@@Z 004be84d f   TabCtrlWin.obj
 0001:000bd90a       ?GetTabText@CTabPanelWin@@UAE_NHPA_WH@Z 004be90a f   TabCtrlWin.obj
 0001:000bd966       ?GetToolBtnChecked@CTabPanelWin@@UAE_NW4ToolbarCommandIdx@@@Z 004be966 f   TabCtrlWin.obj
 0001:000bd985       ?GetToolBtnRect@CTabPanelWin@@UAE_NHPAUtagRECT@@@Z 004be985 f   TabCtrlWin.obj
 0001:000bd9d1       ?HighlightTab@CTabPanelWin@@UAEXH_N@Z 004be9d1 f   TabCtrlWin.obj
 0001:000bda0c       ?InvalidateBar@CTabPanelWin@@UAEXXZ 004bea0c f   TabCtrlWin.obj
 0001:000bda26       ?IsCreated@CTabPanelWin@@UAE_NXZ 004bea26 f   TabCtrlWin.obj
 0001:000bda37       ?IsSearchShownInt@CTabPanelWin@@UAE_N_N@Z 004bea37 f   TabCtrlWin.obj
 0001:000bda8e       ?IsTabbarCreated@CTabPanelWin@@UAE_NXZ 004bea8e f   TabCtrlWin.obj
 0001:000bda9f       ?IsTabbarNotify@CTabPanelWin@@UAE_NPAUtagNMHDR@@@Z 004bea9f f   TabCtrlWin.obj
 0001:000bdac4       ?IsToolbarCommand@CTabPanelWin@@UAE_NIJ@Z 004beac4 f   TabCtrlWin.obj
 0001:000bdae0       ?IsToolbarCreated@CTabPanelWin@@UAE_NXZ 004beae0 f   TabCtrlWin.obj
 0001:000bdaf1       ?IsToolbarNotify@CTabPanelWin@@UAE_NPAUtagNMHDR@@@Z 004beaf1 f   TabCtrlWin.obj
 0001:000bdb0f       ?OnCaptionHiddenChanged@CTabPanelWin@@UAEX_N@Z 004beb0f f   TabCtrlWin.obj
 0001:000bdbbe       ?OnConsoleActivatedInt@CTabPanelWin@@UAEXH@Z 004bebbe f   TabCtrlWin.obj
 0001:000bdca2       ?OnNotifyInt@CTabPanelWin@@UAE_NPAUtagNMHDR@@AAJ@Z 004beca2 f   TabCtrlWin.obj
 0001:000bddf5       ?OnWindowStateChanged@CTabPanelWin@@UAEXW4ConEmuWindowMode@@@Z 004bedf5 f   TabCtrlWin.obj
 0001:000bde47       ?QueryTabbarHeight@CTabPanelWin@@UAEHXZ 004bee47 f   TabCtrlWin.obj
 0001:000bdf58       ?ReBarProc@CTabPanelWin@@AAEJPAUHWND__@@IIJP6GJ0IIJ@Z@Z 004bef58 f   TabCtrlWin.obj
 0001:000be07a       ?RePaintInt@CTabPanelWin@@UAEXXZ 004bf07a f   TabCtrlWin.obj
 0001:000be145       ?RepositionInt@CTabPanelWin@@UAEXXZ 004bf145 f   TabCtrlWin.obj
 0001:000be458       ?SelectTabInt@CTabPanelWin@@UAEHH@Z 004bf458 f   TabCtrlWin.obj
 0001:000be4fd       ?SetTabbarFont@CTabPanelWin@@UAEXPAUHFONT__@@@Z 004bf4fd f   TabCtrlWin.obj
 0001:000be524       ?SetToolBtnChecked@CTabPanelWin@@UAEXW4ToolbarCommandIdx@@_N@Z 004bf524 f   TabCtrlWin.obj
 0001:000be549       ?ShowBar@CTabPanelWin@@UAEX_N@Z 004bf549 f   TabCtrlWin.obj
 0001:000be5b6       ?ShowSearchPane@CTabPanelWin@@UAE_N_N0@Z 004bf5b6 f   TabCtrlWin.obj
 0001:000be7b1       ?ShowTabsPane@CTabPanelWin@@UAEX_N@Z 004bf7b1 f   TabCtrlWin.obj
 0001:000be879       ?ShowToolsPane@CTabPanelWin@@UAEX_N@Z 004bf879 f   TabCtrlWin.obj
 0001:000be9ba       ?TabHitTest@CTabPanelWin@@AAEJ_NPAH@Z 004bf9ba f   TabCtrlWin.obj
 0001:000bea36       ?TabProc@CTabPanelWin@@AAEJPAUHWND__@@IIJP6GJ0IIJ@Z@Z 004bfa36 f   TabCtrlWin.obj
 0001:000beb76       ?ToolProc@CTabPanelWin@@AAEJPAUHWND__@@IIJP6GJ0IIJ@Z@Z 004bfb76 f   TabCtrlWin.obj
 0001:000bed3c       ?UpdateToolbarPos@CTabPanelWin@@AAEXXZ 004bfd3c f   TabCtrlWin.obj
 0001:000bee2b       ?_ReBarProc@CTabPanelWin@@CGJPAUHWND__@@IIJ@Z 004bfe2b f   TabCtrlWin.obj
 0001:000bee8a       ?_TabProc@CTabPanelWin@@CGJPAUHWND__@@IIJ@Z 004bfe8a f   TabCtrlWin.obj
 0001:000beee9       ?_ToolProc@CTabPanelWin@@CGJPAUHWND__@@IIJ@Z 004bfee9 f   TabCtrlWin.obj
 0001:000bef48       ??0CTab@@QAE@PBDH@Z        004bff48 f   TabID.obj
 0001:000bef50       ??0CTabID@@QAE@PAVCVirtualConsole@@PB_WIHHH@Z 004bff50 f   TabID.obj
 0001:000befd5       ??0CTabStack@@QAE@XZ       004bffd5 f   TabID.obj
 0001:000bf035       ??0TabDrawInfo@@QAE@XZ     004c0035 f i TabID.obj
 0001:000bf05a       ??1CTab@@QAE@XZ            004c005a f   TabID.obj
 0001:000bf096       ??1CTabID@@MAE@XZ          004c0096 f   TabID.obj
 0001:000bf0c2       ??1CTabStack@@QAE@XZ       004c00c2 f   TabID.obj
 0001:000bf124       ??_GCTabID@@MAEPAXI@Z      004c0124 f i TabID.obj
 0001:000bf124       ??_ECTabID@@MAEPAXI@Z      004c0124 f i TabID.obj
 0001:000bf149       ?AddRef@CTab@@QAEPAVCTabID@@PBDH@Z 004c0149 f   TabID.obj
 0001:000bf162       ?AppendInt@CTabStack@@IAEHPAVCTabID@@HPAUMSectionLockSimple@@@Z 004c0162 f   TabID.obj
 0001:000bf1d1       ?CleanNulls@CTabStack@@IAEXXZ 004c01d1 f   TabID.obj
 0001:000bf228       ?Empty@TabName@@QBE_NXZ    004c0228 f   TabID.obj
 0001:000bf231       ?GetCount@CTabStack@@QAEHXZ 004c0231 f   TabID.obj
 0001:000bf235       ?GetIndexByTab@CTabStack@@QAEHPBVCTabID@@@Z 004c0235 f   TabID.obj
 0001:000bf29a       ?GetLabel@CTabID@@QAEPB_WXZ 004c029a f   TabID.obj
 0001:000bf2b0       ?GetName@CTabID@@QAEPB_WXZ 004c02b0 f   TabID.obj
 0001:000bf2cf       ?GetTabByIndex@CTabStack@@QAE_NHAAVCTab@@@Z 004c02cf f   TabID.obj
 0001:000bf34c       ?GetTabInfoByIndex@CTabStack@@QAE_NHAAUTabInfo@@@Z 004c034c f   TabID.obj
 0001:000bf3b9       ?GetVisualToRealIndex@CTabStack@@IAEHH@Z 004c03b9 f   TabID.obj
 0001:000bf3ec       ?Init@CTab@@QAEXAAV1@@Z    004c03ec f   TabID.obj
 0001:000bf3fd       ?Init@CTab@@QAEXPAVCTabID@@@Z 004c03fd f   TabID.obj
 0001:000bf42c       ?IsEqual@CTabID@@QAE_NPAVCVirtualConsole@@PB_WIHHI@Z 004c042c f   TabID.obj
 0001:000bf4b5       ?MarkTabsInvalid@CTabStack@@QAEXW4MatchTabEnum@1@K@Z 004c04b5 f   TabID.obj
 0001:000bf52c       ?Ptr@TabName@@QBEPB_WXZ    004c052c f   TabID.obj
 0001:000bf530       ?RefreshFarStatus@CTabStack@@QAE_NKAAVCTab@@AAH1AA_N@Z 004c0530 f   TabID.obj
 0001:000bf6d1       ?ReleaseDrawRegion@CTabID@@QAEXXZ 004c06d1 f   TabID.obj
 0001:000bf6ee       ?ReleaseTabs@CTabStack@@QAEXH@Z 004c06ee f   TabID.obj
 0001:000bf7a8       ?RequestSize@CTabStack@@IAEXHPAUMSectionLockSimple@@@Z 004c07a8 f   TabID.obj
 0001:000bf812       ?Set@CTabID@@QAE_NPB_WIHHHI@Z 004c0812 f   TabID.obj
 0001:000bf8a8       ?Set@TabName@@QAEPB_WPB_W_N@Z 004c08a8 f   TabID.obj
 0001:000bf92e       ?SetLabel@CTabID@@QAEXPB_W@Z 004c092e f   TabID.obj
 0001:000bf945       ?SetName@CTabID@@QAE_NPB_W@Z 004c0945 f   TabID.obj
 0001:000bf994       ?UpdateAppend@CTabStack@@QAEXPAXAAVCTab@@H@Z 004c0994 f   TabID.obj
 0001:000bf9ab       ?UpdateAppend@CTabStack@@QAEXPAXPAVCTabID@@H@Z 004c09ab f   TabID.obj
 0001:000bfa9d       ?UpdateBegin@CTabStack@@QAEPAXXZ 004c0a9d f   TabID.obj
 0001:000bfae7       ?UpdateEnd@CTabStack@@QAE_NPAXK@Z 004c0ae7 f   TabID.obj
 0001:000bfc3c       ?UpdateFarWindow@CTabStack@@QAE_NPAXPAVCVirtualConsole@@PB_WIHHHAAVCTab@@@Z 004c0c3c f   TabID.obj
 0001:000bfd5e       ??0CTaskBar@@QAE@PAVCConEmuMain@@@Z 004c0d5e f   TaskBar.obj
 0001:000bfda4       ??1CTaskBar@@UAE@XZ        004c0da4 f   TaskBar.obj
 0001:000bfdff       ??_ECTaskBar@@UAEPAXI@Z    004c0dff f i TaskBar.obj
 0001:000bfdff       ??_GCTaskBar@@UAEPAXI@Z    004c0dff f i TaskBar.obj
 0001:000bfe21       ?Taskbar_AddTabXP@CTaskBar@@QAEJPAUHWND__@@@Z 004c0e21 f   TaskBar.obj
 0001:000bfe3f       ?Taskbar_DeleteTabXP@CTaskBar@@QAEJPAUHWND__@@@Z 004c0e3f f   TaskBar.obj
 0001:000bfe5d       ?Taskbar_GhostAppend@CTaskBar@@IAEXPAX@Z 004c0e5d f   TaskBar.obj
 0001:000bfe8f       ?Taskbar_GhostRemove@CTaskBar@@IAEXPAX@Z 004c0e8f f   TaskBar.obj
 0001:000bfec0       ?Taskbar_GhostReorder@CTaskBar@@QAEXXZ 004c0ec0 f   TaskBar.obj
 0001:000bff7f       ?Taskbar_GhostSnapshotRequired@CTaskBar@@QAE_NXZ 004c0f7f f   TaskBar.obj
 0001:000bff87       ?Taskbar_Init@CTaskBar@@QAEXXZ 004c0f87 f   TaskBar.obj
 0001:000c0038       ?Taskbar_MarkFullscreenWindow@CTaskBar@@QAEJPAUHWND__@@H@Z 004c1038 f   TaskBar.obj
 0001:000c0154       ?Taskbar_RegisterTab@CTaskBar@@QAEJPAUHWND__@@PAXH@Z 004c1154 f   TaskBar.obj
 0001:000c01d4       ?Taskbar_Release@CTaskBar@@QAEXXZ 004c11d4 f   TaskBar.obj
 0001:000c021d       ?Taskbar_SetActiveTab@CTaskBar@@QAEJPAUHWND__@@@Z 004c121d f   TaskBar.obj
 0001:000c0263       ?Taskbar_SetOverlay@CTaskBar@@QAEXPAUHICON__@@@Z 004c1263 f   TaskBar.obj
 0001:000c0308       ?Taskbar_SetProgressState@CTaskBar@@QAEJI@Z 004c1308 f   TaskBar.obj
 0001:000c0333       ?Taskbar_SetProgressValue@CTaskBar@@QAEJH@Z 004c1333 f   TaskBar.obj
 0001:000c0377       ?Taskbar_SetShield@CTaskBar@@QAEX_N@Z 004c1377 f   TaskBar.obj
 0001:000c03bd       ?Taskbar_UnregisterTab@CTaskBar@@QAEJPAUHWND__@@PAX@Z 004c13bd f   TaskBar.obj
 0001:000c03f9       ?Taskbar_UpdateOverlay@CTaskBar@@QAEXXZ 004c13f9 f   TaskBar.obj
 0001:000c04c5       ?isTaskbarSmallIcons@CTaskBar@@QAE_NXZ 004c14c5 f   TaskBar.obj
 0001:000c0544       ??0CTaskBarGhost@@QAE@PAVCVirtualConsole@@@Z 004c1544 f   TaskBarGhost.obj
 0001:000c05b7       ??1CTaskBarGhost@@UAE@XZ   004c15b7 f   TaskBarGhost.obj
 0001:000c0655       ??_GCTaskBarGhost@@UAEPAXI@Z 004c1655 f i TaskBarGhost.obj
 0001:000c0655       ??_ECTaskBarGhost@@UAEPAXI@Z 004c1655 f i TaskBarGhost.obj
 0001:000c067a       ?ActivateTaskbar@CTaskBarGhost@@QAEXXZ 004c167a f   TaskBarGhost.obj
 0001:000c0695       ?CalcThumbnailSize@CTaskBarGhost@@IAE_NHHAAH0@Z 004c1695 f   TaskBarGhost.obj
 0001:000c0716       ?CheckTitle@CTaskBarGhost@@QAEPB_WH@Z 004c1716 f   TaskBarGhost.obj
 0001:000c07af       ?Create@CTaskBarGhost@@SAPAV1@PAVCVirtualConsole@@@Z 004c17af f   TaskBarGhost.obj
 0001:000c08cd       ?CreateTabSnapshot@CTaskBarGhost@@QAEHXZ 004c18cd f   TaskBarGhost.obj
 0001:000c0c29       ?CreateThumbnail@CTaskBarGhost@@IAEPAUHBITMAP__@@HH@Z 004c1c29 f   TaskBarGhost.obj
 0001:000c0ec2       ?GetPreviewPosSize@CTaskBarGhost@@IAEXPAUtagPOINT@@000@Z 004c1ec2 f   TaskBarGhost.obj
 0001:000c0ff4       ?GhostProc@CTaskBarGhost@@IAEJIIJ@Z 004c1ff4 f   TaskBarGhost.obj
 0001:000c1129       ?GhostStatic@CTaskBarGhost@@KGJPAUHWND__@@IIJ@Z 004c2129 f   TaskBarGhost.obj
 0001:000c11b3       ?GhostWnd@CTaskBarGhost@@QAEPAUHWND__@@XZ 004c21b3 f   TaskBarGhost.obj
 0001:000c11be       ?NeedSnapshotCache@CTaskBarGhost@@QAE_NXZ 004c21be f   TaskBarGhost.obj
 0001:000c1241       ?OnActivate@CTaskBarGhost@@IAEJIJ@Z 004c2241 f   TaskBarGhost.obj
 0001:000c134f       ?OnClose@CTaskBarGhost@@IAEJXZ 004c234f f   TaskBarGhost.obj
 0001:000c1377       ?OnCreate@CTaskBarGhost@@IAEJXZ 004c2377 f   TaskBarGhost.obj
 0001:000c146b       ?OnDestroy@CTaskBarGhost@@IAEJXZ 004c246b f   TaskBarGhost.obj
 0001:000c149e       ?OnDwmSendIconicLivePreviewBitmap@CTaskBarGhost@@IAEJXZ 004c249e f   TaskBarGhost.obj
 0001:000c1536       ?OnDwmSendIconicThumbnail@CTaskBarGhost@@IAEJFF@Z 004c2536 f   TaskBarGhost.obj
 0001:000c1570       ?OnSysCommand@CTaskBarGhost@@IAEJIJ@Z 004c2570 f   TaskBarGhost.obj
 0001:000c162b       ?OnTimer@CTaskBarGhost@@IAEJI@Z 004c262b f   TaskBarGhost.obj
 0001:000c1673       ?UpdateGhostSize@CTaskBarGhost@@IAEXXZ 004c2673 f   TaskBarGhost.obj
 0001:000c173f       ?UpdateTabSnapshot@CTaskBarGhost@@QAEHHH@Z 004c273f f   TaskBarGhost.obj
 0001:000c17b4       ??$SafeDelete@VMModule@@@@YAXAAPAVMModule@@@Z 004c27b4 f i TaskScheduler.obj
 0001:000c17f1       ??0CTaskScheduler1@@QAE@XZ 004c27f1 f   TaskScheduler.obj
 0001:000c1825       ??0CTaskScheduler2@@QAE@XZ 004c2825 f   TaskScheduler.obj
 0001:000c1865       ??0CTaskSchedulerBase@@QAE@XZ 004c2865 f   TaskScheduler.obj
 0001:000c18bf       ??1CTaskScheduler1@@UAE@XZ 004c28bf f   TaskScheduler.obj
 0001:000c195b       ??1CTaskScheduler2@@UAE@XZ 004c295b f   TaskScheduler.obj
 0001:000c1a88       ??1CTaskSchedulerBase@@UAE@XZ 004c2a88 f   TaskScheduler.obj
 0001:000c1ab2       ??_GCTaskScheduler1@@UAEPAXI@Z 004c2ab2 f i TaskScheduler.obj
 0001:000c1ab2       ??_ECTaskScheduler1@@UAEPAXI@Z 004c2ab2 f i TaskScheduler.obj
 0001:000c1ad4       ??_ECTaskScheduler2@@UAEPAXI@Z 004c2ad4 f i TaskScheduler.obj
 0001:000c1ad4       ??_GCTaskScheduler2@@UAEPAXI@Z 004c2ad4 f i TaskScheduler.obj
 0001:000c1af6       ??_ECTaskSchedulerBase@@UAEPAXI@Z 004c2af6 f i TaskScheduler.obj
 0001:000c1af6       ??_GCTaskSchedulerBase@@UAEPAXI@Z 004c2af6 f i TaskScheduler.obj
 0001:000c1b18       ?Create@CTaskScheduler1@@UAEJ_NPB_W111@Z 004c2b18 f   TaskScheduler.obj
 0001:000c1e21       ?Create@CTaskScheduler2@@UAEJ_NPB_W111@Z 004c2e21 f   TaskScheduler.obj
 0001:000c2327       ?CreateProcessScheduled@@YAH_NKPA_WPAU_SECURITY_ATTRIBUTES@@2HKPAXPB_WPAU_STARTUPINFOW@@PAU_PROCESS_INFORMATION@@PAK@Z 004c3327 f   TaskScheduler.obj
 0001:000c26c7       ?DisplaySchedulerError@CTaskSchedulerBase@@QAEXPB_W@Z 004c36c7 f   TaskScheduler.obj
 0001:000c2775       ?GetState@CTaskScheduler1@@UAE?AW4TaskSchedulerState@@XZ 004c3775 f   TaskScheduler.obj
 0001:000c28cc       ?GetState@CTaskScheduler2@@UAE?AW4TaskSchedulerState@@XZ 004c38cc f   TaskScheduler.obj
 0001:000c2a18       ?Run@CTaskScheduler1@@UAEJXZ 004c3a18 f   TaskScheduler.obj
 0001:000c2b28       ?Run@CTaskScheduler2@@UAEJXZ 004c3b28 f   TaskScheduler.obj
 0001:000c2c0d       ??0TermX@@QAE@XZ           004c3c0d f   TermX.obj
 0001:000c2c19       ?GetSubstitute@TermX@@QAE_NABU_KEY_EVENT_RECORD@@AAUCEStr@@@Z 004c3c19 f   TermX.obj
 0001:000c30db       ?GetSubstitute@TermX@@QAE_NABU_MOUSE_EVENT_RECORD@@W4TermMouseMode@@AAUCEStr@@@Z 004c40db f   TermX.obj
 0001:000c35aa       ?Reset@TermX@@QAEXXZ       004c45aa f   TermX.obj
 0001:000c3657       ??0CToolImg@@QAE@XZ        004c4657 f   ToolImg.obj
 0001:000c368a       ??1CToolImg@@QAE@XZ        004c468a f   ToolImg.obj
 0001:000c36cb       ?AddBitmap@CToolImg@@IAEHPAUHBITMAP__@@H@Z 004c46cb f   ToolImg.obj
 0001:000c376c       ?AddButtons@CToolImg@@QAEHPAUHINSTANCE__@@HH@Z 004c476c f   ToolImg.obj
 0001:000c37ad       ?AddButtonsMapped@CToolImg@@QAAHPAUHINSTANCE__@@HHHKKZZ 004c47ad f   ToolImg.obj
 0001:000c37f8       ?Create@CToolImg@@QAE_NHHHK@Z 004c47f8 f   ToolImg.obj
 0001:000c384a       ?CreateButtonField@CToolImg@@IAE_NPB_WKPAUButtonRowInfo@1@H_N@Z 004c484a f   ToolImg.obj
 0001:000c3923       ?CreateDonateButton@CToolImg@@SAPAV1@XZ 004c4923 f   ToolImg.obj
 0001:000c39d5       ?CreateField@CToolImg@@IAE_NHHK@Z 004c49d5 f   ToolImg.obj
 0001:000c3afc       ?CreateSearchButton@CToolImg@@SAPAV1@XZ 004c4afc f   ToolImg.obj
 0001:000c3bb9       ?FreeBMP@CToolImg@@IAEXXZ  004c4bb9 f   ToolImg.obj
 0001:000c3bee       ?FreeDC@CToolImg@@IAEXXZ   004c4bee f   ToolImg.obj
 0001:000c3c32       ?GetBitmap@CToolImg@@QAEPAUHBITMAP__@@XZ 004c4c32 f   ToolImg.obj
 0001:000c3c3e       ?GetSizeForHeight@CToolImg@@QAE_NHAAH0@Z 004c4c3e f   ToolImg.obj
 0001:000c3cf0       ?PaintBitmap@CToolImg@@IAE_NPAUHBITMAP__@@HHPAUHDC__@@HHHH@Z 004c4cf0 f   ToolImg.obj
 0001:000c3d76       ?PaintButton@CToolImg@@QAE_NHPAUHDC__@@HHHH@Z 004c4d76 f   ToolImg.obj
 0001:000c3f65       ?AddTrayIcon@TrayIcon@@QAEXXZ 004c4f65 f   TrayIcon.obj
 0001:000c3fac       ?HideWindowToTray@TrayIcon@@QAEXPB_W@Z 004c4fac f   TrayIcon.obj
 0001:000c4045       ?LoadIconW@TrayIcon@@QAEXPAUHWND__@@H@Z 004c5045 f   TrayIcon.obj
 0001:000c407f       ?OnTaskbarCreated@TrayIcon@@QAEXXZ 004c507f f   TrayIcon.obj
 0001:000c4095       ?OnTryIcon@TrayIcon@@QAEJPAUHWND__@@IIJ@Z 004c5095 f   TrayIcon.obj
 0001:000c433f       ?RemoveTrayIcon@TrayIcon@@QAEX_N@Z 004c533f f   TrayIcon.obj
 0001:000c4385       ?RestoreWindowFromTray@TrayIcon@@QAEX_N0@Z 004c5385 f   TrayIcon.obj
 0001:000c4445       ?SetMenuItemText@TrayIcon@@AAEXPAUHMENU__@@IPB_W@Z 004c5445 f   TrayIcon.obj
 0001:000c44cb       ?SettingsChanged@TrayIcon@@QAEXXZ 004c54cb f   TrayIcon.obj
 0001:000c4533       ?ShowTrayIcon@TrayIcon@@QAEXPB_WW4TrayIconMsgSource@@@Z 004c5533 f   TrayIcon.obj
 0001:000c45ab       ?UpdateTitle@TrayIcon@@QAEXXZ 004c55ab f   TrayIcon.obj
 0001:000c4678       ??0CConEmuUpdate@@QAE@XZ   004c5678 f   Update.obj
 0001:000c47d1       ??1CConEmuUpdate@@QAE@XZ   004c57d1 f   Update.obj
 0001:000c4a64       ?Check7zipInstalled@CConEmuUpdate@@IAE_NXZ 004c5a64 f   Update.obj
 0001:000c4b11       ?CheckProcInt@CConEmuUpdate@@IAEKXZ 004c5b11 f   Update.obj
 0001:000c5225       ?CheckThreadProc@CConEmuUpdate@@KGKPAX@Z 004c6225 f   Update.obj
 0001:000c5259       ?CreateBatchFile@CConEmuUpdate@@IAEPA_WPB_W@Z 004c6259 f   Update.obj
 0001:000c618a       ?CreateTempFile@CConEmuUpdate@@IAEPA_WPB_W0AAPAX@Z 004c718a f   Update.obj
 0001:000c6502       ?CreateVersionOnServerInfo@CConEmuUpdate@@IAEPA_W_NPB_W@Z 004c7502 f   Update.obj
 0001:000c6544       ?Deinit@wininet@CConEmuUpdate@@QAE_N_N@Z 004c7544 f   Update.obj
 0001:000c6569       ?DeleteBadTempFiles@CConEmuUpdate@@IAEXXZ 004c7569 f   Update.obj
 0001:000c65e8       ?DownloadFile@CConEmuUpdate@@IAEHPB_W0AAKHPAT_LARGE_INTEGER@@@Z 004c75e8 f   Update.obj
 0001:000c67b6       ?ErrorCallback@CConEmuUpdate@@KGXPBUCEDownloadInfo@@@Z 004c77b6 f   Update.obj
 0001:000c67dc       ?GetCurVerInfo@CConEmuUpdate@@QAEPA_WXZ 004c77dc f   Update.obj
 0001:000c684f       ?GetFormatted@CEDownloadInfo@@QBEPA_W_N@Z 004c784f f i Update.obj
 0001:000c695e       ?GetUpdateProgress@CConEmuUpdate@@QAEFXZ 004c795e f   Update.obj
 0001:000c69d8       ?GetVersionsFromIni@CConEmuUpdate@@IAEXPB_WAAY0GE@_W11@Z 004c79d8 f   Update.obj
 0001:000c6bf3       ?InUpdate@CConEmuUpdate@@QAE?AW4UpdateStep@1@XZ 004c7bf3 f   Update.obj
 0001:000c6c31       ?Init@wininet@CConEmuUpdate@@QAE_NPAV2@@Z 004c7c31 f   Update.obj
 0001:000c6d76       ?IsLocalFile@CConEmuUpdate@@IAE_NAAPA_W@Z 004c7d76 f   Update.obj
 0001:000c6e14       ?IsLocalFile@CConEmuUpdate@@IAE_NAAPB_W@Z 004c7e14 f   Update.obj
 0001:000c6e33       ?IsUpdatePackage@CConEmuUpdate@@SA_NPB_W@Z 004c7e33 f   Update.obj
 0001:000c6f8f       ?LoadVersionInfoFromServer@CConEmuUpdate@@IAE_NXZ 004c7f8f f   Update.obj
 0001:000c729b       ?LocalUpdate@CConEmuUpdate@@SA_NPB_W@Z 004c829b f   Update.obj
 0001:000c72f3       ?LogCallback@CConEmuUpdate@@KGXPBUCEDownloadInfo@@@Z 004c82f3 f   Update.obj
 0001:000c7367       ?NeedRunElevation@CConEmuUpdate@@SA_NXZ 004c8367 f   Update.obj
 0001:000c74f3       ?ProgressCallback@CConEmuUpdate@@KGXPBUCEDownloadInfo@@@Z 004c84f3 f   Update.obj
 0001:000c7532       ?QueryConfirmation@CConEmuUpdate@@IAEHW4UpdateStep@1@@Z 004c8532 f   Update.obj
 0001:000c7639       ?QueryConfirmationCallback@CConEmuUpdate@@KAJJ@Z 004c8639 f   Update.obj
 0001:000c765f       ?QueryConfirmationDownload@CConEmuUpdate@@IAEHXZ 004c865f f   Update.obj
 0001:000c7a79       ?QueryConfirmationNoNewVer@CConEmuUpdate@@IAEHXZ 004c8a79 f   Update.obj
 0001:000c7dac       ?QueryConfirmationUpdate@CConEmuUpdate@@IAEHXZ 004c8dac f   Update.obj
 0001:000c801c       ?QueryRetryVersionCheck@CConEmuUpdate@@KAJJ@Z 004c901c f   Update.obj
 0001:000c81b8       ?ReportBrokenIni@CConEmuUpdate@@IAEXPB_W000@Z 004c91b8 f   Update.obj
 0001:000c827a       ?ReportError@CConEmuUpdate@@IAEXPB_W00K@Z 004c927a f   Update.obj
 0001:000c8337       ?ReportError@CConEmuUpdate@@IAEXPB_W0K@Z 004c9337 f   Update.obj
 0001:000c83c2       ?ReportError@CConEmuUpdate@@IAEXPB_WK@Z 004c93c2 f   Update.obj
 0001:000c8422       ?ReportErrorInt@CConEmuUpdate@@IAEXPA_W@Z 004c9422 f   Update.obj
 0001:000c85c8       ?RequestExitUpdate@CConEmuUpdate@@KAJJ@Z 004c95c8 f   Update.obj
 0001:000c8603       ?RequestTerminate@CConEmuUpdate@@IAEXXZ 004c9603 f   Update.obj
 0001:000c8630       ?SetCallback@wininet@CConEmuUpdate@@QAEXW4CEDownloadCommand@@P6GXPBUCEDownloadInfo@@@ZJ@Z 004c9630 f   Update.obj
 0001:000c865d       ?StartCheckProcedure@CConEmuUpdate@@QAEXI@Z 004c965d f   Update.obj
 0001:000c8826       ?StartLocalUpdate@CConEmuUpdate@@IAE_NPB_W@Z 004c9826 f   Update.obj
 0001:000c8c9b       ?StopChecking@CConEmuUpdate@@QAEXXZ 004c9c9b f   Update.obj
 0001:000c8d8c       ?WaitAllInstances@CConEmuUpdate@@IAEXXZ 004c9d8c f   Update.obj
 0001:000c8e6e       ??0ConEmuUpdateSettings@@QAE@XZ 004c9e6e f   UpdateSet.obj
 0001:000c8e82       ??1ConEmuUpdateSettings@@QAE@XZ 004c9e82 f   UpdateSet.obj
 0001:000c8ef9       ?CheckHourlyUpdate@ConEmuUpdateSettings@@QAEXXZ 004c9ef9 f   UpdateSet.obj
 0001:000c8f2c       ?FreePointers@ConEmuUpdateSettings@@QAEXXZ 004c9f2c f   UpdateSet.obj
 0001:000c901a       ?GetUpdateInetToolCmd@ConEmuUpdateSettings@@QAEPB_WXZ 004ca01a f   UpdateSet.obj
 0001:000c9033       ?IsVerLocationDeprecated@ConEmuUpdateSettings@@QAE_NPB_W@Z 004ca033 f   UpdateSet.obj
 0001:000c90c1       ?LoadFrom@ConEmuUpdateSettings@@QAEXPAU1@@Z 004ca0c1 f   UpdateSet.obj
 0001:000c91b6       ?ResetToDefaults@ConEmuUpdateSettings@@QAEXXZ 004ca1b6 f   UpdateSet.obj
 0001:000c94aa       ?SetUpdateVerLocation@ConEmuUpdateSettings@@QAEXPB_W@Z 004ca4aa f   UpdateSet.obj
 0001:000c9532       ?UpdateArcCmdLine@ConEmuUpdateSettings@@QAEPB_WXZ 004ca532 f   UpdateSet.obj
 0001:000c954d       ?UpdateDownloadSetup@ConEmuUpdateSettings@@QAEEXZ 004ca54d f   UpdateSet.obj
 0001:000c96f1       ?UpdateExeCmdLine@ConEmuUpdateSettings@@QAEPB_WAAY03_W@Z 004ca6f1 f   UpdateSet.obj
 0001:000c9732       ?UpdateVerLocation@ConEmuUpdateSettings@@QAEPB_WXZ 004ca732 f   UpdateSet.obj
 0001:000c9744       ?UpdateVerLocationDefault@ConEmuUpdateSettings@@QAEPB_WXZ 004ca744 f   UpdateSet.obj
 0001:000c974a       ?UpdatesAllowed@ConEmuUpdateSettings@@QAE_NAAY0IA@_W@Z 004ca74a f   UpdateSet.obj
 0001:000c98e7       ??0CConEmuChild@@QAE@PAVCVirtualConsole@@@Z 004ca8e7 f   VConChild.obj
 0001:000c9a45       ??1CConEmuChild@@MAE@XZ    004caa45 f   VConChild.obj
 0001:000c9a7e       ??_ECConEmuChild@@MAEPAXI@Z 004caa7e f i VConChild.obj
 0001:000c9a7e       ??_GCConEmuChild@@MAEPAXI@Z 004caa7e f i VConChild.obj
 0001:000c9aa3       ?BackWndProc@CConEmuChild@@SGJPAUHWND__@@IIJ@Z 004caaa3 f   VConChild.obj
 0001:000c9e73       ?CheckMouseOverScroll@CConEmuChild@@QAE_N_N@Z 004cae73 f   VConChild.obj
 0001:000c9fd9       ?CheckPostRedraw@CConEmuChild@@QAEXXZ 004cafd9 f   VConChild.obj
 0001:000ca009       ?ChildWndProc@CConEmuChild@@SGJPAUHWND__@@IIJ@Z 004cb009 f   VConChild.obj
 0001:000ca778       ?CreateView@CConEmuChild@@QAEPAUHWND__@@XZ 004cb778 f   VConChild.obj
 0001:000ca8cd       ?DoDestroyDcWindow@CConEmuChild@@QAEXXZ 004cb8cd f   VConChild.obj
 0001:000ca94b       ?FindBlockItem@?$MMap@PAUHWND__@@P6GJPAU1@IIJ@Z$0A@@@IAE_NABQAUHWND__@@AAPAUMapItems@1@AAPAUMapItem@1@@Z 004cb94b f i SetDlgColors.obj
 0001:000ca94b       ?FindBlockItem@?$MMap@KH$0A@@@IAE_NABKAAPAUMapItems@1@AAPAUMapItem@1@@Z 004cb94b f i RealConsole.obj
 0001:000ca94b       ?FindBlockItem@?$MMap@PAUHWND__@@PAVCDynDialog@@$0A@@@IAE_NABQAUHWND__@@AAPAUMapItems@1@AAPAUMapItem@1@@Z 004cb94b f i DynDialog.obj
 0001:000ca94b       ?FindBlockItem@?$MMap@IPBD$0A@@@IAE_NABIAAPAUMapItems@1@AAPAUMapItem@1@@Z 004cb94b f i ConEmu.obj
 0001:000ca94b       ?FindBlockItem@?$MMap@PAUHWND__@@PAVCFindPanel@@$0A@@@IAE_NABQAUHWND__@@AAPAUMapItems@1@AAPAUMapItem@1@@Z 004cb94b f i FindPanel.obj
 0001:000ca94b       ?FindBlockItem@?$MMap@PAVCVConGroup@@PAVCVirtualConsole@@$0A@@@IAE_NABQAVCVConGroup@@AAPAUMapItems@1@AAPAUMapItem@1@@Z 004cb94b f i TabBar.obj
 0001:000ca94b       ?FindBlockItem@?$MMap@PAUHWND__@@PAVCVirtualConsole@@$0A@@@IAE_NABQAUHWND__@@AAPAUMapItems@1@AAPAUMapItem@1@@Z 004cb94b f i VConChild.obj
 0001:000ca94b       ?FindBlockItem@?$MMap@HPAV?$MArray@UDlgItem@CDpiForDialog@@@@$0A@@@IAE_NABHAAPAUMapItems@1@AAPAUMapItem@1@@Z 004cb94b f i DpiAware.obj
 0001:000ca9b2       ?GetBack@CConEmuChild@@QAEPAUHWND__@@XZ 004cb9b2 f   VConChild.obj
 0001:000ca9bd       ?GetView@CConEmuChild@@QAEPAUHWND__@@XZ 004cb9bd f   VConChild.obj
 0001:000ca9c8       ?HideScroll@CConEmuChild@@IAEX_N@Z 004cb9c8 f   VConChild.obj
 0001:000caaef       ?InScroll@CConEmuChild@@QAE_NXZ 004cbaef f   VConChild.obj
 0001:000cab17       ?Invalidate@CConEmuChild@@QAEXXZ 004cbb17 f   VConChild.obj
 0001:000cab33       ?InvalidateBack@CConEmuChild@@IAEXXZ 004cbb33 f   VConChild.obj
 0001:000cab47       ?InvalidateView@CConEmuChild@@IAEXXZ 004cbb47 f   VConChild.obj
 0001:000cac65       ?IsDcLocked@CConEmuChild@@QAEHPAUtagRECT@@@Z 004cbc65 f   VConChild.obj
 0001:000cacab       ?IsInvalidatePending@CConEmuChild@@QAE_NXZ 004cbcab f   VConChild.obj
 0001:000cacb9       ?LockDcRect@CConEmuChild@@QAEX_NPAUtagRECT@@@Z 004cbcb9 f   VConChild.obj
 0001:000cadd6       ?MySetScrollInfo@CConEmuChild@@IAEX_N0@Z 004cbdd6 f   VConChild.obj
 0001:000cae8d       ?OnAlwaysShowScrollbar@CConEmuChild@@QAEX_N@Z 004cbe8d f   VConChild.obj
 0001:000caf69       ?OnMove@CConEmuChild@@IAEJIJ@Z 004cbf69 f   VConChild.obj
 0001:000cafe3       ?OnPaint@CConEmuChild@@QAEJXZ 004cbfe3 f   VConChild.obj
 0001:000cb1db       ?OnPaintGaps@CConEmuChild@@QAEJPAUHDC__@@@Z 004cc1db f   VConChild.obj
 0001:000cb344       ?OnSize@CConEmuChild@@IAEJIJ@Z 004cc344 f   VConChild.obj
 0001:000cb3bd       ?OnVConSizePosChanged@CConEmuChild@@QAEXXZ 004cc3bd f   VConChild.obj
 0001:000cb3fd       ?PostDetach@CConEmuChild@@QAEX_N@Z 004cc3fd f   VConChild.obj
 0001:000cb417       ?PostOnVConClosed@CConEmuChild@@IAEXXZ 004cc417 f   VConChild.obj
 0001:000cb466       ?PostRestoreChildFocus@CConEmuChild@@QAEXXZ 004cc466 f   VConChild.obj
 0001:000cb48a       ?ProcessVConClosed@CConEmuChild@@SAXPAVCVirtualConsole@@_N@Z 004cc48a f   VConChild.obj
 0001:000cb4fb       ?Redraw@CConEmuChild@@QAEX_N@Z 004cc4fb f   VConChild.obj
 0001:000cb5bd       ?RestoreChildFocusPending@CConEmuChild@@QAEX_N@Z 004cc5bd f   VConChild.obj
 0001:000cb5e3       ?SetAutoCopyTimer@CConEmuChild@@QAEX_N@Z 004cc5e3 f   VConChild.obj
 0001:000cb61e       ?SetRedraw@CConEmuChild@@QAEX_N@Z 004cc61e f   VConChild.obj
 0001:000cb631       ?SetScroll@CConEmuChild@@QAEX_NHHH@Z 004cc631 f   VConChild.obj
 0001:000cb732       ?SetVConSizePos@CConEmuChild@@QAEXABUtagRECT@@0_N@Z 004cc732 f   VConChild.obj
 0001:000cb7c1       ?SetVConSizePos@CConEmuChild@@QAEXABUtagRECT@@_N@Z 004cc7c1 f   VConChild.obj
 0001:000cb810       ?ShowScroll@CConEmuChild@@IAEX_N@Z 004cc810 f   VConChild.obj
 0001:000cb96b       ?ShowView@CConEmuChild@@QAE_NH@Z 004cc96b f   VConChild.obj
 0001:000cbb42       ?TrackMouse@CConEmuChild@@QAE_NXZ 004ccb42 f   VConChild.obj
 0001:000cbc15       ?UpdateScrollRgn@CConEmuChild@@IAEX_N@Z 004ccc15 f   VConChild.obj
 0001:000cbd2f       ?isAlreadyDestroyed@CConEmuChild@@QAE_NXZ 004ccd2f f   VConChild.obj
 0001:000cbd37       ??0?$CRefGuard@VCVConGroup@@@@QAE@XZ 004ccd37 f i VConGroup.obj
 0001:000cbd51       ??0CGroupGuard@@QAE@PAVCVConGroup@@@Z 004ccd51 f   VConGroup.obj
 0001:000cbd85       ??0CVConGroup@@AAE@PAV0@@Z 004ccd85 f   VConGroup.obj
 0001:000cbe89       ??1?$CRefGuard@VCVConGroup@@@@UAE@XZ 004cce89 f i VConGroup.obj
 0001:000cbed4       ??1CGroupGuard@@UAE@XZ     004cced4 f   VConGroup.obj
 0001:000cbedf       ??1CVConGroup@@MAE@XZ      004ccedf f   VConGroup.obj
 0001:000cbf51       ??_G?$CRefGuard@VCVConGroup@@@@UAEPAXI@Z 004ccf51 f i VConGroup.obj
 0001:000cbf51       ??_E?$CRefGuard@VCVConGroup@@@@UAEPAXI@Z 004ccf51 f i VConGroup.obj
 0001:000cbf73       ??_ECGroupGuard@@UAEPAXI@Z 004ccf73 f i VConGroup.obj
 0001:000cbf73       ??_GCGroupGuard@@UAEPAXI@Z 004ccf73 f i VConGroup.obj
 0001:000cbf9b       ??_GCVConGroup@@MAEPAXI@Z  004ccf9b f i VConGroup.obj
 0001:000cbf9b       ??_ECVConGroup@@MAEPAXI@Z  004ccf9b f i VConGroup.obj
 0001:000cbfbd       ?Activate@CVConGroup@@SA_NPAVCVirtualConsole@@@Z 004ccfbd f   VConGroup.obj
 0001:000cbff9       ?ActivateNextPane@CVConGroup@@SA_NPAVCVirtualConsole@@HH@Z 004ccff9 f   VConGroup.obj
 0001:000cc09b       ?ActiveConNum@CVConGroup@@SAHXZ 004cd09b f   VConGroup.obj
 0001:000cc0c0       ?AllTextRect@CVConGroup@@SA?AUtagRECT@@PAUtagSIZE@@_N@Z 004cd0c0 f   VConGroup.obj
 0001:000cc1b9       ?Attach@CGroupGuard@@UAE_NPAVCVConGroup@@@Z 004cd1b9 f   VConGroup.obj
 0001:000cc22a       ?AttachRequested@CVConGroup@@SAHPAUHWND__@@PBUCESERVER_REQ_STARTSTOP@@AAUCESERVER_REQ_SRVSTARTSTOPRET@@@Z 004cd22a f   VConGroup.obj
 0001:000cc4d9       ?AttachRequestedGui@CVConGroup@@SAPAVCRealConsole@@KPB_WK@Z 004cd4d9 f   VConGroup.obj
 0001:000cc68a       ?CalcRect@CVConGroup@@SA?AUtagRECT@@W4ConEmuRect@@U2@0PAVCVirtualConsole@@W4ConEmuMargins@@@Z 004cd68a f   VConGroup.obj
 0001:000ccc40       ?CalcSplitRect@CVConGroup@@IAEXIUtagRECT@@AAU2@11@Z 004cdc40 f   VConGroup.obj
 0001:000ccfd7       ?CalcSplitRootRect@CVConGroup@@IAEXUtagRECT@@AAU2@PAV1@@Z 004cdfd7 f   VConGroup.obj
 0001:000cd087       ?CheckProcesses@CVConGroup@@SAKXZ 004ce087 f   VConGroup.obj
 0001:000cd0c6       ?CloseAllButActive@CVConGroup@@SAXPAVCVirtualConsole@@_N1@Z 004ce0c6 f   VConGroup.obj
 0001:000cd1d8       ?CloseGroup@CVConGroup@@SAXPAVCVirtualConsole@@_N@Z 004ce1d8 f   VConGroup.obj
 0001:000cd298       ?CloseQuery@CVConGroup@@CA_NPAV?$MArray@PAVCVConGuard@@@@PA_N_N2@Z 004ce298 f   VConGroup.obj
 0001:000cd643       ?ConActivate@CVConGroup@@CA_NAAVCVConGuard@@H@Z 004ce643 f   VConGroup.obj
 0001:000cd89d       ?ConActivate@CVConGroup@@SA_NH@Z 004ce89d f   VConGroup.obj
 0001:000cd93b       ?ConActivateByName@CVConGroup@@SA_NPB_W@Z 004ce93b f   VConGroup.obj
 0001:000cd992       ?ConActivateNext@CVConGroup@@SA_N_N@Z 004ce992 f   VConGroup.obj
 0001:000cda08       ?CreateCon@CVConGroup@@SAPAVCVirtualConsole@@PAURConStartArgsEx@@_N1@Z 004cea08 f   VConGroup.obj
 0001:000cded9       ?CreateVCon@CVConGroup@@CAPAVCVirtualConsole@@PAURConStartArgsEx@@AAPAV2@H@Z 004ceed9 f   VConGroup.obj
 0001:000ce07b       ?CreateVConGroup@CVConGroup@@CAPAV1@XZ 004cf07b f   VConGroup.obj
 0001:000ce0a9       ?Deinitialize@CVConGroup@@SAXXZ 004cf0a9 f   VConGroup.obj
 0001:000ce0b5       ?DestroyAllVCon@CVConGroup@@SAXXZ 004cf0b5 f   VConGroup.obj
 0001:000ce115       ?DoCloseAllVCon@CVConGroup@@SA_N_N@Z 004cf115 f   VConGroup.obj
 0001:000ce286       ?DoSrvCreated@CVConGroup@@SAPAUHWND__@@KQAU2@KAAK1AAHAAUCESERVER_REQ_SRVSTARTSTOPRET@@@Z 004cf286 f   VConGroup.obj
 0001:000ce326       ?EnumVCon@CVConGroup@@SA_NW4EnumVConFlags@@P6A_NPAVCVirtualConsole@@J@ZJ@Z 004cf326 f   VConGroup.obj
 0001:000ce3e0       ?ExchangePanes@CVConGroup@@SA_NPAVCVirtualConsole@@HH@Z 004cf3e0 f   VConGroup.obj
 0001:000ce50b       ?ExportEnvVarAll@CVConGroup@@SAXPAUCESERVER_REQ@@PAVCRealConsole@@@Z 004cf50b f   VConGroup.obj
 0001:000ce659       ?FindNextPane@CVConGroup@@IAEPAV1@ABUtagRECT@@HH@Z 004cf659 f   VConGroup.obj
 0001:000ce81e       ?FindSplitGroup@CVConGroup@@KAPAV1@UtagPOINT@@PAV1@@Z 004cf81e f   VConGroup.obj
 0001:000ce932       ?FreePanesArray@CVConGroup@@SAXAAV?$MArray@PAVCVConGuard@@@@@Z 004cf932 f   VConGroup.obj
 0001:000ce967       ?GetActiveVCon@CVConGroup@@SAHPAVCVConGuard@@PAH@Z 004cf967 f   VConGroup.obj
 0001:000ce9db       ?GetAllTextSize@CVConGroup@@IAEXAAUtagSIZE@@0_N@Z 004cf9db f   VConGroup.obj
 0001:000ceb22       ?GetAnotherGroup@CVConGroup@@IAEPAV1@XZ 004cfb22 f   VConGroup.obj
 0001:000ceb3d       ?GetConCount@CVConGroup@@SAH_N@Z 004cfb3d f   VConGroup.obj
 0001:000ceb78       ?GetExclusionRgn@CVConGroup@@SAPAUHRGN__@@_N@Z 004cfb78 f   VConGroup.obj
 0001:000cec10       ?GetFarPID@CVConGroup@@SAK_N@Z 004cfc10 f   VConGroup.obj
 0001:000cec45       ?GetGroupPanes@CVConGroup@@QAEHPAV?$MArray@PAVCVConGuard@@@@@Z 004cfc45 f   VConGroup.obj
 0001:000cecce       ?GetLeafLeft@CVConGroup@@AAEPAV1@XZ 004cfcce f   VConGroup.obj
 0001:000cecdc       ?GetProgressInfo@CVConGroup@@SA_NPAFPAH11@Z 004cfcdc f   VConGroup.obj
 0001:000cee37       ?GetRootGroup@CVConGroup@@IAEPAV1@XZ 004cfe37 f   VConGroup.obj
 0001:000cee4a       ?GetRootOfVCon@CVConGroup@@KAPAV1@PAVCVirtualConsole@@@Z 004cfe4a f   VConGroup.obj
 0001:000cee89       ?GetTasks@CVConGroup@@SAPA_WXZ 004cfe89 f   VConGroup.obj
 0001:000cf1e4       ?GetVCon@CVConGroup@@SA_NHPAVCVConGuard@@_N@Z 004d01e4 f   VConGroup.obj
 0001:000cf21f       ?GetVConByHWND@CVConGroup@@SA_NPAUHWND__@@0PAVCVConGuard@@@Z 004d021f f   VConGroup.obj
 0001:000cf255       ?GetVConByName@CVConGroup@@SA_NPB_WPAVCVConGuard@@@Z 004d0255 f   VConGroup.obj
 0001:000cf30a       ?GetVConBySrvPID@CVConGroup@@SA_NKKPAVCVConGuard@@@Z 004d030a f   VConGroup.obj
 0001:000cf410       ?GetVConFromPoint@CVConGroup@@SA_NUtagPOINT@@PAVCVConGuard@@@Z 004d0410 f   VConGroup.obj
 0001:000cf506       ?GetVConIndex@CVConGroup@@SAHPAVCVirtualConsole@@@Z 004d0506 f   VConGroup.obj
 0001:000cf526       ?GroupInput@CVConGroup@@SAXPAVCVirtualConsole@@W4GroupInputCmd@@@Z 004d0526 f   VConGroup.obj
 0001:000cf5f9       ?GroupSelectedInput@CVConGroup@@SAXPAVCVirtualConsole@@@Z 004d05f9 f   VConGroup.obj
 0001:000cf686       ?InCreateGroup@CVConGroup@@SA_NXZ 004d0686 f   VConGroup.obj
 0001:000cf68c       ?Initialize@CVConGroup@@SAXXZ 004d068c f   VConGroup.obj
 0001:000cf6c0       ?InvalidateAll@CVConGroup@@SAXXZ 004d06c0 f   VConGroup.obj
 0001:000cf71d       ?InvalidateGaps@CVConGroup@@SAXXZ 004d071d f   VConGroup.obj
 0001:000cf732       ?LogInput@CVConGroup@@SAXIIJPB_W@Z 004d0732 f   VConGroup.obj
 0001:000cf76a       ?LogString@CVConGroup@@SAXPBD@Z 004d076a f   VConGroup.obj
 0001:000cf799       ?LogString@CVConGroup@@SAXPB_W@Z 004d0799 f   VConGroup.obj
 0001:000cf7c8       ?MoveActiveTab@CVConGroup@@SAXPAVCVirtualConsole@@_N@Z 004d07c8 f   VConGroup.obj
 0001:000cf84f       ?MoveAllVCon@CVConGroup@@SAXPAVCVirtualConsole@@UtagRECT@@@Z 004d084f f   VConGroup.obj
 0001:000cf97d       ?MoveToParent@CVConGroup@@IAEXPAV1@@Z 004d097d f   VConGroup.obj
 0001:000cf9f8       ?NotifyChildrenWindows@CVConGroup@@SAXXZ 004d09f8 f   VConGroup.obj
 0001:000cfa65       ?OnAlwaysShowScrollbar@CVConGroup@@SAX_N@Z 004d0a65 f   VConGroup.obj
 0001:000cfa7e       ?OnCloseQuery@CVConGroup@@SA_NPA_N@Z 004d0a7e f   VConGroup.obj
 0001:000cfad0       ?OnConActivated@CVConGroup@@SAXPAVCVirtualConsole@@@Z 004d0ad0 f   VConGroup.obj
 0001:000cfaec       ?OnConsoleResize@CVConGroup@@SAX_N@Z 004d0aec f   VConGroup.obj
 0001:000cfd43       ?OnCreateGroupBegin@CVConGroup@@SAXXZ 004d0d43 f   VConGroup.obj
 0001:000cfd68       ?OnCreateGroupEnd@CVConGroup@@SAXXZ 004d0d68 f   VConGroup.obj
 0001:000cfd87       ?OnDestroyConEmu@CVConGroup@@SAXXZ 004d0d87 f   VConGroup.obj
 0001:000cfe12       ?OnDosAppStartStop@CVConGroup@@SAXPAUHWND__@@W4StartStopType@@K@Z 004d0e12 f   VConGroup.obj
 0001:000cfea7       ?OnFlashWindow@CVConGroup@@SA_NKKKPAUHWND__@@@Z 004d0ea7 f   VConGroup.obj
 0001:000d005c       ?OnGuiFocused@CVConGroup@@SAX_N0@Z 004d105c f   VConGroup.obj
 0001:000d00c3       ?OnMouseEvent@CVConGroup@@SAJPAUHWND__@@IIJ@Z 004d10c3 f   VConGroup.obj
 0001:000d02ce       ?OnPanelViewSettingsChanged@CVConGroup@@SAXXZ 004d12ce f   VConGroup.obj
 0001:000d02ea       ?OnRConTimerCheck@CVConGroup@@SAXXZ 004d12ea f   VConGroup.obj
 0001:000d033e       ?OnTaskbarCreated@CVConGroup@@SAXXZ 004d133e f   VConGroup.obj
 0001:000d039a       ?OnTaskbarSettingsChanged@CVConGroup@@SAXXZ 004d139a f   VConGroup.obj
 0001:000d03e3       ?OnUpdateFarSettings@CVConGroup@@SAXXZ 004d13e3 f   VConGroup.obj
 0001:000d0438       ?OnUpdateGuiInfoMapping@CVConGroup@@SAXPAUConEmuGuiMapping@@@Z 004d1438 f   VConGroup.obj
 0001:000d049c       ?OnUpdateProcessDisplay@CVConGroup@@SAXPAUHWND__@@@Z 004d149c f   VConGroup.obj
 0001:000d0618       ?OnUpdateScrollInfo@CVConGroup@@SAXXZ 004d1618 f   VConGroup.obj
 0001:000d067d       ?OnUpdateTextColorSettings@CVConGroup@@SAX_N0PBUAppSettings@@@Z 004d167d f   VConGroup.obj
 0001:000d06d7       ?OnVConClosed@CVConGroup@@SAXPAVCVirtualConsole@@@Z 004d16d7 f   VConGroup.obj
 0001:000d08cc       ?OnVConCreated@CVConGroup@@SAXPAVCVirtualConsole@@PBURConStartArgsEx@@@Z 004d18cc f   VConGroup.obj
 0001:000d091f       ?OnVConDestroyed@CVConGroup@@SAXPAVCVirtualConsole@@@Z 004d191f f   VConGroup.obj
 0001:000d0942       ?PaintGaps@CVConGroup@@SAXPAUHDC__@@@Z 004d1942 f   VConGroup.obj
 0001:000d0aab       ?PaintSplitter@CVConGroup@@IAEXPAUHDC__@@PAUHBRUSH__@@@Z 004d1aab f   VConGroup.obj
 0001:000d0b78       ?PaneActivateNext@CVConGroup@@SA_N_N@Z 004d1b78 f   VConGroup.obj
 0001:000d0c55       ?PaneMaximizeRestore@CVConGroup@@SAXPAVCVirtualConsole@@@Z 004d1c55 f   VConGroup.obj
 0001:000d0d3e       ?PopulateSplitPanes@CVConGroup@@AAEXIAAIAAV?$MArray@PAVCVConGuard@@@@@Z 004d1d3e f   VConGroup.obj
 0001:000d0e85       ?PreReSize@CVConGroup@@SA_NIUtagRECT@@W4ConEmuRect@@_N@Z 004d1e85 f   VConGroup.obj
 0001:000d0f98       ?ReSizePanes@CVConGroup@@SAXUtagRECT@@@Z 004d1f98 f   VConGroup.obj
 0001:000d1009       ?ReSizeSplitter@CVConGroup@@IAE_NH@Z 004d2009 f   VConGroup.obj
 0001:000d12ce       ?ReSizeSplitter@CVConGroup@@SA_NPAVCVirtualConsole@@HH@Z 004d22ce f   VConGroup.obj
 0001:000d1415       ?ReSizeSplitterHelper@CVConGroup@@KAJJ@Z 004d2415 f   VConGroup.obj
 0001:000d1439       ?Redraw@CVConGroup@@SAXXZ  004d2439 f   VConGroup.obj
 0001:000d1498       ?RemoveGroup@CVConGroup@@IAEXXZ 004d2498 f   VConGroup.obj
 0001:000d1527       ?RepositionVCon@CVConGroup@@IAEXUtagRECT@@_N@Z 004d2527 f   VConGroup.obj
 0001:000d1766       ?ResetGroupInput@CVConGroup@@SAXPAVCConEmuMain@@W4GroupInputCmd@@@Z 004d2766 f   VConGroup.obj
 0001:000d1815       ?SetAllConsoleWindowsSize@CVConGroup@@SAXUtagRECT@@W4ConEmuRect@@U_COORD@@_N@Z 004d2815 f   VConGroup.obj
 0001:000d195c       ?SetConsoleSizes@CVConGroup@@IAEXABU_COORD@@ABUtagRECT@@_N@Z 004d295c f   VConGroup.obj
 0001:000d1c6e       ?SetRedraw@CVConGroup@@SAX_N@Z 004d2c6e f   VConGroup.obj
 0001:000d1cc6       ?SetResizeFlags@CVConGroup@@IAEXXZ 004d2cc6 f   VConGroup.obj
 0001:000d1cd8       ?ShowActiveGroup@CVConGroup@@KAXPAVCVirtualConsole@@@Z 004d2cd8 f   VConGroup.obj
 0001:000d1da1       ?ShowAllVCon@CVConGroup@@IAEXH@Z 004d2da1 f   VConGroup.obj
 0001:000d1e41       ?SplitVConGroup@CVConGroup@@AAEPAV1@W4SplitType@RConStartArgs@@I@Z 004d2e41 f   VConGroup.obj
 0001:000d1f4d       ?StopSignalAll@CVConGroup@@SAXXZ 004d2f4d f   VConGroup.obj
 0001:000d1f70       ?StopSplitDragging@CVConGroup@@KAXXZ 004d2f70 f   VConGroup.obj
 0001:000d206d       ?StoreActiveVCon@CVConGroup@@IAEXPAVCVirtualConsole@@@Z 004d306d f   VConGroup.obj
 0001:000d209c       ?SyncAllConsoles2Window@CVConGroup@@SAXUtagRECT@@W4ConEmuRect@@_N@Z 004d309c f   VConGroup.obj
 0001:000d212b       ?SyncConsoleToWindow@CVConGroup@@SAXPAUtagRECT@@_N@Z 004d312b f   VConGroup.obj
 0001:000d21c6       ?Update@CVConGroup@@SAX_N@Z 004d31c6 f   VConGroup.obj
 0001:000d223a       ?UpdateWindowChild@CVConGroup@@SAXPAVCVirtualConsole@@@Z 004d323a f   VConGroup.obj
 0001:000d2330       ?erase@?$MArray@PAUtag_CEDragSource@CDragDropData@@@@QAEXH@Z 004d3330 f i DragDropData.obj
 0001:000d2330       ?erase@?$MArray@PAX@@QAEXH@Z 004d3330 f i TaskBar.obj
 0001:000d2330       ?erase@?$MArray@PAVCBackgroundInfo@@@@QAEXH@Z 004d3330 f i Background.obj
 0001:000d2330       ?erase@?$MArray@PAVCTabID@@@@QAEXH@Z 004d3330 f i TabBar.obj
 0001:000d2330       ?erase@?$MArray@PAVCVConGuard@@@@QAEXH@Z 004d3330 f i VConGroup.obj
 0001:000d2330       ?erase@?$MArray@PA_W@@QAEXH@Z 004d3330 f i CmdHistory.obj
 0001:000d2330       ?erase@?$MArray@PAVCFont@@@@QAEXH@Z 004d3330 f i FontMgr.obj
 0001:000d237d       ?isActiveGroupVCon@CVConGroup@@SA_NPAVCVirtualConsole@@@Z 004d337d f   VConGroup.obj
 0001:000d23ed       ?isChildWindowVisible@CVConGroup@@SA_NXZ 004d33ed f   VConGroup.obj
 0001:000d2472       ?isConSelectMode@CVConGroup@@SA_NXZ 004d3472 f   VConGroup.obj
 0001:000d24be       ?isConsolePID@CVConGroup@@SA_NK@Z 004d34be f   VConGroup.obj
 0001:000d2520       ?isDetached@CVConGroup@@SA_NXZ 004d3520 f   VConGroup.obj
 0001:000d257c       ?isFar@CVConGroup@@SA_N_N@Z 004d357c f   VConGroup.obj
 0001:000d25cf       ?isFarExist@CVConGroup@@SAHIPA_WPAVCVConGuard@@@Z 004d35cf f   VConGroup.obj
 0001:000d28a6       ?isFilePanel@CVConGroup@@SA_N_N@Z 004d38a6 f   VConGroup.obj
 0001:000d28fb       ?isGroup@CVConGroup@@SA_NPAVCVirtualConsole@@PAPAV1@PAVCVConGuard@@@Z 004d38fb f   VConGroup.obj
 0001:000d2983       ?isGroupVisible@CVConGroup@@KA_NPAV1@@Z 004d3983 f   VConGroup.obj
 0001:000d29e0       ?isInCreateRoot@CVConGroup@@SA_NXZ 004d39e0 f   VConGroup.obj
 0001:000d2a3c       ?isNtvdm@CVConGroup@@SA_NH@Z 004d3a3c f   VConGroup.obj
 0001:000d2ac5       ?isOurConsoleWindow@CVConGroup@@SA_NPAUHWND__@@@Z 004d3ac5 f   VConGroup.obj
 0001:000d2b35       ?isOurGuiChildWindow@CVConGroup@@SA_NPAUHWND__@@@Z 004d3b35 f   VConGroup.obj
 0001:000d2bd6       ?isOurWindow@CVConGroup@@SA_NPAUHWND__@@@Z 004d3bd6 f   VConGroup.obj
 0001:000d2c9b       ?isPictureView@CVConGroup@@SA_NXZ 004d3c9b f   VConGroup.obj
 0001:000d2dd0       ?isSplitterDragging@CVConGroup@@SA?AW4SplitType@RConStartArgs@@XZ 004d3dd0 f   VConGroup.obj
 0001:000d2e00       ?isVConExists@CVConGroup@@SA_NH@Z 004d3e00 f   VConGroup.obj
 0001:000d2e1c       ?isVConHWND@CVConGroup@@SA_NPAUHWND__@@PAVCVConGuard@@@Z 004d3e1c f   VConGroup.obj
 0001:000d2eb4       ?isValid@CVConGroup@@SA_NPAVCRealConsole@@@Z 004d3eb4 f   VConGroup.obj
 0001:000d2f13       ?isValid@CVConGroup@@SA_NPAVCVirtualConsole@@@Z 004d3f13 f   VConGroup.obj
 0001:000d2f39       ?setActiveVConAndFlags@CVConGroup@@KAXPAVCVirtualConsole@@@Z 004d3f39 f   VConGroup.obj
 0001:000d3001       ?setRef@CVConGroup@@KA_NAAPAVCVirtualConsole@@PAV2@@Z 004d4001 f   VConGroup.obj
 0001:000d307c       ??0?$CRefGuard@VCVirtualConsole@@@@QAE@XZ 004d407c f i VConRelease.obj
 0001:000d3096       ??0CVConGuard@@QAE@PAVCVirtualConsole@@@Z 004d4096 f   VConRelease.obj
 0001:000d30ce       ??0CVConGuard@@QAE@XZ      004d40ce f   VConRelease.obj
 0001:000d30ee       ??0CVConRelease@@QAE@PAVCVirtualConsole@@@Z 004d40ee f   VConRelease.obj
 0001:000d3116       ??1?$CRefGuard@VCVirtualConsole@@@@UAE@XZ 004d4116 f i VConRelease.obj
 0001:000d3161       ??1CVConGuard@@UAE@XZ      004d4161 f   VConRelease.obj
 0001:000d316c       ??_E?$CRefGuard@VCVirtualConsole@@@@UAEPAXI@Z 004d416c f i VConRelease.obj
 0001:000d316c       ??_G?$CRefGuard@VCVirtualConsole@@@@UAEPAXI@Z 004d416c f i VConRelease.obj
 0001:000d318e       ??_ECVConGuard@@UAEPAXI@Z  004d418e f i VConRelease.obj
 0001:000d318e       ??_GCVConGuard@@UAEPAXI@Z  004d418e f i VConRelease.obj
 0001:000d31b6       ??_GCVConRelease@@UAEPAXI@Z 004d41b6 f i VConRelease.obj
 0001:000d31b6       ??_ECVConRelease@@UAEPAXI@Z 004d41b6 f i VConRelease.obj
 0001:000d31d9       ?Attach@?$CRefGuard@VCConHostSearch@CRealConsole@@@@UAE_NPAVCConHostSearch@CRealConsole@@@Z 004d41d9 f i RealConsole.obj
 0001:000d31d9       ?Attach@?$CRefGuard@VCVConGroup@@@@UAE_NPAVCVConGroup@@@Z 004d41d9 f i VConGroup.obj
 0001:000d31d9       ?Attach@?$CRefGuard@VCRConData@@@@UAE_NPAVCRConData@@@Z 004d41d9 f i RealBuffer.obj
 0001:000d31d9       ?Attach@?$CRefGuard@VCVirtualConsole@@@@UAE_NPAVCVirtualConsole@@@Z 004d41d9 f i VConRelease.obj
 0001:000d3212       ?Attach@CVConGuard@@UAE_NPAVCVirtualConsole@@@Z 004d4212 f   VConRelease.obj
 0001:000d326c       ?DeleteFromMainThread@CVConRelease@@QAEXXZ 004d426c f   VConRelease.obj
 0001:000d327b       ?FinalRelease@CVConRelease@@MAEXXZ 004d427b f   VConRelease.obj
 0001:000d32a8       ??0CVConLine@@QAE@PAVCRealConsole@@@Z 004d42a8 f   VConText.obj
 0001:000d3307       ??0Shrinker@@QAE@XZ        004d4307 f i VConText.obj
 0001:000d334f       ??1CVConLine@@QAE@XZ       004d434f f   VConText.obj
 0001:000d3385       ??1Shrinker@@QAE@XZ        004d4385 f i VConText.obj
 0001:000d338f       ??8@YA_NABUtag_CharAttr@@0@Z 004d438f f i VConText.obj
 0001:000d33ae       ?AllocateMemory@CVConLine@@IAE_NXZ 004d43ae f   VConText.obj
 0001:000d3416       ?CropParts@CVConLine@@IAEXIII@Z 004d4416 f   VConText.obj
 0001:000d34c8       ?DistributeParts@CVConLine@@IAEXIII@Z 004d44c8 f   VConText.obj
 0001:000d3611       ?DoShrink@CVConLine@@IAEXAAIAAH00@Z 004d4611 f   VConText.obj
 0001:000d3674       ?Done@VConTextPart@@QAEXXZ 004d4674 f   VConText.obj
 0001:000d3690       ?ExpandPart@CVConLine@@IAEXAAUVConTextPart@@I@Z 004d4690 f   VConText.obj
 0001:000d36fa       ?GetNextPart@CVConLine@@QAE_NAAIAAPAUVConTextPart@@1@Z 004d46fa f   VConText.obj
 0001:000d377d       ?Init@VConTextPart@@QAEXIIPAVCVConLine@@@Z 004d477d f   VConText.obj
 0001:000d37d8       ?ParseLine@CVConLine@@QAE_N_NIIIPA_WPAUtag_CharAttr@@QB_WQBU2@@Z 004d47d8 f   VConText.obj
 0001:000d3e77       ?PolishParts@CVConLine@@QAEXPAK@Z 004d4e77 f   VConText.obj
 0001:000d40bd       ?ReleaseMemory@CVConLine@@IAEXXZ 004d50bd f   VConText.obj
 0001:000d411b       ?SetDialogs@CVConLine@@QAEXHPAU_SMALL_RECT@@PAKKABU2@@Z 004d511b f   VConText.obj
 0001:000d414a       ?SetLen@VConTextPart@@QAEXII@Z 004d514a f   VConText.obj
 0001:000d420a       ?eval_compression@Shrinker@@QAE_NPAUVConTextPart@@IIH@Z 004d520a f i VConText.obj
 0001:000d4414       ?get_total@Shrinker@@QAEXPAUVConTextPart@@IIAAMAAH@Z 004d5414 f i VConText.obj
 0001:000d46db       ?init@Shrinker@@QAEXPAUVConTextPart@@III@Z 004d56db f i VConText.obj
 0001:000d4713       ?isCharAltFont@@YA_NH@Z    004d5713 f   VConText.obj
 0001:000d4726       ?isCharBorderVertical@@YA_NH@Z 004d5726 f   VConText.obj
 0001:000d475e       ?isCharNonWord@@YA_NH@Z    004d575e f   VConText.obj
 0001:000d4791       ?isCharProgress@@YA_NH@Z   004d5791 f   VConText.obj
 0001:000d47bb       ?isCharPseudoFree@@YA_NH@Z 004d57bb f   VConText.obj
 0001:000d47d8       ?isCharPunctuation@@YA_NH@Z 004d57d8 f   VConText.obj
 0001:000d4840       ?isCharScroll@@YA_NH@Z     004d5840 f   VConText.obj
 0001:000d4878       ?isCharSeparate@@YA_NH@Z   004d5878 f   VConText.obj
 0001:000d48cc       ?isCharSpace@@YA_NH@Z      004d58cc f   VConText.obj
 0001:000d490c       ?isCharSpaceSingle@@YA_NH@Z 004d590c f   VConText.obj
 0001:000d4944       ?isCharTriangles@@YA_NH@Z  004d5944 f   VConText.obj
 0001:000d4961       ?isDialogBorderCoord@CVConLine@@IAEKI@Z 004d5961 f   VConText.obj
 0001:000d4a8c       ??$SafeDelete@VCRealConsole@@@@YAXAAPAVCRealConsole@@@Z 004d5a8c f i VirtualConsole.obj
 0001:000d4acc       ??$_Buynode@ABUpiecewise_construct_t@std@@V?$tuple@ABH@2@V?$tuple@$$V@2@@?$_List_buy@U?$pair@$$CBHG@std@@V?$allocator@U?$pair@$$CBHG@std@@@2@@std@@QAEPAU?$_List_node@U?$pair@$$CBHG@std@@PAX@1@PAU21@0ABUpiecewise_construct_t@1@$$QAV?$tuple@ABH@1@$$QAV?$tuple@$$V@1@@Z 004d5acc f i VirtualConsole.obj
 0001:000d4aee       ??$_Insert@AAU?$pair@$$CBHG@std@@V?$_List_unchecked_iterator@V?$_List_val@U?$_List_simple_types@U?$pair@$$CBHG@std@@@std@@@std@@@2@@?$_Hash@V?$_Umap_traits@HGV?$_Uhash_compare@HU?$hash@H@std@@U?$equal_to@H@2@@std@@V?$allocator@U?$pair@$$CBHG@std@@@2@$0A@@std@@@std@@IAE?AU?$pair@V?$_List_iterator@V?$_List_val@U?$_List_simple_types@U?$pair@$$CBHG@std@@@std@@@std@@@std@@_N@1@AAU?$pair@$$CBHG@1@V?$_List_unchecked_iterator@V?$_List_val@U?$_List_simple_types@U?$pair@$$CBHG@std@@@std@@@std@@@1@@Z 004d5aee f i VirtualConsole.obj
 0001:000d4bc2       ??$_Insert@ABUpiecewise_construct_t@std@@V?$tuple@ABH@2@V?$tuple@$$V@2@@?$list@U?$pair@$$CBHG@std@@V?$allocator@U?$pair@$$CBHG@std@@@2@@std@@QAEXV?$_List_unchecked_const_iterator@V?$_List_val@U?$_List_simple_types@U?$pair@$$CBHG@std@@@std@@@std@@U_Iterator_base0@2@@1@ABUpiecewise_construct_t@1@$$QAV?$tuple@ABH@1@$$QAV?$tuple@$$V@1@@Z 004d5bc2 f i VirtualConsole.obj
 0001:000d4bfe       ??$_Try_emplace@ABH$$V@?$unordered_map@HGU?$hash@H@std@@U?$equal_to@H@2@V?$allocator@U?$pair@$$CBHG@std@@@2@@std@@QAE?AU?$pair@V?$_List_iterator@V?$_List_val@U?$_List_simple_types@U?$pair@$$CBHG@std@@@std@@@std@@@std@@_N@1@ABH@Z 004d5bfe f i VirtualConsole.obj
 0001:000d4c4d       ??$emplace@ABUpiecewise_construct_t@std@@V?$tuple@ABH@2@V?$tuple@$$V@2@@?$_Hash@V?$_Umap_traits@HGV?$_Uhash_compare@HU?$hash@H@std@@U?$equal_to@H@2@@std@@V?$allocator@U?$pair@$$CBHG@std@@@2@$0A@@std@@@std@@QAE?AU?$pair@V?$_List_iterator@V?$_List_val@U?$_List_simple_types@U?$pair@$$CBHG@std@@@std@@@std@@@std@@_N@1@ABUpiecewise_construct_t@1@$$QAV?$tuple@ABH@1@$$QAV?$tuple@$$V@1@@Z 004d5c4d f i VirtualConsole.obj
 0001:000d4c87       ??$erase@V?$_List_iterator@V?$_List_val@U?$_List_simple_types@U?$pair@$$CBHG@std@@@std@@@std@@@std@@X@?$_Hash@V?$_Umap_traits@HGV?$_Uhash_compare@HU?$hash@H@std@@U?$equal_to@H@2@@std@@V?$allocator@U?$pair@$$CBHG@std@@@2@$0A@@std@@@std@@QAE?AV?$_List_iterator@V?$_List_val@U?$_List_simple_types@U?$pair@$$CBHG@std@@@std@@@std@@@1@V21@@Z 004d5c87 f i VirtualConsole.obj
 0001:000d4c9c       ??0CVirtualConsole@@IAE@PAVCConEmuMain@@H@Z 004d5c9c f   VirtualConsole.obj
 0001:000d4f87       ??0_HighlightInfo@CVirtualConsole@@QAE@XZ 004d5f87 f i VirtualConsole.obj
 0001:000d4fb8       ??1CEDC@@QAE@XZ            004d5fb8 f i VirtualConsole.obj
 0001:000d4fd4       ??1CVirtualConsole@@MAE@XZ 004d5fd4 f   VirtualConsole.obj
 0001:000d515e       ??_ECVirtualConsole@@OM@AEPAXI@Z 004d615e f i VirtualConsole.obj
 0001:000d5166       ??_ECVirtualConsole@@MAEPAXI@Z 004d6166 f i VirtualConsole.obj
 0001:000d5166       ??_GCVirtualConsole@@MAEPAXI@Z 004d6166 f i VirtualConsole.obj
 0001:000d518b       ?Alloc@CVirtualConsole@@IAEPAXII@Z 004d618b f   VirtualConsole.obj
 0001:000d51a8       ?Blit@CVirtualConsole@@QAE_NPAUHDC__@@HHHH@Z 004d61a8 f   VirtualConsole.obj
 0001:000d51d8       ?CalcHighlightRowCol@CVirtualConsole@@IAE_NPAU_COORD@@@Z 004d61d8 f   VirtualConsole.obj
 0001:000d533a       ?ChangeHighlightMouse@CVirtualConsole@@QAEXHH@Z 004d633a f   VirtualConsole.obj
 0001:000d5433       ?ChangePalette@CVirtualConsole@@QAE_NH@Z 004d6433 f   VirtualConsole.obj
 0001:000d5454       ?ChangePalette@CVirtualConsole@@QAE_NPBUColorPalette@@@Z 004d6454 f   VirtualConsole.obj
 0001:000d5570       ?ChangePalette@CVirtualConsole@@QAE_NPB_W@Z 004d6570 f   VirtualConsole.obj
 0001:000d5591       ?CharAttrFromConAttr@CVirtualConsole@@AAEXGPAUtag_CharAttr@@@Z 004d6591 f   VirtualConsole.obj
 0001:000d560d       ?CharWidth@CVirtualConsole@@IAEG_WABUtag_CharAttr@@@Z 004d660d f   VirtualConsole.obj
 0001:000d577f       ?CheckChangedTextAttr@CVirtualConsole@@IAE_NXZ 004d677f f   VirtualConsole.obj
 0001:000d5960       ?CheckDialogsChanged@CVirtualConsole@@AAE_NXZ 004d6960 f   VirtualConsole.obj
 0001:000d5a02       ?CheckTransparent@CVirtualConsole@@QAE_NXZ 004d6a02 f   VirtualConsole.obj
 0001:000d5ab9       ?CheckTransparentRgn@CVirtualConsole@@IAE_N_N@Z 004d6ab9 f   VirtualConsole.obj
 0001:000d5e45       ?ClearPartBrushes@CVirtualConsole@@SAXXZ 004d6e45 f   VirtualConsole.obj
 0001:000d5e74       ?ClientToConsole@CVirtualConsole@@QAE?AU_COORD@@JJ_N@Z 004d6e74 f   VirtualConsole.obj
 0001:000d5f58       ?ConsoleToClient@CVirtualConsole@@QAE?AUtagPOINT@@JJ@Z 004d6f58 f   VirtualConsole.obj
 0001:000d600c       ?Constructor@CVirtualConsole@@IAE_NPAURConStartArgsEx@@@Z 004d700c f   VirtualConsole.obj
 0001:000d6253       ?CreateBackBrush@CVirtualConsole@@AAEPAUHBRUSH__@@_NAA_NPAK@Z 004d7253 f   VirtualConsole.obj
 0001:000d62c6       ?Dump@CVirtualConsole@@QAE_NPB_W@Z 004d72c6 f   VirtualConsole.obj
 0001:000d64aa       ?DumpConsole@CVirtualConsole@@QAEXXZ 004d74aa f   VirtualConsole.obj
 0001:000d656f       ?FindChanges@CVirtualConsole@@IAE_NHPB_WPBUtag_CharAttr@@01@Z 004d756f f   VirtualConsole.obj
 0001:000d65e7       ?FindOpaqueCell@CVirtualConsole@@QAE?AU_COORD@@XZ 004d75e7 f   VirtualConsole.obj
 0001:000d66b3       ?Free@CVirtualConsole@@IAEXPAX@Z 004d76b3 f   VirtualConsole.obj
 0001:000d66d6       ?GetBackgroundObject@CVirtualConsole@@QAEPAVCBackgroundInfo@@XZ 004d76d6 f   VirtualConsole.obj
 0001:000d6709       ?GetCellSize@CVirtualConsole@@QAE?AUtagSIZE@@XZ 004d7709 f   VirtualConsole.obj
 0001:000d6724       ?GetColors@CVirtualConsole@@QAEPAKXZ 004d7724 f   VirtualConsole.obj
 0001:000d6732       ?GetColors@CVirtualConsole@@QAEPAK_N@Z 004d7732 f   VirtualConsole.obj
 0001:000d67cc       ?GetCursor@CVirtualConsole@@QAE?ATCECursorType@@_N@Z 004d77cc f   VirtualConsole.obj
 0001:000d6871       ?GetDcClientRect@CVirtualConsole@@QAE?AUtagRECT@@XZ 004d7871 f   VirtualConsole.obj
 0001:000d68bb       ?GetExclusionRgn@CVirtualConsole@@QAEPAUHRGN__@@_N@Z 004d78bb f   VirtualConsole.obj
 0001:000d6903       ?GetIntDC@CVirtualConsole@@IAEPAUHDC__@@XZ 004d7903 f   VirtualConsole.obj
 0001:000d690a       ?GetPaletteIndex@CVirtualConsole@@QAEHXZ 004d790a f   VirtualConsole.obj
 0001:000d6982       ?GetTextHeight@CVirtualConsole@@QAEJXZ 004d7982 f   VirtualConsole.obj
 0001:000d6989       ?GetTextWidth@CVirtualConsole@@QAEJXZ 004d7989 f   VirtualConsole.obj
 0001:000d6990       ?GetUCharMapFontPtr@CVirtualConsole@@QAE_NAAVCFontPtr@@@Z 004d7990 f   VirtualConsole.obj
 0001:000d69b3       ?GetVConHeight@CVirtualConsole@@QAEJXZ 004d79b3 f   VirtualConsole.obj
 0001:000d69ba       ?GetVConWidth@CVirtualConsole@@QAEJXZ 004d79ba f   VirtualConsole.obj
 0001:000d69c1       ?GhostWnd@CVirtualConsole@@QAEPAUHWND__@@XZ 004d79c1 f   VirtualConsole.obj
 0001:000d69d6       ?GuiWnd@CVirtualConsole@@QAEPAUHWND__@@XZ 004d79d6 f   VirtualConsole.obj
 0001:000d69eb       ?HasBackgroundImage@CVirtualConsole@@QAE_NPAJ0@Z 004d79eb f   VirtualConsole.obj
 0001:000d6a20       ?ID@CVirtualConsole@@QAEHXZ 004d7a20 f   VirtualConsole.obj
 0001:000d6a27       ?IDStr@CVirtualConsole@@QAEPB_WXZ 004d7a27 f   VirtualConsole.obj
 0001:000d6a3f       ?Index@CVirtualConsole@@QAEHXZ 004d7a3f f   VirtualConsole.obj
 0001:000d6a46       ?IndexStr@CVirtualConsole@@QAEPB_WXZ 004d7a46 f   VirtualConsole.obj
 0001:000d6a5e       ?InitDC@CVirtualConsole@@QAE_N_N0PAVMSectionLock@@1@Z 004d7a5e f   VirtualConsole.obj
 0001:000d6cf6       ?InitGhost@CVirtualConsole@@QAEXXZ 004d7cf6 f   VirtualConsole.obj
 0001:000d6d36       ?InternalOpenCreate@?$MFileMapping@Utag_DetectedDialog@@@@IAEPAUtag_DetectedDialog@@HHH@Z 004d7d36 f i VirtualConsole.obj
 0001:000d6e51       ?IsPanelViews@CVirtualConsole@@QAE_NXZ 004d7e51 f   VirtualConsole.obj
 0001:000d6e8a       ?LoadConsoleData@CVirtualConsole@@QAE_NXZ 004d7e8a f   VirtualConsole.obj
 0001:000d7111       ?LoadDumpConsole@CVirtualConsole@@QAE_NXZ 004d8111 f   VirtualConsole.obj
 0001:000d720e       ?Log@VConCreateLogger@@YAXPAVCVirtualConsole@@W4EventType@1@@Z 004d820e f   VirtualConsole.obj
 0001:000d7241       ?NeedBackgroundUpdate@CVirtualConsole@@QAEXXZ 004d8241 f   VirtualConsole.obj
 0001:000d7254       ?OnAppSettingsChanged@CVirtualConsole@@QAEXH@Z 004d8254 f   VirtualConsole.obj
 0001:000d72e6       ?OnConsoleSizeChanged@CVirtualConsole@@QAEXXZ 004d82e6 f   VirtualConsole.obj
 0001:000d7326       ?OnConsoleSizeReset@CVirtualConsole@@QAEXGG@Z 004d8326 f   VirtualConsole.obj
 0001:000d7353       ?OnDestroy@CVirtualConsole@@MAEXXZ 004d8353 f   VirtualConsole.obj
 0001:000d7378       ?OnFontChanged@CVirtualConsole@@QAEXXZ 004d8378 f   VirtualConsole.obj
 0001:000d7384       ?OnPanelViewSettingsChanged@CVirtualConsole@@QAEXXZ 004d8384 f   VirtualConsole.obj
 0001:000d7445       ?OnTaskbarFocus@CVirtualConsole@@QAEXXZ 004d8445 f   VirtualConsole.obj
 0001:000d7454       ?OnTaskbarSettingsChanged@CVirtualConsole@@QAEXXZ 004d8454 f   VirtualConsole.obj
 0001:000d7490       ?OnTitleChanged@CVirtualConsole@@QAEXXZ 004d8490 f   VirtualConsole.obj
 0001:000d74bf       ?Owner@CVirtualConsole@@QAEPAVCConEmuMain@@XZ 004d84bf f   VirtualConsole.obj
 0001:000d74cd       ?PaintBackgroundImage@CVirtualConsole@@QAEXABUtagRECT@@K@Z 004d84cd f   VirtualConsole.obj
 0001:000d79ce       ?PaintVCon@CVirtualConsole@@QAEXPAUHDC__@@@Z 004d89ce f   VirtualConsole.obj
 0001:000d7c30       ?PaintVConDebug@CVirtualConsole@@IAEXPAUHDC__@@UtagRECT@@@Z 004d8c30 f   VirtualConsole.obj
 0001:000d7fdc       ?PaintVConNormal@CVirtualConsole@@IAEXPAUHDC__@@UtagRECT@@@Z 004d8fdc f   VirtualConsole.obj
 0001:000d8577       ?PaintVConSimple@CVirtualConsole@@IAEXPAUHDC__@@UtagRECT@@_N@Z 004d9577 f   VirtualConsole.obj
 0001:000d8733       ?PartBrush@CVirtualConsole@@KAPAUHBRUSH__@@_WKK@Z 004d9733 f   VirtualConsole.obj
 0001:000d8aef       ?PatInvertRect@CVirtualConsole@@IAEXPAUHDC__@@ABUtagRECT@@0_N@Z 004d9aef f   VirtualConsole.obj
 0001:000d8bb5       ?PointersAlloc@CVirtualConsole@@AAE_NXZ 004d9bb5 f   VirtualConsole.obj
 0001:000d8c9a       ?PointersFree@CVirtualConsole@@AAEXXZ 004d9c9a f   VirtualConsole.obj
 0001:000d8d6e       ?PointersZero@CVirtualConsole@@AAEXXZ 004d9d6e f   VirtualConsole.obj
 0001:000d8ded       ?PolishPanelViews@CVirtualConsole@@AAEXXZ 004d9ded f   VirtualConsole.obj
 0001:000d92a7       ?PrintClient@CVirtualConsole@@QAE_NPAUHDC__@@_NQAUtagRECT@@@Z 004da2a7 f   VirtualConsole.obj
 0001:000d939b       ?RCon@CVirtualConsole@@QAEPAVCRealConsole@@XZ 004da39b f   VirtualConsole.obj
 0001:000d93bf       ?RegisterPanelView@CVirtualConsole@@QAE_NPAUPanelViewInit@@@Z 004da3bf f   VirtualConsole.obj
 0001:000d94e7       ?ResetHighlightCoords@CVirtualConsole@@IAEXXZ 004da4e7 f   VirtualConsole.obj
 0001:000d951b       ?SavePaneSnapshot@CVirtualConsole@@QAEXXZ 004da51b f   VirtualConsole.obj
 0001:000d9554       ?SelectBrush@CVirtualConsole@@QAEXPAUHBRUSH__@@@Z 004da554 f   VirtualConsole.obj
 0001:000d95b8       ?SelectFont@CVirtualConsole@@IAEXABVCFontPtr@@@Z 004da5b8 f   VirtualConsole.obj
 0001:000d95e7       ?SelectFont@CVirtualConsole@@QAEXW4CEFontStyles@@@Z 004da5e7 f   VirtualConsole.obj
 0001:000d9649       ?SetBackgroundImageData@CVirtualConsole@@QAEHPAUCESERVER_REQ_SETBACKGROUND@@@Z 004da649 f   VirtualConsole.obj
 0001:000d96a0       ?SetFlags@CVirtualConsole@@IAE_NKKH@Z 004da6a0 f   VirtualConsole.obj
 0001:000d9715       ?SetSelfPalette@CVirtualConsole@@QAEXGGAAY0BA@$$CBK@Z 004da715 f   VirtualConsole.obj
 0001:000d998e       ?StretchPaint@CVirtualConsole@@QAE_NPAUHDC__@@HHHH@Z 004da98e f   VirtualConsole.obj
 0001:000d9a0f       ?UndoHighlights@CVirtualConsole@@IAEXXZ 004daa0f f   VirtualConsole.obj
 0001:000d9ac9       ?Update@CVirtualConsole@@QAE_N_NPAPAUHDC__@@@Z 004daac9 f   VirtualConsole.obj
 0001:000d9e1d       ?UpdateCursor@CVirtualConsole@@QAEXAA_N@Z 004dae1d f   VirtualConsole.obj
 0001:000da075       ?UpdateCursorDraw@CVirtualConsole@@IAEXPAUHDC__@@UtagRECT@@U_COORD@@I@Z 004db075 f   VirtualConsole.obj
 0001:000da50c       ?UpdateCursorGroup@CVirtualConsole@@SA_NPAV1@J@Z 004db50c f   VirtualConsole.obj
 0001:000da53a       ?UpdateHighlights@CVirtualConsole@@IAEXXZ 004db53a f   VirtualConsole.obj
 0001:000da594       ?UpdateHighlightsHyperlink@CVirtualConsole@@IAEXXZ 004db594 f   VirtualConsole.obj
 0001:000da6c4       ?UpdateHighlightsRowCol@CVirtualConsole@@IAEXXZ 004db6c4 f   VirtualConsole.obj
 0001:000da8bb       ?UpdateInfo@CVirtualConsole@@QAEXXZ 004db8bb f   VirtualConsole.obj
 0001:000dab45       ?UpdatePanelRgn@CVirtualConsole@@AAE_N_N00@Z 004dbb45 f   VirtualConsole.obj
 0001:000daf70       ?UpdatePanelView@CVirtualConsole@@AAE_N_N0@Z 004dbf70 f   VirtualConsole.obj
 0001:000db168       ?UpdatePrepare@CVirtualConsole@@IAE_NPAPAUHDC__@@PAVMSectionLock@@1@Z 004dc168 f   VirtualConsole.obj
 0001:000db619       ?UpdateText@CVirtualConsole@@IAEXXZ 004dc619 f   VirtualConsole.obj
 0001:000dbf66       ?UpdateThumbnail@CVirtualConsole@@QAEX_N@Z 004dcf66 f   VirtualConsole.obj
 0001:000dbfa5       ?WasHighlightRowColChanged@CVirtualConsole@@IAE_NXZ 004dcfa5 f   VirtualConsole.obj
 0001:000dc0b7       ?_Check_size@?$_Hash@V?$_Umap_traits@HGV?$_Uhash_compare@HU?$hash@H@std@@U?$equal_to@H@2@@std@@V?$allocator@U?$pair@$$CBHG@std@@@2@$0A@@std@@@std@@IAEXXZ 004dd0b7 f i VirtualConsole.obj
 0001:000dc0fc       ?_Erase_bucket@?$_Hash@V?$_Umap_traits@HGV?$_Uhash_compare@HU?$hash@H@std@@U?$equal_to@H@2@@std@@V?$allocator@U?$pair@$$CBHG@std@@@2@$0A@@std@@@std@@IAEXV?$_List_iterator@V?$_List_val@U?$_List_simple_types@U?$pair@$$CBHG@std@@@std@@@std@@@2@I@Z 004dd0fc f i VirtualConsole.obj
 0001:000dc142       ?_Hash_bytes@std@@YAIPBEI@Z 004dd142 f i VirtualConsole.obj
 0001:000dc16c       ?_Incsize@?$list@U?$pair@$$CBHG@std@@V?$allocator@U?$pair@$$CBHG@std@@@2@@std@@QAEXI@Z 004dd16c f i VirtualConsole.obj
 0001:000dc197       ?_Insert_bucket@?$_Hash@V?$_Umap_traits@HGV?$_Uhash_compare@HU?$hash@H@std@@U?$equal_to@H@2@@std@@V?$allocator@U?$pair@$$CBHG@std@@@2@$0A@@std@@@std@@IAEXV?$_List_unchecked_iterator@V?$_List_val@U?$_List_simple_types@U?$pair@$$CBHG@std@@@std@@@std@@@2@0I@Z 004dd197 f i VirtualConsole.obj
 0001:000dc1e6       ?_Make_iter@?$_Hash@V?$_Umap_traits@HGV?$_Uhash_compare@HU?$hash@H@std@@U?$equal_to@H@2@@std@@V?$allocator@U?$pair@$$CBHG@std@@@2@$0A@@std@@@std@@QBE?AV?$_List_iterator@V?$_List_val@U?$_List_simple_types@U?$pair@$$CBHG@std@@@std@@@std@@@2@V?$_List_unchecked_const_iterator@V?$_List_val@U?$_List_simple_types@U?$pair@$$CBHG@std@@@std@@@std@@U_Iterator_base0@2@@2@@Z 004dd1e6 f i VirtualConsole.obj
 0001:000dc1f5       ?_Reinsert@?$_Hash@V?$_Umap_traits@HGV?$_Uhash_compare@HU?$hash@H@std@@U?$equal_to@H@2@@std@@V?$allocator@U?$pair@$$CBHG@std@@@2@$0A@@std@@@std@@IAEXXZ 004dd1f5 f i VirtualConsole.obj
 0001:000dc229       ?_Unchecked_splice@?$list@U?$pair@$$CBHG@std@@V?$allocator@U?$pair@$$CBHG@std@@@2@@std@@QAEXV?$_List_unchecked_const_iterator@V?$_List_val@U?$_List_simple_types@U?$pair@$$CBHG@std@@@std@@@std@@U_Iterator_base0@2@@2@00@Z 004dd229 f i VirtualConsole.obj
 0001:000dc272       ?erase@?$_Hash@V?$_Umap_traits@HGV?$_Uhash_compare@HU?$hash@H@std@@U?$equal_to@H@2@@std@@V?$allocator@U?$pair@$$CBHG@std@@@2@$0A@@std@@@std@@QAE?AV?$_List_iterator@V?$_List_val@U?$_List_simple_types@U?$pair@$$CBHG@std@@@std@@@std@@@2@V?$_List_const_iterator@V?$_List_val@U?$_List_simple_types@U?$pair@$$CBHG@std@@@std@@@std@@@2@@Z 004dd272 f i VirtualConsole.obj
 0001:000dc2ae       ?erase@?$list@U?$pair@$$CBHG@std@@V?$allocator@U?$pair@$$CBHG@std@@@2@@std@@QAE?AV?$_List_iterator@V?$_List_val@U?$_List_simple_types@U?$pair@$$CBHG@std@@@std@@@std@@@2@V?$_List_const_iterator@V?$_List_val@U?$_List_simple_types@U?$pair@$$CBHG@std@@@std@@@std@@@2@@Z 004dd2ae f i VirtualConsole.obj
 0001:000dc2ea       ?isActive@CVirtualConsole@@QAE_N_N@Z 004dd2ea f   VirtualConsole.obj
 0001:000dc307       ?isGroup@CVirtualConsole@@QAE_NXZ 004dd307 f   VirtualConsole.obj
 0001:000dc315       ?isGroupedInput@CVirtualConsole@@QAE?AW4EnumVConFlags@@XZ 004dd315 f   VirtualConsole.obj
 0001:000dc350       ?isHighlightAny@CVirtualConsole@@IAE_NXZ 004dd350 f   VirtualConsole.obj
 0001:000dc379       ?isHighlightMouseCol@CVirtualConsole@@IAE_NXZ 004dd379 f   VirtualConsole.obj
 0001:000dc395       ?isHighlightMouseRow@CVirtualConsole@@IAE_NXZ 004dd395 f   VirtualConsole.obj
 0001:000dc3b1       ?isVisible@CVirtualConsole@@QAE_NXZ 004dd3b1 f   VirtualConsole.obj
 0001:000dc3ca       ?load_factor@?$_Hash@V?$_Umap_traits@HGV?$_Uhash_compare@HU?$hash@H@std@@U?$equal_to@H@2@@std@@V?$allocator@U?$pair@$$CBHG@std@@@2@$0A@@std@@@std@@QBEMXZ 004dd3ca f i VirtualConsole.obj
 0001:000dc414       ?lower_bound@?$_Hash@V?$_Umap_traits@HGV?$_Uhash_compare@HU?$hash@H@std@@U?$equal_to@H@2@@std@@V?$allocator@U?$pair@$$CBHG@std@@@2@$0A@@std@@@std@@QAE?AV?$_List_iterator@V?$_List_val@U?$_List_simple_types@U?$pair@$$CBHG@std@@@std@@@std@@@2@ABH@Z 004dd414 f i VirtualConsole.obj
 0001:000dc46e       ?setFocus@CVirtualConsole@@QAEXXZ 004dd46e f   VirtualConsole.obj
 0001:000dc4a7       ??0CWinObjBase@@QAE@XZ     004dd4a7 f   WinObjBase.obj
 0001:000dc4b9       ??1CWinObjBase@@UAE@XZ     004dd4b9 f   WinObjBase.obj
 0001:000dc4c0       ??_ECWinObjBase@@UAEPAXI@Z 004dd4c0 f i WinObjBase.obj
 0001:000dc4c0       ??_GCWinObjBase@@UAEPAXI@Z 004dd4c0 f i WinObjBase.obj
 0001:000dc4e3       ?AllocateBlock@?$MMap@PAUHWND__@@UCEIconHintOthers@@$0A@@@IAEPAUMapItems@1@XZ 004dd4e3 f i SearchCtrl.obj
 0001:000dc4e3       ?AllocateBlock@?$MMap@PAUHWND__@@UTabPanelWinMap@@$0A@@@IAEPAUMapItems@1@XZ 004dd4e3 f i WinObjBase.obj
 0001:000dc516       ?FindBlockItem@?$MMap@PAUHWND__@@UCEIconHintOthers@@$0A@@@IAE_NABQAUHWND__@@AAPAUMapItems@1@AAPAUMapItem@1@@Z 004dd516 f i SearchCtrl.obj
 0001:000dc516       ?FindBlockItem@?$MMap@PAUHWND__@@UTabPanelWinMap@@$0A@@@IAE_NABQAUHWND__@@AAPAUMapItems@1@AAPAUMapItem@1@@Z 004dd516 f i WinObjBase.obj
 0001:000dc57d       ?GetObj@CWinObjBase@@KAPAV1@PAUHWND__@@PAUTabPanelWinMap@@_N@Z 004dd57d f   WinObjBase.obj
 0001:000dc5c5       ?InitObjMap@CWinObjBase@@SA_NXZ 004dd5c5 f   WinObjBase.obj
 0001:000dc611       ?SetObj@CWinObjBase@@KAXPAUHWND__@@PAV1@P6GJ0IIJ@Z@Z 004dd611 f   WinObjBase.obj
 0001:000dc653       _GetFileVersionInfoSizeW@8 004dd653 f   version:VERSION.dll
 0001:000dc659       _GetFileVersionInfoW@16    004dd659 f   version:VERSION.dll
 0001:000dc65f       _VerQueryValueW@16         004dd65f f   version:VERSION.dll
 0001:000dc665       _NetUserEnum@32            004dd665 f   netapi32:NETAPI32.dll
 0001:000dc66b       _NetApiBufferFree@4        004dd66b f   netapi32:NETAPI32.dll
 0001:000dc671       _CreateToolhelp32Snapshot@8 004dd671 f   kernel32:KERNEL32.dll
 0001:000dc677       _Module32FirstW@8          004dd677 f   kernel32:KERNEL32.dll
 0001:000dc67d       _Module32NextW@8           004dd67d f   kernel32:KERNEL32.dll
 0001:000dc683       _Process32FirstW@8         004dd683 f   kernel32:KERNEL32.dll
 0001:000dc689       _Process32NextW@8          004dd689 f   kernel32:KERNEL32.dll
 0001:000dc68f       ??2@YAPAXI@Z               004dd68f f   common-kernel32:Memory.obj
 0001:000dc6bc       ??3@YAXPAX@Z               004dd6bc f   common-kernel32:Memory.obj
 0001:000dc6d6       ??_U@YAPAXI@Z              004dd6d6 f   common-kernel32:Memory.obj
 0001:000dc6f0       ??_V@YAXPAX@Z              004dd6f0 f   common-kernel32:Memory.obj
 0001:000dc70a       ?HeapInitialize@@YA_NXZ    004dd70a f   common-kernel32:Memory.obj
 0001:000dc72c       ?xf_calloc@@YAPAXIIPBDH@Z  004dd72c f   common-kernel32:Memory.obj
 0001:000dc786       ?xf_free@@YAXPAXPBDH@Z     004dd786 f   common-kernel32:Memory.obj
 0001:000dc7bb       ?xf_malloc@@YAPAXIPBDH@Z   004dd7bb f   common-kernel32:Memory.obj
 0001:000dc811       ?xf_realloc@@YAPAXPAXIPBDH@Z 004dd811 f   common-kernel32:Memory.obj
 0001:000dc894       ?xf_set_tag@@YAXPAXPBDH_N@Z 004dd894 f   common-kernel32:Memory.obj
 0001:000dc910       ?xf_validate@@YA_NPAX@Z    004dd910 f   common-kernel32:Memory.obj
 0001:000dc943       ?lstrdup@@YAPA_WPB_WI@Z    004dd943 f   common-kernel32:MStrDup.obj
 0001:000dc998       ?lstrdupW@@YAPA_WPBDI@Z    004dd998 f   common-kernel32:MStrDup.obj
 0001:000dc9f0       ?lstrmerge@@YAPA_WPB_W00000000@Z 004dd9f0 f   common-kernel32:MStrDup.obj
 0001:000dcaf5       ?lstrmerge@@YA_NPAPA_WPB_W1111111@Z 004ddaf5 f   common-kernel32:MStrDup.obj
 0001:000dcb4a       ??0CEStr@@QAE@$$QAPA_W@Z   004ddb4a f   common-kernel32:CEStr.obj
 0001:000dcb6d       ??0CEStr@@QAE@PB_W00000000@Z 004ddb6d f   common-kernel32:CEStr.obj
 0001:000dcbb7       ??0CEStr@@QAE@XZ           004ddbb7 f   common-kernel32:CEStr.obj
 0001:000dcbca       ??1CEStr@@QAE@XZ           004ddbca f   common-kernel32:CEStr.obj
 0001:000dcc0e       ??4CEStr@@QAEAAU0@$$QAPA_W@Z 004ddc0e f   common-kernel32:CEStr.obj
 0001:000dcc23       ??4CEStr@@QAEAAU0@PB_W@Z   004ddc23 f   common-kernel32:CEStr.obj
 0001:000dcc3a       ??BCEStr@@QBE_NXZ          004ddc3a f   common-kernel32:CEStr.obj
 0001:000dcc42       ?Attach@CEStr@@QAEPB_W$$QAPA_W@Z 004ddc42 f   common-kernel32:CEStr.obj
 0001:000dcc4b       ?AttachInt@CEStr@@AAEPB_WAAPA_W@Z 004ddc4b f   common-kernel32:CEStr.obj
 0001:000dccb2       ?Clear@CEStr@@QAEXXZ       004ddcb2 f   common-kernel32:CEStr.obj
 0001:000dcccf       ?Compare@CEStr@@QBEHPB_W_N@Z 004ddccf f   common-kernel32:CEStr.obj
 0001:000dcd0a       ?CompareSwitch@CEStr@@ABE_NPB_W@Z 004ddd0a f   common-kernel32:CEStr.obj
 0001:000dcd97       ?Detach@CEStr@@QAEPA_WXZ   004ddd97 f   common-kernel32:CEStr.obj
 0001:000dcdaa       ?Empty@CEStr@@QAEXXZ       004dddaa f   common-kernel32:CEStr.obj
 0001:000dcdcb       ?GetBuffer@CEStr@@QAEPA_WH@Z 004dddcb f   common-kernel32:CEStr.obj
 0001:000dce5d       ?GetLen@CEStr@@QBEHXZ      004dde5d f   common-kernel32:CEStr.obj
 0001:000dce8b       ?GetMaxCount@CEStr@@QAEHXZ 004dde8b f   common-kernel32:CEStr.obj
 0001:000dcea7       ?GetPosFrom@CEStr@@QAEXABU1@@Z 004ddea7 f   common-kernel32:CEStr.obj
 0001:000dcec9       ?IsEmpty@CEStr@@QBE_NXZ    004ddec9 f   common-kernel32:CEStr.obj
 0001:000dced9       ?IsPossibleSwitch@CEStr@@QBE_NXZ 004dded9 f   common-kernel32:CEStr.obj
 0001:000dcf31       ?IsSwitch@CEStr@@QBE_NPB_W@Z 004ddf31 f   common-kernel32:CEStr.obj
 0001:000dcf5e       ?Mid@CEStr@@QBEPB_WH@Z     004ddf5e f   common-kernel32:CEStr.obj
 0001:000dcf86       ?OneOfSwitches@CEStr@@QBE_NPB_W000000000@Z 004ddf86 f   common-kernel32:CEStr.obj
 0001:000dd045       ?SavePathVar@CEStr@@QAEXPB_W@Z 004de045 f   common-kernel32:CEStr.obj
 0001:000dd073       ?Set@CEStr@@QAEPB_WPB_WH@Z 004de073 f   common-kernel32:CEStr.obj
 0001:000dd132       ?c_str@CEStr@@QBEPB_WPB_W@Z 004de132 f   common-kernel32:CEStr.obj
 0001:000dd142       ?ApplyExportEnvVar@@YAXPB_W@Z 004de142 f   common-kernel32:WObjects.obj
 0001:000dd21b       ?CoordInSmallRect@@YA_NABU_COORD@@ABU_SMALL_RECT@@@Z 004de21b f   common-kernel32:WObjects.obj
 0001:000dd24a       ?ExpandEnvStr@@YAPA_WPB_W@Z 004de24a f   common-kernel32:WObjects.obj
 0001:000dd2da       ?ExpandMacroValues@@YAPA_WPB_WPAPB_WI@Z 004de2da f   common-kernel32:WObjects.obj
 0001:000dd404       ?FileExists@@YA_NPB_WPAK@Z 004de404 f   common-kernel32:WObjects.obj
 0001:000dd52e       ?FileExistsSearch@@YA_NPB_WAAUCEStr@@_N2@Z 004de52e f   common-kernel32:WObjects.obj
 0001:000dd5f8       ?FileSearchInDir@@YA_NPB_WAAUCEStr@@@Z 004de5f8 f   common-kernel32:WObjects.obj
 0001:000dd726       ?GetComspec@@YAPA_WPBUConEmuComspec@@@Z 004de726 f   common-kernel32:WObjects.obj
 0001:000dd833       ?GetComspecFromEnvVar@@YAPB_WPA_WKW4ComSpecBits@@@Z 004de833 f   common-kernel32:WObjects.obj
 0001:000dd964       ?GetCpFromString@@YAIPB_WPAPB_W@Z 004de964 f   common-kernel32:WObjects.obj
 0001:000dda71       ?GetEnvVar@@YAPA_WPB_W@Z   004dea71 f   common-kernel32:WObjects.obj
 0001:000ddb0a       ?GetOsVersionInformational@@YA_NPAU_OSVERSIONINFOW@@@Z 004deb0a f   common-kernel32:WObjects.obj
 0001:000ddb1d       ?GetShortFileName@@YA_NPB_WHPA_WH@Z 004deb1d f   common-kernel32:WObjects.obj
 0001:000ddc05       ?GetShortFileNameEx@@YAPA_WPB_WH@Z 004dec05 f   common-kernel32:WObjects.obj
 0001:000ddf48       ?IsDbcs@@YA_NXZ            004def48 f   common-kernel32:WObjects.obj
 0001:000ddf56       ?IsExportEnvVarAllowed@@YA_NPB_W@Z 004def56 f   common-kernel32:WObjects.obj
 0001:000ddfce       ?IsHwFullScreenAvailable@@YA_NXZ 004defce f   common-kernel32:WObjects.obj
 0001:000de056       ?IsWin10@@YA_NXZ           004df056 f   common-kernel32:WObjects.obj
 0001:000de0c6       ?IsWin2kEql@@YA_NXZ        004df0c6 f   common-kernel32:WObjects.obj
 0001:000de0f4       ?IsWin6@@YA_NXZ            004df0f4 f   common-kernel32:WObjects.obj
 0001:000de122       ?IsWin7@@YA_NXZ            004df122 f   common-kernel32:WObjects.obj
 0001:000de150       ?IsWin8_1@@YA_NXZ          004df150 f   common-kernel32:WObjects.obj
 0001:000de17e       ?IsWinPE@@YA_NXZ           004df17e f   common-kernel32:WObjects.obj
 0001:000de1e7       ?IsWinVerEqual@@YA_NG@Z    004df1e7 f   common-kernel32:WObjects.obj
 0001:000de271       ?IsWinVerOrHigher@@YA_NG@Z 004df271 f   common-kernel32:WObjects.obj
 0001:000de2fb       ?IsWindows64@@YA_NXZ       004df2fb f   common-kernel32:WObjects.obj
 0001:000de36d       ?IsWine@@YA_NXZ            004df36d f   common-kernel32:WObjects.obj
 0001:000de3d6       ?apiGetFullPathName@@YAHPB_WAAUCEStr@@@Z 004df3d6 f   common-kernel32:WObjects.obj
 0001:000de4bd       ?apiSearchPath@@YAHPB_W00AAUCEStr@@@Z 004df4bd f   common-kernel32:WObjects.obj
 0001:000de5c9       ??0MNullDesc@@QAE@XZ       004df5c9 f i common-kernel32:MSecurity.obj
 0001:000de5eb       ??1MNullDesc@@QAE@XZ       004df5eb f i common-kernel32:MSecurity.obj
 0001:000de623       ?LoadAdvApi@MNullDesc@@IAEHXZ 004df623 f i common-kernel32:MSecurity.obj
 0001:000de76e       ?LocalSecurity@@YAPAU_SECURITY_ATTRIBUTES@@XZ 004df76e f   common-kernel32:MSecurity.obj
 0001:000de79a       ?LocalSecurity@MNullDesc@@QAEPAU_SECURITY_ATTRIBUTES@@XZ 004df79a f i common-kernel32:MSecurity.obj
 0001:000de8bb       ?ShutdownSecurity@@YAXXZ   004df8bb f   common-kernel32:MSecurity.obj
 0001:000de8e0       ?UnloadAdvApi@MNullDesc@@IAEXXZ 004df8e0 f i common-kernel32:MSecurity.obj
 0001:000de8f8       ?CheckProcessName@@YA_NPB_WPAPB_W@Z 004df8f8 f   common-kernel32:CmdLine.obj
 0001:000de9cc       ?CompareFileMask@@YA_NPB_W0@Z 004df9cc f   common-kernel32:CmdLine.obj
 0001:000deb1e       ?CompareProcessNames@@YA_NPB_W0@Z 004dfb1e f   common-kernel32:CmdLine.obj
 0001:000dec71       ?GetDrive@@YAPB_WPB_WPA_WH@Z 004dfc71 f   common-kernel32:CmdLine.obj
 0001:000ded4f       ?IsCmdProcessor@@YA_NPB_W@Z 004dfd4f f   common-kernel32:CmdLine.obj
 0001:000ded8e       ?IsConEmuGui@@YA_NPB_W@Z   004dfd8e f   common-kernel32:CmdLine.obj
 0001:000dedcd       ?IsConsoleHelper@@YA_NPB_W@Z 004dfdcd f   common-kernel32:CmdLine.obj
 0001:000dedf0       ?IsConsoleServer@@YA_NPB_W@Z 004dfdf0 f   common-kernel32:CmdLine.obj
 0001:000dee2f       ?IsConsoleService@@YA_NPB_W@Z 004dfe2f f   common-kernel32:CmdLine.obj
 0001:000dee6e       ?IsExecutable@@YA_NPB_WPAPA_W@Z 004dfe6e f   common-kernel32:CmdLine.obj
 0001:000def10       ?IsFarExe@@YA_NPB_W@Z      004dff10 f   common-kernel32:CmdLine.obj
 0001:000def4f       ?IsFilePath@@YA_NPB_W_N@Z  004dff4f f   common-kernel32:CmdLine.obj
 0001:000df07b       ?IsGitBashHelper@@YA_NPB_W@Z 004e007b f   common-kernel32:CmdLine.obj
 0001:000df0ba       ?IsNeedCmd@@YA_NHPB_WAAUCEStr@@PAPB_WPAH333@Z 004e00ba f   common-kernel32:CmdLine.obj
 0001:000df7e4       ?IsNeedDequote@@YA_NPB_W_NPAPB_W@Z 004e07e4 f   common-kernel32:CmdLine.obj
 0001:000df924       ?IsQuotationNeeded@@YA_NPB_W@Z 004e0924 f   common-kernel32:CmdLine.obj
 0001:000df945       ?IsTerminalServer@@YA_NPB_W@Z 004e0945 f   common-kernel32:CmdLine.obj
 0001:000df999       ?JoinPath@@YAPA_WPB_W00@Z  004e0999 f   common-kernel32:CmdLine.obj
 0001:000dfa6e       ?MergeCmdLine@@YAPA_WPB_W0@Z 004e0a6e f   common-kernel32:CmdLine.obj
 0001:000dfac9       ?NextArg@@YAHPAPB_WAAUCEStr@@0@Z 004e0ac9 f   common-kernel32:CmdLine.obj
 0001:000dfe29       ?NextLine@@YAHPAPB_WAAUCEStr@@K@Z 004e0e29 f   common-kernel32:CmdLine.obj
 0001:000dff1f       ?PointToExt@@YAPB_WPB_W@Z  004e0f1f f   common-kernel32:CmdLine.obj
 0001:000dff3d       ?PointToName@@YAPB_WPB_W@Z 004e0f3d f   common-kernel32:CmdLine.obj
 0001:000dff7f       ?SkipNonPrintable@@YAPB_WPB_W@Z 004e0f7f f   common-kernel32:CmdLine.obj
 0001:000dffa7       ?Unquote@@YAPB_WPA_W_N@Z   004e0fa7 f   common-kernel32:CmdLine.obj
 0001:000dfff2       ?ExecuteCmd@@YAPAUCESERVER_REQ@@PB_WPAU1@KPAUHWND__@@HKH@Z 004e0ff2 f   common-kernel32:ConEmuCheck.obj
 0001:000e01e0       ?ExecuteFreeResult@@YAXAAPAUCESERVER_REQ@@@Z 004e11e0 f   common-kernel32:ConEmuCheck.obj
 0001:000e0204       ?ExecuteGuiCmd@@YAPAUCESERVER_REQ@@PAUHWND__@@PAU1@0H@Z 004e1204 f   common-kernel32:ConEmuCheck.obj
 0001:000e0287       ?ExecuteHkCmd@@YAPAUCESERVER_REQ@@KPAU1@PAUHWND__@@HH@Z 004e1287 f   common-kernel32:ConEmuCheck.obj
 0001:000e0316       ?ExecuteNewCmd@@YAPAUCESERVER_REQ@@KI@Z 004e1316 f   common-kernel32:ConEmuCheck.obj
 0001:000e035f       ?ExecuteNewCmd@@YA_NAAPAUCESERVER_REQ@@AAKKI@Z 004e135f f   common-kernel32:ConEmuCheck.obj
 0001:000e03bd       ?ExecuteOpenPipe@@YAPAXPB_WAAY0CAI@_W0KKHPAXH@Z 004e13bd f   common-kernel32:ConEmuCheck.obj
 0001:000e04f6       ?ExecutePrepareCmd@@YAXPAUCESERVER_REQ@@KI@Z 004e14f6 f   common-kernel32:ConEmuCheck.obj
 0001:000e052d       ?ExecutePrepareCmd@@YAXPAUCESERVER_REQ_HDR@@KI@Z 004e152d f   common-kernel32:ConEmuCheck.obj
 0001:000e0595       ?ExecuteSrvCmd@@YAPAUCESERVER_REQ@@KPAU1@PAUHWND__@@HKH@Z 004e1595 f   common-kernel32:ConEmuCheck.obj
 0001:000e062e       ?GuiMessageBox@@YAHPAUHWND__@@PB_W1H@Z 004e162e f   common-kernel32:ConEmuCheck.obj
 0001:000e075f       ?LoadSrvMapping@@YAHPAUHWND__@@AAUCESERVER_CONSOLE_MAPPING_HDR@@@Z 004e175f f   common-kernel32:ConEmuCheck.obj
 0001:000e0813       ?ModuleName@@YAPB_WPB_W@Z  004e1813 f   common-kernel32:ConEmuCheck.obj
 0001:000e08b2       ?isConsoleClass@@YA_NPB_W@Z 004e18b2 f   common-kernel32:ConEmuCheck.obj
 0001:000e08ec       ?isConsoleWindow@@YA_NPAUHWND__@@@Z 004e18ec f   common-kernel32:ConEmuCheck.obj
 0001:000e09b1       ?myGetConsoleWindow@@YAPAUHWND__@@XZ 004e19b1 f   common-kernel32:ConEmuCheck.obj
 0001:000e0a23       ??$GetProcAddress@$$A6GHKPAK@Z@MModule@@QBE_NPBDAAP6GHKPAK@Z@Z 004e1a23 f i common-user32:WSession.obj
 0001:000e0a23       ??$GetProcAddress@$$A6GKPB_WPAEPAK@Z@MModule@@QBE_NPBDAAP6GKPB_WPAEPAK@Z@Z 004e1a23 f i TaskScheduler.obj
 0001:000e0a23       ??$GetProcAddress@$$A6GKPB_WKK@Z@MModule@@QBE_NPBDAAP6GKPB_WKK@Z@Z 004e1a23 f i TaskScheduler.obj
 0001:000e0a23       ??$GetProcAddress@$$A6GJPAUHWND__@@HPAXKPA_W@Z@MModule@@QBE_NPBDAAP6GJPAUHWND__@@HPAXKPA_W@Z@Z 004e1a23 f i common-kernel32:MFileLog.obj
 0001:000e0a23       ??$GetProcAddress@$$A6GJPBU_TASKDIALOGCONFIG@@PAH11@Z@MModule@@QBE_NPBDAAP6GJPBU_TASKDIALOGCONFIG@@PAH22@Z@Z 004e1a23 f i ConfirmDlg.obj
 0001:000e0a23       ??$GetProcAddress@$$A6GKXZ@MModule@@QBE_NPBDAAP6GKXZ@Z 004e1a23 f i common-user32:WSession.obj
 0001:000e0a23       ??$GetProcAddress@$$A6GHPAXPAH@Z@MModule@@QBE_NPBDAAP6GHPAXPAH@Z@Z 004e1a23 f i common-kernel32:MProcessBits.obj
 0001:000e0a4a       ?GetProcessBits@@YAHKPAX@Z 004e1a4a f   common-kernel32:MProcessBits.obj
 0001:000e0b1c       ?SetThreadName@@YAXKPAD@Z  004e1b1c f   common-kernel32:WThreads.obj
 0001:000e0b6b       ?apiCreateThread@@YAPAXP6GKPAX@Z0PAKPBDH@Z 004e1b6b f   common-kernel32:WThreads.obj
 0001:000e0c5d       ?apiTerminateThreadEx@@YAHPAXKPBDH@Z 004e1c5d f   common-kernel32:WThreads.obj
 0001:000e0d34       ?apiThreadHelper@@YGKPAX@Z 004e1d34 f   common-kernel32:WThreads.obj
 0001:000e0ec2       ?wasTerminateThreadCalled@@YA_NXZ 004e1ec2 f   common-kernel32:WThreads.obj
 0001:000e0ecd       ??8@YA_NABU_COORD@@0@Z     004e1ecd f   common-kernel32:MRect.obj
 0001:000e0ed6       ??9@YA_NABU_COORD@@0@Z     004e1ed6 f   common-kernel32:MRect.obj
 0001:000e0eea       ?CoordCompare@@YAHABU_COORD@@0@Z 004e1eea f   common-kernel32:MRect.obj
 0001:000e0f2e       ?CoordEqual@@YA_NABU_COORD@@0@Z 004e1f2e f   common-kernel32:MRect.obj
 0001:000e0f51       ?CoordInRect@@YA_NABU_COORD@@ABUtagRECT@@@Z 004e1f51 f   common-kernel32:MRect.obj
 0001:000e0f7c       ?IntersectSmallRect@@YA_NABUtagRECT@@ABU_SMALL_RECT@@PAU1@@Z 004e1f7c f   common-kernel32:MRect.obj
 0001:000e0fee       ?MakeCoord@@YA?AU_COORD@@HH@Z 004e1fee f   common-kernel32:MRect.obj
 0001:000e1006       ?MakePoint@@YA?AUtagPOINT@@HH@Z 004e2006 f   common-kernel32:MRect.obj
 0001:000e1011       ?MakeRect@@YA?AUtagRECT@@HH@Z 004e2011 f   common-kernel32:MRect.obj
 0001:000e102c       ?MakeRect@@YA?AUtagRECT@@HHHH@Z 004e202c f   common-kernel32:MRect.obj
 0001:000e104b       ?MakeUShort@@YAGI@Z        004e204b f   common-kernel32:MRect.obj
 0001:000e104b       ?MakeShort@@YAFH@Z         004e204b f   common-kernel32:MRect.obj
 0001:000e1054       ?MakeSmallRect@@YA?AU_SMALL_RECT@@HHHH@Z 004e2054 f   common-kernel32:MRect.obj
 0001:000e1083       ?PtDiffTest@@YA_NHHHHII@Z  004e2083 f   common-kernel32:MRect.obj
 0001:000e10ad       ?PtDiffTest@@YA_NUtagPOINT@@HHI@Z 004e20ad f   common-kernel32:MRect.obj
 0001:000e10cc       ??0MSection@@QAE@XZ        004e20cc f   common-kernel32:MSection.obj
 0001:000e112b       ??1MSection@@QAE@XZ        004e212b f   common-kernel32:MSection.obj
 0001:000e1185       ??1MSectionLock@@QAE@XZ    004e2185 f   common-kernel32:MSection.obj
 0001:000e119e       ?AddRef@MSection@@IAEXK@Z  004e219e f   common-kernel32:MSection.obj
 0001:000e1209       ?Lock@MSection@@IAEHHK@Z   004e2209 f   common-kernel32:MSection.obj
 0001:000e12d3       ?Lock@MSectionLock@@QAEHPAVMSection@@HK@Z 004e22d3 f   common-kernel32:MSection.obj
 0001:000e131e       ?MyEnterCriticalSection@MSection@@IAE_NK@Z 004e231e f   common-kernel32:MSection.obj
 0001:000e1408       ?ReleaseRef@MSection@@IAEHK@Z 004e2408 f   common-kernel32:MSection.obj
 0001:000e1476       ?RelockExclusive@MSectionLock@@QAEHK@Z 004e2476 f   common-kernel32:MSection.obj
 0001:000e14af       ?Unlock@MSection@@IAEXH@Z  004e24af f   common-kernel32:MSection.obj
 0001:000e14ed       ?Unlock@MSectionLock@@QAEXXZ 004e24ed f   common-kernel32:MSection.obj
 0001:000e150a       ?WaitUnlocked@MSection@@IAEXKK@Z 004e250a f   common-kernel32:MSection.obj
 0001:000e1567       ?isLocked@MSectionLock@@QAEHH@Z 004e2567 f   common-kernel32:MSection.obj
 0001:000e1586       ?lstrcmpni@@YAHPBD0H@Z     004e2586 f   common-kernel32:MStrSafe.obj
 0001:000e165e       ?lstrcmpni@@YAHPB_W0H@Z    004e265e f   common-kernel32:MStrSafe.obj
 0001:000e1758       ?msprintf@@YAPB_WPA_WIPB_WZZ 004e2758 f   common-kernel32:MStrSafe.obj
 0001:000e1b84       ?startswith@@YAHPB_W0_N@Z  004e2b84 f   common-kernel32:MStrSafe.obj
 0001:000e1bd7       ?CommonShutdown@@YAXXZ     004e2bd7 f   common-kernel32:Common.obj
 0001:000e1be6       ?GetCommand@CESERVER_REQ_NEWCMD@@QAEPA_WXZ 004e2be6 f   common-kernel32:Common.obj
 0001:000e1bff       ?GetEnvStrings@CESERVER_REQ_NEWCMD@@QAEPA_WXZ 004e2bff f   common-kernel32:Common.obj
 0001:000e1c1c       ?IsEnvBlockVariableValid@@YA_NPB_W@Z 004e2c1c f   common-kernel32:Common.obj
 0001:000e1c47       ?Mangle@STRPTR2@@QAEPAEPAE@Z 004e2c47 f   common-kernel32:Common.obj
 0001:000e1cb4       ?PackInputRecord@@YAHPBU_INPUT_RECORD@@PAUMsgStr@MSG64@@@Z 004e2cb4 f   common-kernel32:Common.obj
 0001:000e1df2       ?Set@STRPTR2@@QAEX$$QAPA_WH@Z 004e2df2 f   common-kernel32:Common.obj
 0001:000e1e19       ?SetCommand@CESERVER_REQ_NEWCMD@@QAEXPB_W@Z 004e2e19 f   common-kernel32:Common.obj
 0001:000e1e65       ?TranslateKeyPress@@YAXGK_WHPAU_INPUT_RECORD@@1@Z 004e2e65 f   common-kernel32:Common.obj
 0001:000e1fa0       ?GetImageSubsystem@@YA_NPB_WAAK11@Z 004e2fa0 f   common-kernel32:execute.obj
 0001:000e222e       ?IsFileBatch@@YA_NPB_W@Z   004e322e f   common-kernel32:execute.obj
 0001:000e2292       ??0MSectionSimple@@QAE@_N@Z 004e3292 f   common-kernel32:MSectionSimple.obj
 0001:000e22bf       ??1MSectionLockSimple@@QAE@XZ 004e32bf f   common-kernel32:MSectionSimple.obj
 0001:000e22ca       ??1MSectionSimple@@QAE@XZ  004e32ca f   common-kernel32:MSectionSimple.obj
 0001:000e22cf       ?Close@MSectionSimple@@QAEXXZ 004e32cf f   common-kernel32:MSectionSimple.obj
 0001:000e22e5       ?Enter@MSectionSimple@@QAEXXZ 004e32e5 f   common-kernel32:MSectionSimple.obj
 0001:000e22ed       ?Init@MSectionSimple@@QAEXXZ 004e32ed f   common-kernel32:MSectionSimple.obj
 0001:000e2303       ?Leave@MSectionSimple@@QAEXXZ 004e3303 f   common-kernel32:MSectionSimple.obj
 0001:000e230b       ?Lock@MSectionLockSimple@@QAEHPAUMSectionSimple@@K@Z 004e330b f   common-kernel32:MSectionSimple.obj
 0001:000e2373       ?RecreateAndLock@MSectionSimple@@QAE_NXZ 004e3373 f   common-kernel32:MSectionSimple.obj
 0001:000e23bc       ?TryEnter@MSectionSimple@@QAE_NXZ 004e33bc f   common-kernel32:MSectionSimple.obj
 0001:000e23db       ?Unlock@MSectionLockSimple@@QAEXXZ 004e33db f   common-kernel32:MSectionSimple.obj
 0001:000e23f7       ??0MFileLog@@QAE@PB_W0K@Z  004e33f7 f   common-kernel32:MFileLog.obj
 0001:000e2465       ??1MFileLog@@UAE@XZ        004e3465 f   common-kernel32:MFileLog.obj
 0001:000e24bc       ??_GMFileLog@@UAEPAXI@Z    004e34bc f i common-kernel32:MFileLog.obj
 0001:000e24bc       ??_EMFileLog@@UAEPAXI@Z    004e34bc f i common-kernel32:MFileLog.obj
 0001:000e24de       ?CloseLogFile@MFileLog@@QAEXXZ 004e34de f   common-kernel32:MFileLog.obj
 0001:000e254a       ?CreateLogFile@MFileLog@@QAEJPB_WKK@Z 004e354a f   common-kernel32:MFileLog.obj
 0001:000e2930       ?GetLogFileName@MFileLog@@QAEPB_WXZ 004e3930 f   common-kernel32:MFileLog.obj
 0001:000e2948       ?InitFileName@MFileLog@@IAEJPB_WK@Z 004e3948 f   common-kernel32:MFileLog.obj
 0001:000e29b5       ?IsLogOpened@MFileLog@@QAE_NXZ 004e39b5 f   common-kernel32:MFileLog.obj
 0001:000e29c7       ?LogString@MFileLog@@QAEXPBD_N01I@Z 004e39c7 f   common-kernel32:MFileLog.obj
 0001:000e2adc       ?LogString@MFileLog@@QAEXPB_W_N01@Z 004e3adc f   common-kernel32:MFileLog.obj
 0001:000e2d70       ??0?$MToolHelp@UtagPROCESSENTRY32W@@$1?Process32FirstW@@YGHPAXPAU1@@Z$1?Process32NextW@@YGH01@Z@@QAE@KK@Z 004e3d70 f i common-kernel32:MProcess.obj
 0001:000e2dd8       ??1?$MToolHelp@UtagPROCESSENTRY32W@@$1?Process32FirstW@@YGHPAXPAU1@@Z$1?Process32NextW@@YGH01@Z@@UAE@XZ 004e3dd8 f i common-kernel32:MProcess.obj
 0001:000e2df4       ??_GMToolHelpProcess@@UAEPAXI@Z 004e3df4 f i common-kernel32:MProcess.obj
 0001:000e2df4       ??_G?$MToolHelp@UtagPROCESSENTRY32W@@$1?Process32FirstW@@YGHPAXPAU1@@Z$1?Process32NextW@@YGH01@Z@@UAEPAXI@Z 004e3df4 f i common-kernel32:MProcess.obj
 0001:000e2df4       ??_EMToolHelpProcess@@UAEPAXI@Z 004e3df4 f i common-kernel32:MProcess.obj
 0001:000e2df4       ??_E?$MToolHelp@UtagPROCESSENTRY32W@@$1?Process32FirstW@@YGHPAXPAU1@@Z$1?Process32NextW@@YGH01@Z@@UAEPAXI@Z 004e3df4 f i common-kernel32:MProcess.obj
 0001:000e2e19       ?Close@?$MToolHelp@UtagPROCESSENTRY32W@@$1?Process32FirstW@@YGHPAXPAU1@@Z$1?Process32NextW@@YGH01@Z@@QAEX_N@Z 004e3e19 f i common-kernel32:MProcess.obj
 0001:000e2e67       ?Filter@?$MToolHelp@UtagPROCESSENTRY32W@@$1?Process32FirstW@@YGHPAXPAU1@@Z$1?Process32NextW@@YGH01@Z@@MAE_NPAUtagPROCESSENTRY32W@@@Z 004e3e67 f i common-kernel32:MProcess.obj
 0001:000e2e6c       ?Find@?$MToolHelp@UtagPROCESSENTRY32W@@$1?Process32FirstW@@YGHPAXPAU1@@Z$1?Process32NextW@@YGH01@Z@@QAE_NP6A_NPAUtagPROCESSENTRY32W@@J@ZJ0@Z 004e3e6c f i common-kernel32:MProcess.obj
 0001:000e2f03       ?Find@MToolHelpProcess@@QAE_NPB_WPAUtagPROCESSENTRY32W@@@Z 004e3f03 f i common-kernel32:MProcess.obj
 0001:000e2f35       ?GetProcessInfo@@YA_NKPAUtagPROCESSENTRY32W@@@Z 004e3f35 f   common-kernel32:MProcess.obj
 0001:000e2f99       ?GetProcessInfo@@YA_NPB_WPAUtagPROCESSENTRY32W@@@Z 004e3f99 f   common-kernel32:MProcess.obj
 0001:000e2ffb       ?Next@?$MToolHelp@UtagPROCESSENTRY32W@@$1?Process32FirstW@@YGHPAXPAU1@@Z$1?Process32NextW@@YGH01@Z@@QAE_NPAUtagPROCESSENTRY32W@@@Z 004e3ffb f i common-kernel32:MProcess.obj
 0001:000e3046       ?Open@?$MToolHelp@UtagPROCESSENTRY32W@@$1?Process32FirstW@@YGHPAXPAU1@@Z$1?Process32NextW@@YGH01@Z@@QAE_NXZ 004e4046 f i common-kernel32:MProcess.obj
 0001:000e30aa       ?getNext@?$MToolHelp@UtagPROCESSENTRY32W@@$1?Process32FirstW@@YGHPAXPAU1@@Z$1?Process32NextW@@YGH01@Z@@IAE_NXZ 004e40aa f i common-kernel32:MProcess.obj
 0001:000e312b       ?StripSourceRoot@@YAPB_WPB_W@Z 004e412b f   common-kernel32:MAssert.obj
 0001:000e317d       ??0RConStartArgs@@QAE@XZ   004e417d f   common-kernel32:RConStartArgs.obj
 0001:000e3231       ??1RConStartArgs@@UAE@XZ   004e4231 f   common-kernel32:RConStartArgs.obj
 0001:000e32fd       ??_GRConStartArgs@@UAEPAXI@Z 004e42fd f i common-kernel32:RConStartArgs.obj
 0001:000e32fd       ??_ERConStartArgs@@UAEPAXI@Z 004e42fd f i common-kernel32:RConStartArgs.obj
 0001:000e3322       ?AppendServerArgs@RConStartArgs@@QAEXPA_WH@Z 004e4322 f   common-kernel32:RConStartArgs.obj
 0001:000e3387       ?CleanSecure@RConStartArgs@@QAEXXZ 004e4387 f   common-kernel32:RConStartArgs.obj
 0001:000e33f0       ?ProcessNewConArg@RConStartArgs@@QAEH_N@Z 004e43f0 f   common-kernel32:RConStartArgs.obj
 0001:000e4191       ??0MModule@@QAE@PAUHINSTANCE__@@@Z 004e5191 f   common-kernel32:MModule.obj
 0001:000e41a3       ??0MModule@@QAE@PB_W@Z     004e51a3 f   common-kernel32:MModule.obj
 0001:000e41bf       ??0MModule@@QAE@XZ         004e51bf f   common-kernel32:MModule.obj
 0001:000e41bf       ??0MSectionLockSimple@@QAE@XZ 004e51bf f   common-kernel32:MSectionSimple.obj
 0001:000e41c9       ??1MModule@@QAE@XZ         004e51c9 f   common-kernel32:MModule.obj
 0001:000e41ce       ?Free@MModule@@QAEXXZ      004e51ce f   common-kernel32:MModule.obj
 0001:000e41f0       ?Load@MModule@@QAEPAUHINSTANCE__@@PB_W@Z 004e51f0 f   common-kernel32:MModule.obj
 0001:000e4213       ?GetRowIdFromAttrs@@YAGPBG@Z 004e5213 f   common-kernel32:ConsoleMixAttr.obj
 0001:000e4344       ?Init@HkFunc@@QAE_NPB_WPAUHINSTANCE__@@@Z 004e5344 f   common-kernel32:HkFunc.obj
 0001:000e43ad       ?isConEmuHk@HkFunc@@QAE_NXZ 004e53ad f   common-kernel32:HkFunc.obj
 0001:000e43b4       ??0MSetter@@QAE@PAJ@Z      004e53b4 f   common-user32:MSetter.obj
 0001:000e43d5       ??0MSetter@@QAE@PA_N@Z     004e53d5 f   common-user32:MSetter.obj
 0001:000e43f6       ??1MSetter@@QAE@XZ         004e53f6 f   common-user32:MSetter.obj
 0001:000e43fb       ?Unlock@MSetter@@QAEXXZ    004e53fb f   common-user32:MSetter.obj
 0001:000e443e       ?apiGetConsoleSessionID@@YAKXZ 004e543e f   common-user32:WSession.obj
 0001:000e4489       ?apiQuerySessionID@@YAHKAAK@Z 004e5489 f   common-user32:WSession.obj
 0001:000e44de       ?apiQuerySessionID@@YAPB_WXZ 004e54de f   common-user32:WSession.obj
 0001:000e4534       ?ucs32_from_wchar@@YAHPB_WAA_N@Z 004e5534 f   common-user32:wcchars.obj
 0001:000e4588       ?wchar_from_ucs32@@YAPB_WHAAY02_W@Z 004e5588 f   common-user32:wcchars.obj
 0001:000e45b7       ?FindComspec@@YAXPAUConEmuComspec@@_N@Z 004e55b7 f   common-user32:WUser.obj
 0001:000e4c0a       ?IsUserAdmin@@YA_NXZ       004e5c0a f   common-user32:WUser.obj
 0001:000e4cf1       ?SetEnvVarExpanded@@YAXPB_W0@Z 004e5cf1 f   common-user32:WUser.obj
 0001:000e4dcc       ?UpdateComspec@@YAXPAUConEmuComspec@@_N@Z 004e5dcc f   common-user32:WUser.obj
 0001:000e501c       ?apiSetForegroundWindow@@YA_NPAUHWND__@@@Z 004e601c f   common-user32:WUser.obj
 0001:000e502f       ?apiShowWindow@@YA_NPAUHWND__@@H@Z 004e602f f   common-user32:WUser.obj
 0001:000e5045       ?getWindowInfo@@YAXPAUHWND__@@AAY0EAA@_W_NPAK@Z 004e6045 f   common-user32:WUser.obj
 0001:000e51cb       ??0RConStartArgsEx@@QAE@XZ 004e61cb f   common-user32:RConStartArgsEx.obj
 0001:000e51fb       ??1RConStartArgsEx@@UAE@XZ 004e61fb f   common-user32:RConStartArgsEx.obj
 0001:000e5284       ??_GRConStartArgsEx@@UAEPAXI@Z 004e6284 f i common-user32:RConStartArgsEx.obj
 0001:000e5284       ??_ERConStartArgsEx@@UAEPAXI@Z 004e6284 f i common-user32:RConStartArgsEx.obj
 0001:000e52a9       ?AssignFrom@RConStartArgsEx@@QAE_NPBU1@_N@Z 004e62a9 f   common-user32:RConStartArgsEx.obj
 0001:000e55cf       ?AssignInheritedArgs@RConStartArgsEx@@QAE_NPBU1@_N@Z 004e65cf f   common-user32:RConStartArgsEx.obj
 0001:000e55e6       ?AssignUserArgs@RConStartArgsEx@@QAE_NPBU1@_N@Z 004e65e6 f   common-user32:RConStartArgsEx.obj
 0001:000e56b4       ?CheckUserToken@RConStartArgsEx@@QAEPAXXZ 004e66b4 f   common-user32:RConStartArgsEx.obj
 0001:000e56fd       ?CheckUserToken@RConStartArgsEx@@QAE_NPAUHWND__@@@Z 004e66fd f   common-user32:RConStartArgsEx.obj
 0001:000e57c0       ?CreateCommandLine@RConStartArgsEx@@QBEPA_W_N@Z 004e67c0 f   common-user32:RConStartArgsEx.obj
 0001:000e60dc       ?HasInheritedArgs@RConStartArgsEx@@QBE_NXZ 004e70dc f   common-user32:RConStartArgsEx.obj
 0001:000e60fd       ?MD5_Final@@YAXPAEPAUMD5_CTX@@@Z 004e70fd f   common-user32:md5.obj
 0001:000e6210       ?MD5_Init@@YAXPAUMD5_CTX@@@Z 004e7210 f   common-user32:md5.obj
 0001:000e623b       ?MD5_Update@@YAXPAUMD5_CTX@@PBXK@Z 004e723b f   common-user32:md5.obj
 0001:000e6c22       ??0MFileLogEx@@QAE@PB_W0K@Z 004e7c22 f   common-user32:MFileLogEx.obj
 0001:000e6c49       ??_GMFileLogEx@@UAEPAXI@Z  004e7c49 f i common-user32:MFileLogEx.obj
 0001:000e6c49       ??_EMFileLogEx@@UAEPAXI@Z  004e7c49 f i common-user32:MFileLogEx.obj
 0001:000e6c71       ?LogStartEnv@MFileLogEx@@QAEXPAUCEStartupEnv@@@Z 004e7c71 f   common-user32:MFileLogEx.obj
 0001:000e6c9f       ?LogStartEnvInt@MFileLogEx@@KAXPB_WJ_N1@Z 004e7c9f f   common-user32:MFileLogEx.obj
 0001:000e6cb7       ??1_FindAllMonitors@@QAE@XZ 004e7cb7 f i common-user32:Monitors.obj
 0001:000e6cf1       ?EnumAllMonitors@@YGHPAUHMONITOR__@@PAUHDC__@@PAUtagRECT@@J@Z 004e7cf1 f   common-user32:Monitors.obj
 0001:000e6dc5       ?FindPrimaryMonitor@@YGHPAUHMONITOR__@@PAUHDC__@@PAUtagRECT@@J@Z 004e7dc5 f   common-user32:Monitors.obj
 0001:000e6e2b       ?FindTaskbarWindow@@YAPAUHWND__@@PAUtagRECT@@@Z 004e7e2b f   common-user32:Monitors.obj
 0001:000e6e9a       ?GetMonitorInfoSafe@@YA_NPAUHMONITOR__@@AAUtagMONITORINFO@@@Z 004e7e9a f   common-user32:Monitors.obj
 0001:000e6ed2       ?GetNearestMonitorInfo@@YAPAUHMONITOR__@@PAUtagMONITORINFO@@PAU1@PBUtagRECT@@PAUHWND__@@@Z 004e7ed2 f   common-user32:Monitors.obj
 0001:000e6f9c       ?GetNextMonitorInfo@@YAPAUHMONITOR__@@PAUtagMONITORINFO@@PBUtagRECT@@_N@Z 004e7f9c f   common-user32:Monitors.obj
 0001:000e70ab       ?GetPrimaryMonitorInfo@@YAPAUHMONITOR__@@PAUtagMONITORINFO@@@Z 004e80ab f   common-user32:Monitors.obj
 0001:000e7138       ?GetStartupMonitor@@YAPAUHMONITOR__@@XZ 004e8138 f   common-user32:Monitors.obj
 0001:000e71e4       ?IsTaskbarAutoHidden@@YA_NPAUtagRECT@@PAI@Z 004e81e4 f   common-user32:Monitors.obj
 0001:000e727a       ?MonitorFromParam@@YAPAUHMONITOR__@@PB_W@Z 004e827a f   common-user32:Monitors.obj
 0001:000e736c       ?MonitorSortCallback@@YAHAAU_FindAllMonitorsItem@@0@Z 004e836c f   common-user32:Monitors.obj
 0001:000e739b       ?addsize@?$MArray@UtagPROCESSENTRY32W@@@@QAEXH@Z 004e839b f i RealConsole.obj
 0001:000e739b       ?addsize@?$MArray@U_FindAllMonitorsItem@@@@QAEXH@Z 004e839b f i common-user32:Monitors.obj
 0001:000e739b       ?addsize@?$MArray@PAUCommand@CProcessEnvCmd@@@@QAEXH@Z 004e839b f i common-user32:ProcessSetEnv.obj
 0001:000e739b       ?addsize@?$MArray@UMonitorInfoCache@CConEmuSize@@@@QAEXH@Z 004e839b f i ConEmuSize.obj
 0001:000e739b       ?addsize@?$MArray@UConProcess@@@@QAEXH@Z 004e839b f i RealConsole.obj
 0001:000e743c       ?clear@?$MArray@UProcessInfo@CDefTermBase@@@@QAEXXZ 004e843c f i DefaultTerm.obj
 0001:000e743c       ?clear@?$MArray@UtagPROCESSENTRY32W@@@@QAEXXZ 004e843c f i RealConsole.obj
 0001:000e743c       ?clear@?$MArray@UConProcess@@@@QAEXXZ 004e843c f i RealConsole.obj
 0001:000e743c       ?clear@?$MArray@UMonitorInfoCache@CConEmuSize@@@@QAEXXZ 004e843c f i ConEmuSize.obj
 0001:000e743c       ?clear@?$MArray@U_FindAllMonitorsItem@@@@QAEXXZ 004e843c f i common-user32:Monitors.obj
 0001:000e743c       ?clear@?$MArray@PAUCommand@CProcessEnvCmd@@@@QAEXXZ 004e843c f i common-user32:ProcessSetEnv.obj
 0001:000e743c       ?clear@?$MArray@UThreadHandle@CDefTermBase@@@@QAEXXZ 004e843c f i DefaultTerm.obj
 0001:000e7468       ?push_back@?$MArray@U_FindAllMonitorsItem@@@@QAEHABU_FindAllMonitorsItem@@@Z 004e8468 f i common-user32:Monitors.obj
 0001:000e74b8       ?sort@?$MArray@U_FindAllMonitorsItem@@@@QAEXP6AHAAU_FindAllMonitorsItem@@0@Z@Z 004e84b8 f i common-user32:Monitors.obj
 0001:000e75a5       ??0CToolTip@@QAE@XZ        004e85a5 f   common-user32:MToolTip.obj
 0001:000e75d3       ??1CToolTip@@UAE@XZ        004e85d3 f   common-user32:MToolTip.obj
 0001:000e766a       ??_ECToolTip@@UAEPAXI@Z    004e866a f i common-user32:MToolTip.obj
 0001:000e766a       ??_GCToolTip@@UAEPAXI@Z    004e866a f i common-user32:MToolTip.obj
 0001:000e768c       ?HideTip@CToolTip@@QAEXXZ  004e868c f   common-user32:MToolTip.obj
 0001:000e76bf       ?ShowTip@CToolTip@@QAEXPAUHWND__@@0PB_WHUtagPOINT@@PAUHINSTANCE__@@@Z 004e86bf f   common-user32:MToolTip.obj
 0001:000e78a5       ??0CProcessEnvCmd@@QAE@XZ  004e88a5 f   common-user32:ProcessSetEnv.obj
 0001:000e78d6       ??0CStartEnvTitle@@QAE@PAUCEStr@@@Z 004e88d6 f   common-user32:ProcessSetEnv.obj
 0001:000e78f5       ??1CProcessEnvCmd@@QAE@XZ  004e88f5 f   common-user32:ProcessSetEnv.obj
 0001:000e799f       ??_GCStartEnvTitle@@UAEPAXI@Z 004e899f f i common-user32:ProcessSetEnv.obj
 0001:000e799f       ??_ECStartEnvTitle@@UAEPAXI@Z 004e899f f i common-user32:ProcessSetEnv.obj
 0001:000e79c2       ?Add@CProcessEnvCmd@@IAEPAUCommand@1@PB_W00H@Z 004e89c2 f   common-user32:ProcessSetEnv.obj
 0001:000e7b35       ?AddCommands@CProcessEnvCmd@@QAE_NPB_WPAPB_W_NH@Z 004e8b35 f   common-user32:ProcessSetEnv.obj
 0001:000e825d       ?AddLines@CProcessEnvCmd@@QAEXPB_W_N@Z 004e925d f   common-user32:ProcessSetEnv.obj
 0001:000e8313       ?AddZeroedPairs@CProcessEnvCmd@@QAEXPB_W@Z 004e9313 f   common-user32:ProcessSetEnv.obj
 0001:000e8371       ?Allocate@CProcessEnvCmd@@QAEPA_WPAI@Z 004e9371 f   common-user32:ProcessSetEnv.obj
 0001:000e8583       ?Apply@CProcessEnvCmd@@QAE_NPAVCStartEnvBase@@@Z 004e9583 f   common-user32:ProcessSetEnv.obj
 0001:000e8688       ?ProcessSetEnvCmd@@YA_NAAPB_WPAVCProcessEnvCmd@@PAVCStartEnvBase@@@Z 004e9688 f   common-user32:ProcessSetEnv.obj
 0001:000e86ff       ?Title@CStartEnvTitle@@UAEXPB_W@Z 004e96ff f   common-user32:ProcessSetEnv.obj
 0001:000e875c       ?Type@CStartEnvTitle@@UAEXPB_W0@Z 004e975c f i common-user32:ProcessSetEnv.obj
 0001:000e875c       ?Alias@CStartEnvTitle@@UAEXPB_W0@Z 004e975c f i common-user32:ProcessSetEnv.obj
 0001:000e875c       ?Echo@CStartEnvTitle@@UAEXPB_W0@Z 004e975c f i common-user32:ProcessSetEnv.obj
 0001:000e875c       ?ConhostLocker@CDefTermBase@@MAEX_NAA_N@Z 004e975c f i DefaultTerm.obj
 0001:000e875c       ?Set@CStartEnvTitle@@UAEXPB_W0@Z 004e975c f i common-user32:ProcessSetEnv.obj
 0001:000e875c       ?LogHookingStatus@CDefTermBase@@UAEXKPB_W@Z 004e975c f i DefaultTerm.obj
 0001:000e875f       ?cpyadv@CProcessEnvCmd@@IAEXAAPA_WPB_W@Z 004e975f f   common-user32:ProcessSetEnv.obj
 0001:000e87a2       ?insert@?$MArray@PAUCommand@CProcessEnvCmd@@@@QAEXHABQAUCommand@CProcessEnvCmd@@@Z 004e97a2 f i common-user32:ProcessSetEnv.obj
 0001:000e8819       ?push_back@?$MArray@PAUCommand@CProcessEnvCmd@@@@QAEHABQAUCommand@CProcessEnvCmd@@@Z 004e9819 f i common-user32:ProcessSetEnv.obj
 0001:000e8869       ?DirectoryExists@@YA_NPB_W@Z 004e9869 f   common-user32:WFiles.obj
 0001:000e8964       ?DropZoneIdentifier@@YA_NPB_WAAK@Z 004e9964 f   common-user32:WFiles.obj
 0001:000e89e5       ?FileExistSubDir@@YA_NPB_W0HAAUCEStr@@@Z 004e99e5 f   common-user32:WFiles.obj
 0001:000e8b7e       ?FilesExists@@YA_NPB_W0_NH@Z 004e9b7e f   common-user32:WFiles.obj
 0001:000e8c7e       ?FindFileName@@YA_NPB_WAAUCEStr@@@Z 004e9c7e f   common-user32:WFiles.obj
 0001:000e8da0       ?GetFullPathNameEx@@YAPA_WPB_W@Z 004e9da0 f   common-user32:WFiles.obj
 0001:000e8e2a       ?HasZoneIdentifier@@YA_NPB_WAAH@Z 004e9e2a f   common-user32:WFiles.obj
 0001:000e8ebd       ?IsDotsName@@YA_NPB_W@Z    004e9ebd f   common-user32:WFiles.obj
 0001:000e8eee       ?MakePathProperCase@@YA_NAAUCEStr@@@Z 004e9eee f   common-user32:WFiles.obj
 0001:000e905d       ?MyCreateDirectory@@YA_NPA_W@Z 004ea05d f   common-user32:WFiles.obj
 0001:000e9126       ?ReadTextFile@@YAHPB_WKAAPA_WAAK2K@Z 004ea126 f   common-user32:WFiles.obj
 0001:000e9408       ?SearchAppPaths@@YA_NPB_WAAUCEStr@@_NPAU1@@Z 004ea408 f   common-user32:WFiles.obj
 0001:000e979a       ?WriteTextFile@@YAHPB_W0HK_NPAK@Z 004ea79a f   common-user32:WFiles.obj
 0001:000e993e       ?CheckStrForSpecials@@YA_NPB_WPA_N1@Z 004ea93e f   common-user32:MStrEsc.obj
 0001:000e99d3       ?EscapeChar@@YAXAAPB_WAAPA_W@Z 004ea9d3 f   common-user32:MStrEsc.obj
 0001:000e9b18       ?UnescapeChar@@YAXAAPB_WAAPA_W@Z 004eab18 f   common-user32:MStrEsc.obj
 0001:000e9c79       ?RegDeleteKeyRecursive@@YA_NPAUHKEY__@@PB_W1@Z 004eac79 f   common-user32:WRegistry.obj
 0001:000e9dad       ?RegEnumKeys@@YAHPAUHKEY__@@PB_WP6G_N01J@ZJ@Z 004eadad f   common-user32:WRegistry.obj
 0001:000e9f67       ?RegEnumValues@@YAHPAUHKEY__@@PB_WP6G_N01KJ@ZJ@Z 004eaf67 f   common-user32:WRegistry.obj
 0001:000ea0bf       ?RegGetStringValue@@YAHPAUHKEY__@@PB_W1AAUCEStr@@K@Z 004eb0bf f   common-user32:WRegistry.obj
 0001:000ea20e       ?RegSetStringValue@@YAJPAUHKEY__@@PB_W11K@Z 004eb20e f   common-user32:WRegistry.obj
 0001:000ea2a5       ??0MJsonValue@@QAE@XZ      004eb2a5 f   common-user32:MJsonReader.obj
 0001:000ea2b2       ??1MJsonValue@@QAE@XZ      004eb2b2 f   common-user32:MJsonReader.obj
 0001:000ea2e8       ?FreeData@MJsonValue@@AAEXXZ 004eb2e8 f   common-user32:MJsonReader.obj
 0001:000ea328       ?GetParseError@MJsonValue@@QAEPB_WXZ 004eb328 f   common-user32:MJsonReader.obj
 0001:000ea328       ?GetHWND@CFindPanel@@QAEPAUHWND__@@XZ 004eb328 f   FindPanel.obj
 0001:000ea32c       ?ParseJson@MJsonValue@@QAE_NPB_W@Z 004eb32c f   common-user32:MJsonReader.obj
 0001:000ea478       ?getInt@MJsonValue@@QAE_JXZ 004eb478 f   common-user32:MJsonReader.obj
 0001:000ea481       ?getItem@MJsonValue@@QAE_NIAAV1@@Z 004eb481 f   common-user32:MJsonReader.obj
 0001:000ea4d5       ?getItem@MJsonValue@@QAE_NPB_WAAV1@@Z 004eb4d5 f   common-user32:MJsonReader.obj
 0001:000ea578       ?getLength@MJsonValue@@QAEIXZ 004eb578 f   common-user32:MJsonReader.obj
 0001:000ea593       ?getObjectName@MJsonValue@@QAEPB_WI@Z 004eb593 f   common-user32:MJsonReader.obj
 0001:000ea5a6       ?getString@MJsonValue@@QAEPB_WXZ 004eb5a6 f   common-user32:MJsonReader.obj
 0001:000ea5ac       ?getType@MJsonValue@@QAE?AW4JSON_TYPE@1@XZ 004eb5ac f   common-user32:MJsonReader.obj
 0001:000ea770       __vsnprintf_l              004eb770 f i common-user32:MJsonReader.obj
 0001:000ea7a2       _json_parse_ex             004eb7a2 f   common-user32:MJsonReader.obj
 0001:000ebb73       _json_value_free           004ecb73 f   common-user32:MJsonReader.obj
 0001:000ebb9e       _json_value_free_ex        004ecb9e f   common-user32:MJsonReader.obj
 0001:000ebc0e       _sprintf                   004ecc0e f i common-user32:MJsonReader.obj
 0001:000ebc29       ?CreateRootInfoXml@@YAPB_WPB_WPAUCESERVER_ROOT_INFO@@AAUCEStr@@@Z 004ecc29 f   common-user32:MGuiMacro.obj
 0001:000ebe21       ?bisearch@@YA_NHPBUinterval@@H@Z 004ece21 f   common-user32:wcwidth.obj
 0001:000ebe6d       ?get_wcwidth@@YAHH@Z       004ece6d f   common-user32:wcwidth.obj
 0001:000ebebe       ?is_char_cjk@@YA_NH@Z      004ecebe f   common-user32:wcwidth.obj
 0001:000ebfa2       ??0MGlobal@@QAE@II@Z       004ecfa2 f   common-user32:MGlobal.obj
 0001:000ebfc1       ??0MGlobal@@QAE@XZ         004ecfc1 f   common-user32:MGlobal.obj
 0001:000ebfcb       ??1MGlobal@@QAE@XZ         004ecfcb f   common-user32:MGlobal.obj
 0001:000ebfd0       ??BMGlobal@@QAEPAXXZ       004ecfd0 f   common-user32:MGlobal.obj
 0001:000ebfdc       ?Alloc@MGlobal@@QAEPAXII@Z 004ecfdc f   common-user32:MGlobal.obj
 0001:000ec002       ?Detach@MGlobal@@QAEPAXXZ  004ed002 f   common-user32:MGlobal.obj
 0001:000ec015       ?Free@MGlobal@@QAEXXZ      004ed015 f   common-user32:MGlobal.obj
 0001:000ec038       ?Lock@MGlobal@@QAEPAXXZ    004ed038 f   common-user32:MGlobal.obj
 0001:000ec05e       ?Unlock@MGlobal@@QAEXXZ    004ed05e f   common-user32:MGlobal.obj
 0001:000ec07b       ??0CRgnDetect@@QAE@XZ      004ed07b f   common-user32:RgnDetect.obj
 0001:000ec13c       ??0CRgnRects@@QAE@XZ       004ed13c f   common-user32:RgnDetect.obj
 0001:000ec17b       ??1CRgnDetect@@QAE@XZ      004ed17b f   common-user32:RgnDetect.obj
 0001:000ec20e       ??1CRgnRects@@QAE@XZ       004ed20e f   common-user32:RgnDetect.obj
 0001:000ec25c       ?DetectDialog@CRgnDetect@@IAE_NPA_WPAUtag_CharAttr@@HHHHPAH2@Z 004ed25c f   common-user32:RgnDetect.obj
 0001:000ec4c1       ?Diff@CRgnRects@@QAEHPAUtagRECT@@@Z 004ed4c1 f   common-user32:RgnDetect.obj
 0001:000ec5ff       ?DiffSmall@CRgnRects@@QAEHPAU_SMALL_RECT@@@Z 004ed5ff f   common-user32:RgnDetect.obj
 0001:000ec639       ?ExpandDialogFrame@CRgnDetect@@IAE_NPA_WPAUtag_CharAttr@@HHAAH2HH22@Z 004ed639 f   common-user32:RgnDetect.obj
 0001:000ec8dc       ?FindByBackground@CRgnDetect@@IAE_NPA_WPAUtag_CharAttr@@HHAAH222AA_N@Z 004ed8dc f   common-user32:RgnDetect.obj
 0001:000ec9c4       ?FindDialog_Any@CRgnDetect@@IAE_NPA_WPAUtag_CharAttr@@HHAAH222AA_N@Z 004ed9c4 f   common-user32:RgnDetect.obj
 0001:000ecbdd       ?FindDialog_Inner@CRgnDetect@@IAE_NPA_WPAUtag_CharAttr@@HHAAH2@Z 004edbdd f   common-user32:RgnDetect.obj
 0001:000eccef       ?FindDialog_Left@CRgnDetect@@IAE_NPA_WPAUtag_CharAttr@@HHAAH222AA_N@Z 004edcef f   common-user32:RgnDetect.obj
 0001:000ece3a       ?FindDialog_Right@CRgnDetect@@IAE_NPA_WPAUtag_CharAttr@@HHAAH222AA_N@Z 004ede3a f   common-user32:RgnDetect.obj
 0001:000ecefe       ?FindDialog_TopLeft@CRgnDetect@@IAE_NPA_WPAUtag_CharAttr@@HHAAH222AA_N@Z 004edefe f   common-user32:RgnDetect.obj
 0001:000ecf87       ?FindDialog_TopRight@CRgnDetect@@IAE_NPA_WPAUtag_CharAttr@@HHAAH222AA_N@Z 004edf87 f   common-user32:RgnDetect.obj
 0001:000ed01c       ?FindFrameBottom_ByLeft@CRgnDetect@@IAE_NPA_WPAUtag_CharAttr@@HHAAH22@Z 004ee01c f   common-user32:RgnDetect.obj
 0001:000ed0bc       ?FindFrameBottom_ByRight@CRgnDetect@@IAE_NPA_WPAUtag_CharAttr@@HHAAH22@Z 004ee0bc f   common-user32:RgnDetect.obj
 0001:000ed19c       ?FindFrameLeft_ByBottom@CRgnDetect@@IAE_NPA_WPAUtag_CharAttr@@HHAAH22@Z 004ee19c f   common-user32:RgnDetect.obj
 0001:000ed24a       ?FindFrameLeft_ByTop@CRgnDetect@@IAE_NPA_WPAUtag_CharAttr@@HHAAH22@Z 004ee24a f   common-user32:RgnDetect.obj
 0001:000ed38d       ?FindFrameRight_ByBottom@CRgnDetect@@IAE_NPA_WPAUtag_CharAttr@@HHAAH22@Z 004ee38d f   common-user32:RgnDetect.obj
 0001:000ed43c       ?FindFrameRight_ByTop@CRgnDetect@@IAE_NPA_WPAUtag_CharAttr@@HHAAH22@Z 004ee43c f   common-user32:RgnDetect.obj
 0001:000ed53e       ?FindFrameTop_ByLeft@CRgnDetect@@IAE_NPA_WPAUtag_CharAttr@@HHAAH22@Z 004ee53e f   common-user32:RgnDetect.obj
 0001:000ed5bf       ?FindFrameTop_ByRight@CRgnDetect@@IAE_NPA_WPAUtag_CharAttr@@HHAAH22@Z 004ee5bf f   common-user32:RgnDetect.obj
 0001:000ed66d       ?FindFrame_TopLeft@CRgnDetect@@IAE_NPA_WPAUtag_CharAttr@@HHAAH222@Z 004ee66d f   common-user32:RgnDetect.obj
 0001:000ed730       ?GetDetectedDialogs@CRgnDetect@@QBEHHPAU_SMALL_RECT@@PAKKK@Z 004ee730 f   common-user32:RgnDetect.obj
 0001:000ed82e       ?GetDetectedDialogsPtr@CRgnDetect@@QBEPBUtag_DetectedDialog@@XZ 004ee82e f   common-user32:RgnDetect.obj
 0001:000ed832       ?GetDialog@CRgnDetect@@QBEKKPAU_SMALL_RECT@@@Z 004ee832 f   common-user32:RgnDetect.obj
 0001:000ed880       ?GetFlags@CRgnDetect@@QBEKXZ 004ee880 f   common-user32:RgnDetect.obj
 0001:000ed887       ?Init@CRgnRects@@QAEXPAUtagRECT@@@Z 004ee887 f   common-user32:RgnDetect.obj
 0001:000ed959       ?LoadFrom@CRgnRects@@QAE_NPAV1@@Z 004ee959 f   common-user32:RgnDetect.obj
 0001:000eda0d       ?MarkDialog@CRgnDetect@@IAEHPA_WPAUtag_CharAttr@@HHHHHHI_NK@Z 004eea0d f   common-user32:RgnDetect.obj
 0001:000ee171       ?PrepareTransparent@CRgnDetect@@QAEXPBUCEFAR_INFO_MAPPING@@PBKPBU_CONSOLE_SCREEN_BUFFER_INFO@@PA_WPAUtag_CharAttr@@HH@Z 004ef171 f   common-user32:RgnDetect.obj
 0001:000ee86d       ?Reset@CRgnRects@@QAEXXZ   004ef86d f   common-user32:RgnDetect.obj
 0001:000ee87b       ?SetFarRect@CRgnDetect@@QAEXPAU_SMALL_RECT@@@Z 004ef87b f   common-user32:RgnDetect.obj
 0001:000ee911       ?SetNeedTransparency@CRgnDetect@@QAEX_N@Z 004ef911 f   common-user32:RgnDetect.obj
 0001:000ee91e       ?ChangeScreenBufferSize@@YAXAAU_CONSOLE_SCREEN_BUFFER_INFO@@FFFF@Z 004ef91e f   common-user32:WConsoleInfo.obj
 0001:000ee9a8       ??0MEvent@@QAE@XZ          004ef9a8 f   common-user32:MEvent.obj
 0001:000ee9c2       ??1MEvent@@QAE@XZ          004ef9c2 f   common-user32:MEvent.obj
 0001:000ee9d0       ?Close@MEvent@@QAEXXZ      004ef9d0 f   common-user32:MEvent.obj
 0001:000ee9ff       ?Create@MEvent@@QAEPAXPAU_SECURITY_ATTRIBUTES@@_N1PB_W@Z 004ef9ff f   common-user32:MEvent.obj
 0001:000eea4e       ?InitName@MEvent@@QAEXPB_WK@Z 004efa4e f   common-user32:MEvent.obj
 0001:000eea90       ?Open@MEvent@@QAEPAX_NPAU_SECURITY_ATTRIBUTES@@00@Z 004efa90 f   common-user32:MEvent.obj
 0001:000eeb37       ?Reset@MEvent@@QAE_NXZ     004efb37 f   common-user32:MEvent.obj
 0001:000eeb5b       ?Set@MEvent@@QAE_NXZ       004efb5b f   common-user32:MEvent.obj
 0001:000eeb7f       ?Wait@MEvent@@QAEKKH@Z     004efb7f f   common-user32:MEvent.obj
 0001:000eebbd       ?SetConEmuEnvHWND@@YAXPB_WPAUHWND__@@@Z 004efbbd f   common-user32:SetEnvVar.obj
 0001:000eec0a       ?SetConEmuEnvVar@@YAXPAUHWND__@@@Z 004efc0a f   common-user32:SetEnvVar.obj
 0001:000eec76       ?SetConEmuEnvVarChild@@YAXPAUHWND__@@0@Z 004efc76 f   common-user32:SetEnvVar.obj
 0001:000eec98       ??0MBSTR@@QAE@PB_W@Z       004efc98 f   common-user32:MBSTR.obj
 0001:000eecba       ??1MBSTR@@QAE@XZ           004efcba f   common-user32:MBSTR.obj
 0001:000eecbf       ??4MBSTR@@QAEAAV0@PB_W@Z   004efcbf f   common-user32:MBSTR.obj
 0001:000eeceb       ?Free@MBSTR@@QAEXXZ        004efceb f   common-user32:MBSTR.obj
 0001:000eed00       ??0CTimer@@QAE@XZ          004efd00 f   common-user32:MTimer.obj
 0001:000eed10       ??1CTimer@@QAE@XZ          004efd10 f   common-user32:MTimer.obj
 0001:000eed15       ?Init@CTimer@@QAEXPAUHWND__@@II@Z 004efd15 f   common-user32:MTimer.obj
 0001:000eed36       ?IsStarted@CTimer@@QAE_NXZ 004efd36 f   common-user32:MTimer.obj
 0001:000eed3a       ?Start@CTimer@@QAEXI@Z     004efd3a f   common-user32:MTimer.obj
 0001:000eed68       ?Stop@CTimer@@QAEXXZ       004efd68 f   common-user32:MTimer.obj
 0001:000eed7e       ??0bad_alloc@std@@QAE@ABV01@@Z 004efd7e f i libcpmt:xthrow.obj
 0001:000eed99       ??0bad_alloc@std@@QAE@XZ   004efd99 f i libcpmt:xthrow.obj
 0001:000eedb1       ??0exception@std@@QAE@ABV01@@Z 004efdb1 f i libcpmt:xthrow.obj
 0001:000eeddd       ??0exception@std@@QAE@QBD@Z 004efddd f i libcpmt:xthrow.obj
 0001:000eee14       ??0length_error@std@@QAE@ABV01@@Z 004efe14 f i libcpmt:xthrow.obj
 0001:000eee2f       ??0length_error@std@@QAE@PBD@Z 004efe2f f i libcpmt:xthrow.obj
 0001:000eee50       ??0logic_error@std@@QAE@ABV01@@Z 004efe50 f i libcpmt:xthrow.obj
 0001:000eee6b       ??_Ebad_cast@std@@UAEPAXI@Z 004efe6b f i libvcruntime:rtti.obj
 0001:000eee6b       ??_Elength_error@std@@UAEPAXI@Z 004efe6b f i libcpmt:xthrow.obj
 0001:000eee6b       ??_Gexception@std@@UAEPAXI@Z 004efe6b f i libcpmt:xthrow.obj
 0001:000eee6b       ??_Gbad_alloc@std@@UAEPAXI@Z 004efe6b f i libcpmt:xthrow.obj
 0001:000eee6b       ??_Gbad_typeid@std@@UAEPAXI@Z 004efe6b f i libvcruntime:rtti.obj
 0001:000eee6b       ??_Glogic_error@std@@UAEPAXI@Z 004efe6b f i libcpmt:xthrow.obj
 0001:000eee6b       ??_Ebad_exception@std@@UAEPAXI@Z 004efe6b f i libvcruntime:frame.obj
 0001:000eee6b       ??_Ebad_typeid@std@@UAEPAXI@Z 004efe6b f i libvcruntime:rtti.obj
 0001:000eee6b       ??_Ebad_alloc@std@@UAEPAXI@Z 004efe6b f i libcpmt:xthrow.obj
 0001:000eee6b       ??_Eexception@std@@UAEPAXI@Z 004efe6b f i libcpmt:xthrow.obj
 0001:000eee6b       ??_Gbad_cast@std@@UAEPAXI@Z 004efe6b f i libvcruntime:rtti.obj
 0001:000eee6b       ??_E__non_rtti_object@std@@UAEPAXI@Z 004efe6b f i libvcruntime:rtti.obj
 0001:000eee6b       ??_Elogic_error@std@@UAEPAXI@Z 004efe6b f i libcpmt:xthrow.obj
 0001:000eee6b       ??_Gbad_exception@std@@UAEPAXI@Z 004efe6b f i libvcruntime:frame.obj
 0001:000eee6b       ??_Glength_error@std@@UAEPAXI@Z 004efe6b f i libcpmt:xthrow.obj
 0001:000eee6b       ??_G__non_rtti_object@std@@UAEPAXI@Z 004efe6b f i libvcruntime:rtti.obj
 0001:000eee98       ?_Xbad_alloc@std@@YAXXZ    004efe98 f   libcpmt:xthrow.obj
 0001:000eeeb5       ?_Xlength_error@std@@YAXPBD@Z 004efeb5 f   libcpmt:xthrow.obj
 0001:000eeed5       ?what@exception@std@@UBEPBDXZ 004efed5 f i libcpmt:xthrow.obj
 0001:000ef108       _WinMainCRTStartup         004f0108 f   LIBCMT:exe_winmain.obj
 0001:000ef112       ??3@YAXPAXI@Z              004f0112 f   LIBCMT:delete_scalar_size.obj
 0001:000ef120       @__security_check_cookie@4 004f0120 f   LIBCMT:_secchk_.obj
 0001:000ef131       __EH_epilog3               004f0131 f   LIBCMT:ehprolg3.obj
 0001:000ef146       __EH_epilog3_GS            004f0146 f   LIBCMT:ehprolg3.obj
 0001:000ef157       __EH_prolog3               004f0157 f   LIBCMT:ehprolg3.obj
 0001:000ef18b       __EH_prolog3_GS            004f018b f   LIBCMT:ehprolg3.obj
 0001:000ef1c2       __EH_prolog3_catch         004f01c2 f   LIBCMT:ehprolg3.obj
 0001:000ef200       __chkstk                   004f0200 f   LIBCMT:chkstk.obj
 0001:000ef200       __alloca_probe             004f0200 f   LIBCMT:chkstk.obj
 0001:000ef230       __allmul                   004f0230 f   LIBCMT:llmul.obj
 0001:000ef28b       ??$__crt_fast_encode_pointer@PAX@@YAPAXQAX@Z 004f028b f i libvcruntime:winapi_downlevel.obj
 0001:000ef28b       ??$__crt_fast_encode_pointer@PAP6AXXZ@@YAPAP6AXXZQAP6AXXZ@Z 004f028b f i LIBCMT:utility.obj
 0001:000ef28b       ??$__crt_fast_encode_pointer@P6GHPAU_RTL_CONDITION_VARIABLE@@PAU_RTL_CRITICAL_SECTION@@K@Z@@YAP6GHPAU_RTL_CONDITION_VARIABLE@@PAU_RTL_CRITICAL_SECTION@@K@ZQ6GH01K@Z@Z 004f028b f i LIBCMT:thread_safe_statics.obj
 0001:000ef28b       ??$__crt_fast_encode_pointer@P6GXPAU_RTL_CONDITION_VARIABLE@@@Z@@YAP6GXPAU_RTL_CONDITION_VARIABLE@@@ZQ6GX0@Z@Z 004f028b f i LIBCMT:thread_safe_statics.obj
 0001:000ef384       __Init_thread_abort        004f0384 f   LIBCMT:thread_safe_statics.obj
 0001:000ef39d       __Init_thread_footer       004f039d f   LIBCMT:thread_safe_statics.obj
 0001:000ef3dc       __Init_thread_header       004f03dc f   LIBCMT:thread_safe_statics.obj
 0001:000ef422       __Init_thread_lock         004f0422 f   LIBCMT:thread_safe_statics.obj
 0001:000ef42e       __Init_thread_notify       004f042e f   LIBCMT:thread_safe_statics.obj
 0001:000ef46f       __Init_thread_unlock       004f046f f   LIBCMT:thread_safe_statics.obj
 0001:000ef47b       __Init_thread_wait         004f047b f   LIBCMT:thread_safe_statics.obj
 0001:000ef521       ___scrt_acquire_startup_lock 004f0521 f   LIBCMT:utility.obj
 0001:000ef556       ___scrt_initialize_crt     004f0556 f   LIBCMT:utility.obj
 0001:000ef58f       ___scrt_initialize_onexit_tables 004f058f f   LIBCMT:utility.obj
 0001:000ef639       ___scrt_is_nonwritable_in_current_image 004f0639 f   LIBCMT:utility.obj
 0001:000ef6c3       ___scrt_release_startup_lock 004f06c3 f   LIBCMT:utility.obj
 0001:000ef6e0       ___scrt_uninitialize_crt   004f06e0 f   LIBCMT:utility.obj
 0001:000ef708       __onexit                   004f0708 f   LIBCMT:utility.obj
 0001:000ef743       _atexit                    004f0743 f   LIBCMT:utility.obj
 0001:000ef758       ??_Gtype_info@@UAEPAXI@Z   004f0758 f i LIBCMT:std_type_info_static.obj
 0001:000ef758       ??_Etype_info@@UAEPAXI@Z   004f0758 f i LIBCMT:std_type_info_static.obj
 0001:000ef77b       ___raise_securityfailure   004f077b f   LIBCMT:gs_report.obj
 0001:000ef7a3       ___report_gsfailure        004f07a3 f   LIBCMT:gs_report.obj
 0001:000ef89e       ___report_rangecheckfailure 004f089e f   LIBCMT:gs_report.obj
 0001:000ef8aa       ___report_securityfailure  004f08aa f   LIBCMT:gs_report.obj
 0001:000ef980       __alldiv                   004f0980 f   LIBCMT:lldiv.obj
 0001:000efa2a       ??_L@YGXPAXIIP6EX0@Z1@Z    004f0a2a f   LIBCMT:ehvecctr.obj
 0001:000efa93       ??_M@YGXPAXIIP6EX0@Z@Z     004f0a93 f   LIBCMT:ehvecdtr.obj
 0001:000efb0d       ?__ArrayUnwind@@YGXPAXIIP6EX0@Z@Z 004f0b0d f   LIBCMT:ehvecdtr.obj
 0001:000efb80       __aullshr                  004f0b80 f   LIBCMT:ullshr.obj
 0001:000efba0       __alldvrm                  004f0ba0 f   LIBCMT:lldvrm.obj
 0001:000efc80       __ftoui3                   004f0c80 f   LIBCMT:_ftol3_.obj
 0001:000efc8f       __ftoul3                   004f0c8f f   LIBCMT:_ftol3_.obj
 0001:000efc9e       __ftol3                    004f0c9e f   LIBCMT:_ftol3_.obj
 0001:000efcab       __ftol3_NaN                004f0cab f   LIBCMT:_ftol3_.obj
 0001:000efcc3       __ftol3_work               004f0cc3 f   LIBCMT:_ftol3_.obj
 0001:000efd49       __ftol3_common             004f0d49 f   LIBCMT:_ftol3_.obj
 0001:000efe0b       __ftol3_arg_error          004f0e0b f   LIBCMT:_ftol3_.obj
 0001:000efe1d       __ftol3_except             004f0e1d f   LIBCMT:_ftol3_.obj
 0001:000efe61       __dtoui3                   004f0e61 f   LIBCMT:_ftol3_.obj
 0001:000efe70       __dtoul3                   004f0e70 f   LIBCMT:_ftol3_.obj
 0001:000efe7f       __dtol3                    004f0e7f f   LIBCMT:_ftol3_.obj
 0001:000efe8c       __dtol3_NaN                004f0e8c f   LIBCMT:_ftol3_.obj
 0001:000efea9       __dtol3_work               004f0ea9 f   LIBCMT:_ftol3_.obj
 0001:000eff90       __ultod3                   004f0f90 f   LIBCMT:_ftol3_.obj
 0001:000effd0       __ltod3                    004f0fd0 f   LIBCMT:_ftol3_.obj
 0001:000f0000       __SEH_prolog4              004f1000 f   LIBCMT:_sehprolg4_.obj
 0001:000f0046       __SEH_epilog4              004f1046 f   LIBCMT:_sehprolg4_.obj
 0001:000f00aa       ___security_init_cookie    004f10aa f   LIBCMT:gs_support.obj
 0001:000f00fd       ?IsMonospace@BDFFont@@UAEHXZ 004f10fd f   CustomFonts.obj
 0001:000f00fd       ?GetPageType@CSetPgSizePos@@UAE?AW4TabHwndIndex@@XZ 004f10fd f   SetPgSizePos.obj
 0001:000f00fd       __get_startup_argv_mode    004f10fd f   LIBCMT:argv_mode.obj
 0001:000f0101       __get_startup_file_mode    004f1101 f   LIBCMT:file_mode.obj
 0001:000f0107       ?__scrt_initialize_type_info@@YAXXZ 004f1107 f   LIBCMT:tncleanup.obj
 0001:000f0113       __initialize_default_precision 004f1113 f   LIBCMT:default_precision.obj
 0001:000f0134       ___local_stdio_scanf_options 004f1134 f i LIBCMT:default_local_stdio_options.obj
 0001:000f013a       ___scrt_initialize_default_local_stdio_options 004f113a f   LIBCMT:default_local_stdio_options.obj
 0001:000f0157       ___scrt_is_user_matherr_present 004f1157 f   LIBCMT:matherr_detection.obj
 0001:000f0163       ___scrt_get_dyn_tls_init_callback 004f1163 f   LIBCMT:dyn_tls_init.obj
 0001:000f0169       ___scrt_get_dyn_tls_dtor_callback 004f1169 f   LIBCMT:dyn_tls_dtor.obj
 0001:000f016f       ___scrt_fastfail           004f116f f   LIBCMT:utility_desktop.obj
 0001:000f028b       ___scrt_get_show_window_mode 004f128b f   LIBCMT:utility_desktop.obj
 0001:000f02be       ___scrt_set_unhandled_exception_filter 004f12be f   LIBCMT:utility_desktop.obj
 0001:000f02ca       ___scrt_unhandled_exception_filter@4 004f12ca f   LIBCMT:utility_desktop.obj
 0001:000f030b       __crt_debugger_hook        004f130b f   LIBCMT:utility_desktop.obj
 0001:000f0313       __RTC_Initialize           004f1313 f   LIBCMT:_initsect_.obj
 0001:000f033e       __RTC_Terminate            004f133e f   LIBCMT:_initsect_.obj
 0001:000f0369       @_guard_check_icall@4      004f1369 f i LIBCMT:checkcfg.obj
 0001:000f036f       ___isa_available_init      004f136f f   LIBCMT:_cpu_disp_.obj
 0001:000f050e       ___scrt_is_ucrt_dll_in_use 004f150e f   LIBCMT:ucrt_detection.obj
 0001:000f051a       _wcschr                    004f151a f   libvcruntime:wcschr.obj
 0001:000f05c8       ?_CallCatchBlock2@@YAPAXPAUEHRegistrationNode@@PBU_s_FuncInfo@@PAXHK@Z 004f15c8 f   libvcruntime:trnsctrl.obj
 0001:000f0628       ?_CallSETranslator@@YAHPAUEHExceptionRecord@@PAUEHRegistrationNode@@PAX2PBU_s_FuncInfo@@H1@Z 004f1628 f   libvcruntime:trnsctrl.obj
 0001:000f0705       ?_GetRangeOfTrysToCheck@@YAPBU_s_TryBlockMapEntry@@PBU_s_FuncInfo@@HHPAI1@Z 004f1705 f   libvcruntime:trnsctrl.obj
 0001:000f077d       ?_JumpToContinuation@@YGXPAXPAUEHRegistrationNode@@@Z 004f177d f   libvcruntime:trnsctrl.obj
 0001:000f07af       ?_UnwindNestedFrames@@YGXPAUEHRegistrationNode@@PAUEHExceptionRecord@@@Z 004f17af f   libvcruntime:trnsctrl.obj
 0001:000f0804       __CatchGuardHandler        004f1804 f   libvcruntime:trnsctrl.obj
 0001:000f0835       __CreateFrameInfo          004f1835 f   libvcruntime:trnsctrl.obj
 0001:000f0859       __FindAndUnlinkFrame       004f1859 f   libvcruntime:trnsctrl.obj
 0001:000f08a3       __TranslatorGuardHandler   004f18a3 f   libvcruntime:trnsctrl.obj
 0001:000f0942       ___CxxFrameHandler3        004f1942 f   libvcruntime:trnsctrl.obj
 0001:000f0980       _memset                    004f1980 f   libvcruntime:memset.obj
 0001:000f0ada       ___DestructExceptionObject 004f1ada f   libvcruntime:ehhelpers.obj
 0001:000f0b6e       ?_CallMemberFunction0@@YGXQAX0@Z 004f1b6e f i libvcruntime:ehhelpers.obj
 0001:000f0b7b       __IsExceptionObjectToBeDestroyed 004f1b7b f   libvcruntime:ehhelpers.obj
 0001:000f0ba1       ___AdjustPointer           004f1ba1 f   libvcruntime:ehhelpers.obj
 0001:000f0bc6       ___FrameUnwindFilter       004f1bc6 f   libvcruntime:ehhelpers.obj
 0001:000f0c0b       ___std_terminate           004f1c0b f   libvcruntime:ehhelpers.obj
 0001:000f0c10       _memmove                   004f1c10 f   libvcruntime:memmove.obj
 0001:000f1184       __get_purecall_handler     004f2184 f   libvcruntime:purevirt.obj
 0001:000f1199       __purecall                 004f2199 f   libvcruntime:purevirt.obj
 0001:000f11c0       _memcpy                    004f21c0 f   libvcruntime:memcpy.obj
 0001:000f1734       _wcsrchr                   004f2734 f   libvcruntime:wcsrchr.obj
 0001:000f17d5       _wcsstr                    004f27d5 f   libvcruntime:wcsstr.obj
 0001:000f1a58       ??0__non_rtti_object@std@@QAE@ABV01@@Z 004f2a58 f i libvcruntime:rtti.obj
 0001:000f1a73       ??0bad_cast@std@@QAE@ABV01@@Z 004f2a73 f i libvcruntime:rtti.obj
 0001:000f1a8e       ??0bad_typeid@std@@QAE@ABV01@@Z 004f2a8e f i libvcruntime:rtti.obj
 0001:000f1aa9       ??1bad_cast@std@@UAE@XZ    004f2aa9 f i libvcruntime:rtti.obj
 0001:000f1aa9       ??1bad_alloc@std@@UAE@XZ   004f2aa9 f i libcpmt:xthrow.obj
 0001:000f1aa9       ??1__non_rtti_object@std@@UAE@XZ 004f2aa9 f i libvcruntime:rtti.obj
 0001:000f1aa9       ??1bad_exception@std@@UAE@XZ 004f2aa9 f i libvcruntime:frame.obj
 0001:000f1aa9       ??1length_error@std@@UAE@XZ 004f2aa9 f i libcpmt:xthrow.obj
 0001:000f1ec2       ?__construct_from_string_literal@__non_rtti_object@std@@SA?AV12@QBD@Z 004f2ec2 f i libvcruntime:rtti.obj
 0001:000f1ede       ?__construct_from_string_literal@bad_cast@std@@SA?AV12@QBD@Z 004f2ede f i libvcruntime:rtti.obj
 0001:000f1efa       ___RTDynamicCast           004f2efa f   libvcruntime:rtti.obj
 0001:000f1fdc       _memcmp                    004f2fdc f   libvcruntime:_memcmp_.obj
 0001:000f3560       _strchr                    004f4560 f   libvcruntime:strchr.obj
 0001:000f35ce       ___from_strstr_to_strchr   004f45ce     libvcruntime:strchr.obj
 0001:000f368b       __CxxThrowException@8      004f468b f   libvcruntime:throw.obj
 0001:000f3700       _strrchr                   004f4700 f   libvcruntime:strrchr.obj
 0001:000f3880       __except_handler4          004f4880 f   libvcruntime:_chandler4_.obj
 0001:000f39f0       _memchr                    004f49f0 f   libvcruntime:memchr.obj
 0001:000f3a9d       ___std_exception_copy      004f4a9d f   libvcruntime:std_exception.obj
 0001:000f3b00       ___std_exception_destroy   004f4b00 f   libvcruntime:std_exception.obj
 0001:000f3c65       ___vcrt_FlsAlloc           004f4c65 f   libvcruntime:winapi_downlevel.obj
 0001:000f3c9f       ___vcrt_FlsFree            004f4c9f f   libvcruntime:winapi_downlevel.obj
 0001:000f3cd9       ___vcrt_FlsGetValue        004f4cd9 f   libvcruntime:winapi_downlevel.obj
 0001:000f3d13       ___vcrt_FlsSetValue        004f4d13 f   libvcruntime:winapi_downlevel.obj
 0001:000f3d50       ___vcrt_InitializeCriticalSectionEx 004f4d50 f   libvcruntime:winapi_downlevel.obj
 0001:000f3d96       ___vcrt_initialize_winapi_thunks 004f4d96 f   libvcruntime:winapi_downlevel.obj
 0001:000f3dd0       ___vcrt_uninitialize_winapi_thunks 004f4dd0 f   libvcruntime:winapi_downlevel.obj
 0001:000f3e02       ___vcrt_initialize         004f4e02 f   libvcruntime:initialization.obj
 0001:000f3e2b       ___vcrt_uninitialize       004f4e2b f   libvcruntime:initialization.obj
 0001:000f3e4a       ___std_type_info_compare   004f4e4a f   libvcruntime:std_type_info.obj
 0001:000f3e86       ___vcrt_freefls@4          004f4e86 f   libvcruntime:per_thread_data.obj
 0001:000f3ea2       ___vcrt_getptd             004f4ea2 f   libvcruntime:per_thread_data.obj
 0001:000f3eb0       ___vcrt_getptd_noexit      004f4eb0 f   libvcruntime:per_thread_data.obj
 0001:000f3f42       ___vcrt_initialize_ptd     004f4f42 f   libvcruntime:per_thread_data.obj
 0001:000f3f75       ___vcrt_uninitialize_ptd   004f4f75 f   libvcruntime:per_thread_data.obj
 0001:000f3f90       __CallSettingFrame@12      004f4f90 f   libvcruntime:lowhelpr.obj
 0001:000f3fb7       __NLG_Return               004f4fb7     libvcruntime:lowhelpr.obj
 0001:000f3fdc       ??0bad_exception@std@@QAE@ABV01@@Z 004f4fdc f i libvcruntime:frame.obj
 0001:000f3ff7       ??0bad_exception@std@@QAE@XZ 004f4ff7 f i libvcruntime:frame.obj
 0001:000f400f       ??8type_info@@QBE_NABV0@@Z 004f500f f i libvcruntime:frame.obj
 0001:000f4826       ?_CallMemberFunction1@@YGXQAX00@Z 004f5826 f i libvcruntime:frame.obj
 0001:000f4836       ?_CallMemberFunction2@@YGXQAX00H@Z 004f5836 f i libvcruntime:frame.obj
 0001:000f4849       ___BuildCatchObject        004f5849 f   libvcruntime:frame.obj
 0001:000f48d8       ___BuildCatchObjectHelper  004f58d8 f   libvcruntime:frame.obj
 0001:000f4a06       ___FrameUnwindToState      004f5a06 f   libvcruntime:frame.obj
 0001:000f4ace       ___InternalCxxFrameHandler 004f5ace f   libvcruntime:frame.obj
 0001:000f4bca       ___TypeMatch               004f5bca f   libvcruntime:frame.obj
 0001:000f4c58       ___except_validate_context_record 004f5c58 f   libvcruntime:jbcxrval.obj
 0001:000f4c88       ___except_validate_jump_buffer 004f5c88 f   libvcruntime:jbcxrval.obj
 0001:000f4cb5       ___vcrt_initialize_pure_virtual_call_handler 004f5cb5 f   libvcruntime:purevirt_data.obj
 0001:000f4ce0       __local_unwind4            004f5ce0 f   libvcruntime:_exsup4_.obj
 0001:000f4db8       __seh_longjmp_unwind4@4    004f5db8 f   libvcruntime:_exsup4_.obj
 0001:000f4de0       @_EH4_CallFilterFunc@8     004f5de0 f   libvcruntime:_exsup4_.obj
 0001:000f4df8       @_EH4_TransferToHandler@8  004f5df8 f   libvcruntime:_exsup4_.obj
 0001:000f4e14       @_EH4_GlobalUnwind2@8      004f5e14 f   libvcruntime:_exsup4_.obj
 0001:000f4e30       @_EH4_LocalUnwind@16       004f5e30 f   libvcruntime:_exsup4_.obj
 0001:000f4e47       ___vcrt_initialize_locks   004f5e47 f   libvcruntime:locks.obj
 0001:000f4e83       ___vcrt_uninitialize_locks 004f5e83 f   libvcruntime:locks.obj
 0001:000f4ec0       __global_unwind2           004f5ec0 f   libvcruntime:_exsup_.obj
 0001:000f4f26       __local_unwind2            004f5f26 f   libvcruntime:_exsup_.obj
 0001:000f4faa       __abnormal_termination     004f5faa f   libvcruntime:_exsup_.obj
 0001:000f4fd0       __NLG_Notify1              004f5fd0 f   libvcruntime:_exsup_.obj
 0001:000f4fdc       __NLG_Notify               004f5fdc f   libvcruntime:_exsup_.obj
 0001:000f4ff3       __NLG_Dispatch2            004f5ff3     libvcruntime:_exsup_.obj
 0001:000f4ff3       __NLG_Dispatch             004f5ff3     libvcruntime:_exsup_.obj
 0001:000f4ffb       __NLG_Call                 004f5ffb f   libvcruntime:_exsup_.obj
 0001:000f4ffd       __NLG_Return2              004f5ffd     libvcruntime:_exsup_.obj
 0001:000f4ffe       _unexpected                004f5ffe f   libvcruntime:unexpected.obj
 0001:000f501a       _wcspbrk                   004f601a f   libucrt:wcspbrk.obj
 0001:000f505f       ??$is_overflow_condition@K@__crt_strtox@@YA_NIK@Z 004f605f f i libucrt:strtox.obj
 0001:000f5092       ??$is_overflow_condition@_K@__crt_strtox@@YA_NI_K@Z 004f6092 f i libucrt:strtox.obj
 0001:000f50d5       ??$make_c_string_character_source@DPAPAD@__crt_strtox@@YA?AV?$c_string_character_source@D@0@QBDQAPAD@Z 004f60d5 f i libucrt:strtox.obj
 0001:000f50d5       ??$make_c_string_character_source@_WPAPA_W@__crt_strtox@@YA?AV?$c_string_character_source@_W@0@QB_WQAPA_W@Z 004f60d5 f i libucrt:strtox.obj
 0001:000f50d5       ??$make_c_string_character_source@_W$$T@__crt_strtox@@YA?AV?$c_string_character_source@_W@0@QB_W$$T@Z 004f60d5 f i libucrt:atox.obj
 0001:000f50f0       ??$parse_integer@KV?$c_string_character_source@D@__crt_strtox@@@__crt_strtox@@YAKQAU__crt_locale_pointers@@V?$c_string_character_source@D@0@H_N@Z 004f60f0 f i libucrt:strtox.obj
 0001:000f5318       ??$parse_integer@KV?$c_string_character_source@_W@__crt_strtox@@@__crt_strtox@@YAKQAU__crt_locale_pointers@@V?$c_string_character_source@_W@0@H_N@Z 004f6318 f i libucrt:strtox.obj
 0001:000f59fd       ??$parse_integer@_KV?$c_string_character_source@_W@__crt_strtox@@@__crt_strtox@@YA_KQAU__crt_locale_pointers@@V?$c_string_character_source@_W@0@H_N@Z 004f69fd f i libucrt:strtox.obj
 0001:000f5ff2       ??0_LocaleUpdate@@QAE@QAU__crt_locale_pointers@@@Z 004f6ff2 f i libucrt:strtox.obj
 0001:000f6075       ?unget@?$c_string_character_source@D@__crt_strtox@@QAEXD@Z 004f7075 f i libucrt:strtox.obj
 0001:000f609d       ?unget@?$c_string_character_source@_W@__crt_strtox@@QAEX_W@Z 004f709d f i libucrt:strtox.obj
 0001:000f60c9       __chvalidchk_l             004f70c9 f i libucrt:strtox.obj
 0001:000f60f3       __ischartype_l             004f70f3 f i libucrt:strtox.obj
 0001:000f6126       __wcstoui64                004f7126 f   libucrt:strtox.obj
 0001:000f6152       _strtol                    004f7152 f   libucrt:strtox.obj
 0001:000f617e       _strtoul                   004f717e f   libucrt:strtox.obj
 0001:000f61aa       _wcstol                    004f71aa f   libucrt:strtox.obj
 0001:000f61d6       _wcstoul                   004f71d6 f   libucrt:strtox.obj
 0001:000f6210       _atan2                     004f7210 f   libucrt:87ctriga.obj
 0001:000f621a       __CIatan2                  004f721a f   libucrt:87ctriga.obj
 0001:000f6230       __libm_sse2_cos_precise    004f7230 f   libucrt:cos_sse2_precise.obj
 0001:000f63f0       __libm_sse2_exp_precise    004f73f0 f   libucrt:exp_sse2_precise.obj
 0001:000f66d0       __libm_sse2_pow_precise    004f76d0 f   libucrt:pow_sse2_precise.obj
 0001:000f7220       __libm_sse2_sin_precise    004f8220 f   libucrt:sin_sse2_precise.obj
 0001:000f73f0       __libm_sse2_sqrt_precise   004f83f0 f   libucrt:sqrt_sse2_precise.obj
 0001:000f74f0       _wcsncmp                   004f84f0 f   libucrt:wcsncmp.obj
 0001:000f75b8       __itow                     004f85b8 f   libucrt:xtoa.obj
 0001:000f75b8       __ltow                     004f85b8 f   libucrt:xtoa.obj
 0001:000f75ef       __ultow                    004f85ef f   libucrt:xtoa.obj
 0001:000f7775       __tolower_l                004f8775 f   libucrt:tolower_toupper.obj
 0001:000f778f       _tolower                   004f878f f   libucrt:tolower_toupper.obj
 0001:000f77bf       __wtoi                     004f87bf f   libucrt:atox.obj
 0001:000f77bf       __wtol                     004f87bf f   libucrt:atox.obj
 0001:000f77e9       _wmemmove_s                004f87e9 f   libucrt:wmemmove_s.obj
 0001:000f7839       ___acrt_call_reportfault   004f8839 f   libucrt:invalid_parameter.obj
 0001:000f7974       ___acrt_initialize_invalid_parameter_handler 004f8974 f   libucrt:invalid_parameter.obj
 0001:000f7988       __invalid_parameter        004f8988 f   libucrt:invalid_parameter.obj
 0001:000f7a03       __invalid_parameter_noinfo 004f8a03 f   libucrt:invalid_parameter.obj
 0001:000f7a13       __invalid_parameter_noinfo_noreturn 004f8a13 f   libucrt:invalid_parameter.obj
 0001:000f7a30       __invoke_watson            004f8a30 f   libucrt:invalid_parameter.obj
 0001:000f7a63       _bsearch                   004f8a63 f   libucrt:bsearch.obj
 0001:000f7c20       _qsort                     004f8c20 f   libucrt:qsort.obj
 0001:000f8335       ??$count@D@formatting_buffer@__crt_stdio_output@@QBEIXZ 004f9335 f i libucrt:output.obj
 0001:000f834d       ??$ensure_buffer_is_big_enough@D@formatting_buffer@__crt_stdio_output@@QAE_NI@Z 004f934d f i libucrt:output.obj
 0001:000f83d3       ??$is_wide_character_specifier@D@__crt_stdio_output@@YA_N_KDW4length_modifier@0@@Z 004f93d3 f i libucrt:output.obj
 0001:000f8413       ??$is_wide_character_specifier@_W@__crt_stdio_output@@YA_N_K_WW4length_modifier@0@@Z 004f9413 f i libucrt:output.obj
 0001:000f8462       ??$scratch_data@D@formatting_buffer@__crt_stdio_output@@QAEPADXZ 004f9462 f i libucrt:output.obj
 0001:000f8480       ??$type_case_integer_parse_into_buffer@I@?$output_processor@_WV?$string_output_adapter@_W@__crt_stdio_output@@V?$format_validation_base@_WV?$string_output_adapter@_W@__crt_stdio_output@@@2@@__crt_stdio_output@@AAEXII_N@Z 004f9480 f i libucrt:output.obj
 0001:000f8480       ??$type_case_integer_parse_into_buffer@I@?$output_processor@DV?$string_output_adapter@D@__crt_stdio_output@@V?$standard_base@DV?$string_output_adapter@D@__crt_stdio_output@@@2@@__crt_stdio_output@@AAEXII_N@Z 004f9480 f i libucrt:output.obj
 0001:000f84f5       ??$type_case_integer_parse_into_buffer@_K@?$output_processor@DV?$string_output_adapter@D@__crt_stdio_output@@V?$standard_base@DV?$string_output_adapter@D@__crt_stdio_output@@@2@@__crt_stdio_output@@AAEX_KI_N@Z 004f94f5 f i libucrt:output.obj
 0001:000f84f5       ??$type_case_integer_parse_into_buffer@_K@?$output_processor@_WV?$string_output_adapter@_W@__crt_stdio_output@@V?$format_validation_base@_WV?$string_output_adapter@_W@__crt_stdio_output@@@2@@__crt_stdio_output@@AAEX_KI_N@Z 004f94f5 f i libucrt:output.obj
 0001:000f857d       ??$write_multiple_characters@V?$string_output_adapter@D@__crt_stdio_output@@D@__crt_stdio_output@@YAXABV?$string_output_adapter@D@0@DHQAH@Z 004f957d f i libucrt:output.obj
 0001:000f85a9       ??$write_multiple_characters@V?$string_output_adapter@_W@__crt_stdio_output@@D@__crt_stdio_output@@YAXABV?$string_output_adapter@_W@0@DHQAH@Z 004f95a9 f i libucrt:output.obj
 0001:000f85da       ??0?$common_data@D@__crt_stdio_output@@IAE@XZ 004f95da f i libucrt:output.obj
 0001:000f8621       ??0?$common_data@_W@__crt_stdio_output@@IAE@XZ 004f9621 f i libucrt:output.obj
 0001:000f866d       ??0?$output_adapter_data@DV?$string_output_adapter@D@__crt_stdio_output@@@__crt_stdio_output@@IAE@ABV?$string_output_adapter@D@1@_KQBDQAU__crt_locale_pointers@@QAD@Z 004f966d f i libucrt:output.obj
 0001:000f86a9       ??0?$output_adapter_data@_WV?$string_output_adapter@_W@__crt_stdio_output@@@__crt_stdio_output@@IAE@ABV?$string_output_adapter@_W@1@_KQB_WQAU__crt_locale_pointers@@QAD@Z 004f96a9 f i libucrt:output.obj
 0001:000f86e5       ??0?$output_processor@DV?$string_output_adapter@D@__crt_stdio_output@@V?$standard_base@DV?$string_output_adapter@D@__crt_stdio_output@@@2@@__crt_stdio_output@@QAE@ABV?$string_output_adapter@D@1@_KQBDQAU__crt_locale_pointers@@QAD@Z 004f96e5 f i libucrt:output.obj
 0001:000f871a       ??0?$output_processor@_WV?$string_output_adapter@_W@__crt_stdio_output@@V?$format_validation_base@_WV?$string_output_adapter@_W@__crt_stdio_output@@@2@@__crt_stdio_output@@QAE@ABV?$string_output_adapter@_W@1@_KQB_WQAU__crt_locale_pointers@@QAD@Z 004f971a f i libucrt:output.obj
 0001:000f874f       ??1formatting_buffer@__crt_stdio_output@@QAE@XZ 004f974f f i libucrt:output.obj
 0001:000f8769       ??4?$__crt_unique_heap_ptr@DU__crt_internal_free_policy@@@@QAEAAV0@$$QAV0@@Z 004f9769 f i libucrt:output.obj
 0001:000f878d       ?crop_zeroes@__crt_stdio_output@@YAXPADQAU__crt_locale_pointers@@@Z 004f978d f i libucrt:output.obj
 0001:000f87e4       ?find_next_state@?$output_processor@DV?$string_output_adapter@D@__crt_stdio_output@@V?$standard_base@DV?$string_output_adapter@D@__crt_stdio_output@@@2@@__crt_stdio_output@@ABE?AW4state@2@DW432@@Z 004f97e4 f i libucrt:output.obj
 0001:000f8816       ?find_next_state@?$output_processor@_WV?$string_output_adapter@_W@__crt_stdio_output@@V?$format_validation_base@_WV?$string_output_adapter@_W@__crt_stdio_output@@@2@@__crt_stdio_output@@ABE?AW4state@2@_WW432@@Z 004f9816 f i libucrt:output.obj
 0001:000f884d       ?force_decimal_point@__crt_stdio_output@@YAXPADQAU__crt_locale_pointers@@@Z 004f984d f i libucrt:output.obj
 0001:000f88a9       ?parse_int_from_format_string@?$output_processor@DV?$string_output_adapter@D@__crt_stdio_output@@V?$standard_base@DV?$string_output_adapter@D@__crt_stdio_output@@@2@@__crt_stdio_output@@AAE_NQAH@Z 004f98a9 f i libucrt:output.obj
 0001:000f8905       ?parse_int_from_format_string@?$output_processor@_WV?$string_output_adapter@_W@__crt_stdio_output@@V?$format_validation_base@_WV?$string_output_adapter@_W@__crt_stdio_output@@@2@@__crt_stdio_output@@AAE_NQAH@Z 004f9905 f i libucrt:output.obj
 0001:000f8963       ?process@?$output_processor@DV?$string_output_adapter@D@__crt_stdio_output@@V?$standard_base@DV?$string_output_adapter@D@__crt_stdio_output@@@2@@__crt_stdio_output@@QAEHXZ 004f9963 f i libucrt:output.obj
 0001:000f8a7f       ?process@?$output_processor@_WV?$string_output_adapter@_W@__crt_stdio_output@@V?$format_validation_base@_WV?$string_output_adapter@_W@__crt_stdio_output@@@2@@__crt_stdio_output@@QAEHXZ 004f9a7f f i libucrt:output.obj
 0001:000f8baf       ?state_case_flag@?$output_processor@DV?$string_output_adapter@D@__crt_stdio_output@@V?$standard_base@DV?$string_output_adapter@D@__crt_stdio_output@@@2@@__crt_stdio_output@@AAE_NXZ 004f9baf f i libucrt:output.obj
 0001:000f8bec       ?state_case_flag@?$output_processor@_WV?$string_output_adapter@_W@__crt_stdio_output@@V?$format_validation_base@_WV?$string_output_adapter@_W@__crt_stdio_output@@@2@@__crt_stdio_output@@AAE_NXZ 004f9bec f i libucrt:output.obj
 0001:000f8c29       ?state_case_normal@?$output_processor@DV?$string_output_adapter@D@__crt_stdio_output@@V?$standard_base@DV?$string_output_adapter@D@__crt_stdio_output@@@2@@__crt_stdio_output@@AAE_NXZ 004f9c29 f i libucrt:output.obj
 0001:000f8c48       ?state_case_normal@?$output_processor@_WV?$string_output_adapter@_W@__crt_stdio_output@@V?$format_validation_base@_WV?$string_output_adapter@_W@__crt_stdio_output@@@2@@__crt_stdio_output@@AAE_NXZ 004f9c48 f i libucrt:output.obj
 0001:000f8c67       ?state_case_normal_common@?$output_processor@DV?$string_output_adapter@D@__crt_stdio_output@@V?$standard_base@DV?$string_output_adapter@D@__crt_stdio_output@@@2@@__crt_stdio_output@@AAE_NXZ 004f9c67 f i libucrt:output.obj
 0001:000f8c91       ?state_case_normal_common@?$output_processor@_WV?$string_output_adapter@_W@__crt_stdio_output@@V?$format_validation_base@_WV?$string_output_adapter@_W@__crt_stdio_output@@@2@@__crt_stdio_output@@AAE_NXZ 004f9c91 f i libucrt:output.obj
 0001:000f8cac       ?state_case_normal_tchar@?$output_processor@DV?$string_output_adapter@D@__crt_stdio_output@@V?$standard_base@DV?$string_output_adapter@D@__crt_stdio_output@@@2@@__crt_stdio_output@@AAE_ND@Z 004f9cac f i libucrt:output.obj
 0001:000f8d0d       ?state_case_precision@?$output_processor@DV?$string_output_adapter@D@__crt_stdio_output@@V?$standard_base@DV?$string_output_adapter@D@__crt_stdio_output@@@2@@__crt_stdio_output@@AAE_NXZ 004f9d0d f i libucrt:output.obj
 0001:000f8d35       ?state_case_precision@?$output_processor@_WV?$string_output_adapter@_W@__crt_stdio_output@@V?$format_validation_base@_WV?$string_output_adapter@_W@__crt_stdio_output@@@2@@__crt_stdio_output@@AAE_NXZ 004f9d35 f i libucrt:output.obj
 0001:000f8d5e       ?state_case_size@?$output_processor@DV?$string_output_adapter@D@__crt_stdio_output@@V?$standard_base@DV?$string_output_adapter@D@__crt_stdio_output@@@2@@__crt_stdio_output@@AAE_NXZ 004f9d5e f i libucrt:output.obj
 0001:000f8ec7       ?state_case_size@?$output_processor@_WV?$string_output_adapter@_W@__crt_stdio_output@@V?$format_validation_base@_WV?$string_output_adapter@_W@__crt_stdio_output@@@2@@__crt_stdio_output@@AAE_NXZ 004f9ec7 f i libucrt:output.obj
 0001:000f9043       ?state_case_type@?$output_processor@DV?$string_output_adapter@D@__crt_stdio_output@@V?$standard_base@DV?$string_output_adapter@D@__crt_stdio_output@@@2@@__crt_stdio_output@@AAE_NXZ 004fa043 f i libucrt:output.obj
 0001:000f9272       ?state_case_type@?$output_processor@_WV?$string_output_adapter@_W@__crt_stdio_output@@V?$format_validation_base@_WV?$string_output_adapter@_W@__crt_stdio_output@@@2@@__crt_stdio_output@@AAE_NXZ 004fa272 f i libucrt:output.obj
 0001:000f94cf       ?state_case_width@?$output_processor@DV?$string_output_adapter@D@__crt_stdio_output@@V?$standard_base@DV?$string_output_adapter@D@__crt_stdio_output@@@2@@__crt_stdio_output@@AAE_NXZ 004fa4cf f i libucrt:output.obj
 0001:000f94fa       ?state_case_width@?$output_processor@_WV?$string_output_adapter@_W@__crt_stdio_output@@V?$format_validation_base@_WV?$string_output_adapter@_W@__crt_stdio_output@@@2@@__crt_stdio_output@@AAE_NXZ 004fa4fa f i libucrt:output.obj
 0001:000f9526       ?to_integer_size@__crt_stdio_output@@YAIW4length_modifier@1@@Z 004fa526 f i libucrt:output.obj
 0001:000f9582       ?type_case_Z@?$output_processor@DV?$string_output_adapter@D@__crt_stdio_output@@V?$standard_base@DV?$string_output_adapter@D@__crt_stdio_output@@@2@@__crt_stdio_output@@AAE_NXZ 004fa582 f i libucrt:output.obj
 0001:000f95e5       ?type_case_Z@?$output_processor@_WV?$string_output_adapter@_W@__crt_stdio_output@@V?$format_validation_base@_WV?$string_output_adapter@_W@__crt_stdio_output@@@2@@__crt_stdio_output@@AAE_NXZ 004fa5e5 f i libucrt:output.obj
 0001:000f9648       ?type_case_a@?$output_processor@DV?$string_output_adapter@D@__crt_stdio_output@@V?$standard_base@DV?$string_output_adapter@D@__crt_stdio_output@@@2@@__crt_stdio_output@@AAE_NXZ 004fa648 f i libucrt:output.obj
 0001:000f97a2       ?type_case_a@?$output_processor@_WV?$string_output_adapter@_W@__crt_stdio_output@@V?$format_validation_base@_WV?$string_output_adapter@_W@__crt_stdio_output@@@2@@__crt_stdio_output@@AAE_NXZ 004fa7a2 f i libucrt:output.obj
 0001:000f9914       ?type_case_c_tchar@?$output_processor@DV?$string_output_adapter@D@__crt_stdio_output@@V?$standard_base@DV?$string_output_adapter@D@__crt_stdio_output@@@2@@__crt_stdio_output@@AAE_ND@Z 004fa914 f i libucrt:output.obj
 0001:000f99a4       ?type_case_c_tchar@?$output_processor@_WV?$string_output_adapter@_W@__crt_stdio_output@@V?$format_validation_base@_WV?$string_output_adapter@_W@__crt_stdio_output@@@2@@__crt_stdio_output@@AAE_N_W@Z 004fa9a4 f i libucrt:output.obj
 0001:000f9a3c       ?type_case_integer@?$output_processor@_WV?$string_output_adapter@_W@__crt_stdio_output@@V?$format_validation_base@_WV?$string_output_adapter@_W@__crt_stdio_output@@@2@@__crt_stdio_output@@AAE_NI_N@Z 004faa3c f i libucrt:output.obj
 0001:000f9a3c       ?type_case_integer@?$output_processor@DV?$string_output_adapter@D@__crt_stdio_output@@V?$standard_base@DV?$string_output_adapter@D@__crt_stdio_output@@@2@@__crt_stdio_output@@AAE_NI_N@Z 004faa3c f i libucrt:output.obj
 0001:000f9b86       ?type_case_n@?$output_processor@DV?$string_output_adapter@D@__crt_stdio_output@@V?$standard_base@DV?$string_output_adapter@D@__crt_stdio_output@@@2@@__crt_stdio_output@@AAE_NXZ 004fab86 f i libucrt:output.obj
 0001:000f9b86       ?type_case_n@?$output_processor@_WV?$string_output_adapter@_W@__crt_stdio_output@@V?$format_validation_base@_WV?$string_output_adapter@_W@__crt_stdio_output@@@2@@__crt_stdio_output@@AAE_NXZ 004fab86 f i libucrt:output.obj
 0001:000f9bfa       ?type_case_o@?$output_processor@_WV?$string_output_adapter@_W@__crt_stdio_output@@V?$format_validation_base@_WV?$string_output_adapter@_W@__crt_stdio_output@@@2@@__crt_stdio_output@@AAE_NXZ 004fabfa f i libucrt:output.obj
 0001:000f9bfa       ?type_case_o@?$output_processor@DV?$string_output_adapter@D@__crt_stdio_output@@V?$standard_base@DV?$string_output_adapter@D@__crt_stdio_output@@@2@@__crt_stdio_output@@AAE_NXZ 004fabfa f i libucrt:output.obj
 0001:000f9c19       ?type_case_p@?$output_processor@DV?$string_output_adapter@D@__crt_stdio_output@@V?$standard_base@DV?$string_output_adapter@D@__crt_stdio_output@@@2@@__crt_stdio_output@@AAE_NXZ 004fac19 f i libucrt:output.obj
 0001:000f9c19       ?type_case_p@?$output_processor@_WV?$string_output_adapter@_W@__crt_stdio_output@@V?$format_validation_base@_WV?$string_output_adapter@_W@__crt_stdio_output@@@2@@__crt_stdio_output@@AAE_NXZ 004fac19 f i libucrt:output.obj
 0001:000f9c31       ?type_case_s@?$output_processor@DV?$string_output_adapter@D@__crt_stdio_output@@V?$standard_base@DV?$string_output_adapter@D@__crt_stdio_output@@@2@@__crt_stdio_output@@AAE_NXZ 004fac31 f i libucrt:output.obj
 0001:000f9ca4       ?type_case_s@?$output_processor@_WV?$string_output_adapter@_W@__crt_stdio_output@@V?$format_validation_base@_WV?$string_output_adapter@_W@__crt_stdio_output@@@2@@__crt_stdio_output@@AAE_NXZ 004faca4 f i libucrt:output.obj
 0001:000f9d18       ?type_case_s_compute_narrow_string_length@?$output_processor@_WV?$string_output_adapter@_W@__crt_stdio_output@@V?$format_validation_base@_WV?$string_output_adapter@_W@__crt_stdio_output@@@2@@__crt_stdio_output@@ABEHH_W@Z 004fad18 f i libucrt:output.obj
 0001:000f9d58       ?validate@?$string_output_adapter@D@__crt_stdio_output@@QBE_NXZ 004fad58 f i libucrt:output.obj
 0001:000f9d58       ?validate@?$c_string_character_source@_W@__crt_strtox@@QBE_NXZ 004fad58 f i libucrt:strtox.obj
 0001:000f9d58       ?validate@?$c_string_character_source@D@__crt_strtox@@QBE_NXZ 004fad58 f i libucrt:strtox.obj
 0001:000f9d58       ?validate@?$string_output_adapter@_W@__crt_stdio_output@@QBE_NXZ 004fad58 f i libucrt:output.obj
 0001:000f9d73       ?validate_and_update_state_at_end_of_format_string@?$format_validation_base@_WV?$string_output_adapter@_W@__crt_stdio_output@@@__crt_stdio_output@@IBE_NXZ 004fad73 f i libucrt:output.obj
 0001:000f9d95       ?write_character@?$string_output_adapter@D@__crt_stdio_output@@QBE_NDQAH@Z 004fad95 f i libucrt:output.obj
 0001:000f9dd7       ?write_character@?$string_output_adapter@_W@__crt_stdio_output@@QBE_N_WQAH@Z 004fadd7 f i libucrt:output.obj
 0001:000f9e1c       ?write_stored_string_tchar@?$output_processor@DV?$string_output_adapter@D@__crt_stdio_output@@V?$standard_base@DV?$string_output_adapter@D@__crt_stdio_output@@@2@@__crt_stdio_output@@AAE_ND@Z 004fae1c f i libucrt:output.obj
 0001:000f9ec3       ?write_stored_string_tchar@?$output_processor@_WV?$string_output_adapter@_W@__crt_stdio_output@@V?$format_validation_base@_WV?$string_output_adapter@_W@__crt_stdio_output@@@2@@__crt_stdio_output@@AAE_N_W@Z 004faec3 f i libucrt:output.obj
 0001:000f9f4e       ?write_string@?$string_output_adapter@D@__crt_stdio_output@@QBEXQBDHQAH1@Z 004faf4e f i libucrt:output.obj
 0001:000f9fe1       ?write_string@?$string_output_adapter@_W@__crt_stdio_output@@QBEXQB_WHQAH1@Z 004fafe1 f i libucrt:output.obj
 0001:000fa07b       ___stdio_common_vsprintf   004fb07b f   libucrt:output.obj
 0001:000fa09f       ___stdio_common_vswprintf_s 004fb09f f   libucrt:output.obj
 0001:000fa0c3       _wcscpy_s                  004fb0c3 f   libucrt:wcscpy_s.obj
 0001:000fa127       _wcsncpy                   004fb127 f   libucrt:wcsncpy.obj
 0001:000fa170       _floor                     004fb170 f   libucrt:floor_pentium4.obj
 0001:000fa1b0       __floor_pentium4           004fb1b0 f   libucrt:floor_pentium4.obj
 0001:000fa26d       __isdigit_l                004fb26d f i libucrt:_ctype.obj
 0001:000fa2a5       _isdigit                   004fb2a5 f i libucrt:_ctype.obj
 0001:000fa2d2       __seh_filter_exe           004fb2d2 f   libucrt:exception_filter.obj
 0001:000fa445       __query_app_type           004fb445 f   libucrt:report_runtime_error.obj
 0001:000fa44b       __set_app_type             004fb44b f   libucrt:report_runtime_error.obj
 0001:000fa45a       ___acrt_has_user_matherr   004fb45a f   libucrt:matherr.obj
 0001:000fa473       ___acrt_initialize_user_matherr 004fb473 f   libucrt:matherr.obj
 0001:000fa487       ___acrt_invoke_user_matherr 004fb487 f   libucrt:matherr.obj
 0001:000fa4d0       ___setusermatherr          004fb4d0 f   libucrt:matherr.obj
 0001:000fa77e       ___acrt_allocate_buffer_for_argv 004fb77e f   libucrt:argv_parsing.obj
 0001:000fa7d3       __configure_narrow_argv    004fb7d3 f   libucrt:argv_parsing.obj
 0001:000fa937       ??$uninitialize@A6AXAAPAPA_W@Z@?$dual_state_global@PAPA_W@__crt_state_management@@QAEXA6AXAAPAPA_W@Z@Z 004fb937 f i libucrt:environment_initialization.obj
 0001:000fa937       ??$uninitialize@A6AXAAPAPAD@Z@?$dual_state_global@PAPAD@__crt_state_management@@QAEXA6AXAAPAPAD@Z@Z 004fb937 f i libucrt:environment_initialization.obj
 0001:000fa9ad       ___dcrt_uninitialize_environments_nolock 004fb9ad f   libucrt:environment_initialization.obj
 0001:000fa9e4       __initialize_narrow_environment 004fb9e4 f   libucrt:environment_initialization.obj
 0001:000fa9e9       __get_narrow_winmain_command_line 004fb9e9 f   libucrt:argv_winmain.obj
 0001:000faa3c       __initterm                 004fba3c f   libucrt:initterm.obj
 0001:000faa98       __initterm_e               004fba98 f   libucrt:initterm.obj
 0001:000faadd       ??$__crt_fast_encode_pointer@P6AHPAU_exception@@@Z@@YAP6AHPAU_exception@@@ZQ6AH0@Z@Z 004fbadd f i libucrt:matherr.obj
 0001:000faadd       ??$__crt_fast_encode_pointer@P6AHXZ@@YAP6AHXZQ6AHXZ@Z 004fbadd f i libucrt:onexit.obj
 0001:000faadd       ??$__crt_fast_encode_pointer@P6GXPAXK0@Z@@YAP6GXPAXK0@ZQ6GX0K0@Z@Z 004fbadd f i libucrt:exit.obj
 0001:000fac69       ___scrt_is_managed_app     004fbc69 f   LIBCMT:utility_desktop.obj
 0001:000fad17       ___acrt_initialize_thread_local_exit_callback 004fbd17 f   libucrt:exit.obj
 0001:000fad26       __c_exit                   004fbd26 f   libucrt:exit.obj
 0001:000fad35       __cexit                    004fbd35 f   libucrt:exit.obj
 0001:000fad44       __exit                     004fbd44 f   libucrt:exit.obj
 0001:000fad5a       __register_thread_local_exe_atexit_callback 004fbd5a f   libucrt:exit.obj
 0001:000fad92       _exit                      004fbd92 f   libucrt:exit.obj
 0001:000fada8       __set_fmode                004fbda8 f   libucrt:setmode.obj
 0001:000fade5       ___acrt_set_locale_changed 004fbde5 f   libucrt:wsetlocale.obj
 0001:000fadf0       ___acrt_uninitialize_locale 004fbdf0 f   libucrt:wsetlocale.obj
 0001:000fae42       __configthreadlocale       004fbe42 f   libucrt:wsetlocale.obj
 0001:000faea4       __query_new_mode           004fbea4 f   libucrt:new_mode.obj
 0001:000faeaa       __set_new_mode             004fbeaa f   libucrt:new_mode.obj
 0001:000faed9       ___p__commode              004fbed9 f   libucrt:ncommode.obj
 0001:000faedf       ??$?RV<lambda_800076c951b434888f4765a74a194fcc>@@AAV<lambda_4e60a939b0d047cfe11ddc22648dfba9>@@V<lambda_6dbb1268764f43b569ce7b67e331d33a>@@@?$__crt_seh_guarded_call@H@@QAEH$$QAV<lambda_800076c951b434888f4765a74a194fcc>@@AAV<lambda_4e60a939b0d047cfe11ddc22648dfba9>@@$$QAV<lambda_6dbb1268764f43b569ce7b67e331d33a>@@@Z 004fbedf f i libucrt:onexit.obj
 0001:000faf30       ??$?RV<lambda_995298e7d72eb4c2aab26c0585b3abe5>@@AAV<lambda_275893d493268fdec8709772e3fcec0e>@@V<lambda_293819299cbf9a7022e18b56a874bb5c>@@@?$__crt_seh_guarded_call@H@@QAEH$$QAV<lambda_995298e7d72eb4c2aab26c0585b3abe5>@@AAV<lambda_275893d493268fdec8709772e3fcec0e>@@$$QAV<lambda_293819299cbf9a7022e18b56a874bb5c>@@@Z 004fbf30 f i libucrt:onexit.obj
 0001:000faf81       ??$__acrt_lock_and_call@V<lambda_275893d493268fdec8709772e3fcec0e>@@@@YAHW4__acrt_lock_id@@$$QAV<lambda_275893d493268fdec8709772e3fcec0e>@@@Z 004fbf81 f i libucrt:onexit.obj
 0001:000fafa9       ??$__acrt_lock_and_call@V<lambda_4e60a939b0d047cfe11ddc22648dfba9>@@@@YAHW4__acrt_lock_id@@$$QAV<lambda_4e60a939b0d047cfe11ddc22648dfba9>@@@Z 004fbfa9 f i libucrt:onexit.obj
 0001:000fb232       __crt_atexit               004fc232 f   libucrt:onexit.obj
 0001:000fb248       __execute_onexit_table     004fc248 f   libucrt:onexit.obj
 0001:000fb265       __initialize_onexit_table  004fc265 f   libucrt:onexit.obj
 0001:000fb2a2       __register_onexit_function 004fc2a2 f   libucrt:onexit.obj
 0001:000fb3b7       ?initialize@?$dual_state_global@PAPAD@__crt_state_management@@QAEXQAPAD@Z 004fc3b7 f i libucrt:environment_initialization.obj
 0001:000fb3b7       ?initialize@?$dual_state_global@P6AHI@Z@__crt_state_management@@QAEXQ6AHI@Z@Z 004fc3b7 f i libucrt:new_handler.obj
 0001:000fb3b7       ?initialize@?$dual_state_global@P6AXH@Z@__crt_state_management@@QAEXQ6AXH@Z@Z 004fc3b7 f i libucrt:signal.obj
 0001:000fb3b7       ?initialize@?$dual_state_global@P6AHPAU_exception@@@Z@__crt_state_management@@QAEXQ6AHPAU_exception@@@Z@Z 004fc3b7 f i libucrt:matherr.obj
 0001:000fb3b7       ?initialize@?$dual_state_global@PAU__crt_locale_data@@@__crt_state_management@@QAEXQAU__crt_locale_data@@@Z 004fc3b7 f i libucrt:initialization.obj
 0001:000fb3b7       ?initialize@?$dual_state_global@P6AXPB_W00II@Z@__crt_state_management@@QAEXQ6AXPB_W00II@Z@Z 004fc3b7 f i libucrt:invalid_parameter.obj
 0001:000fb3e8       ___acrt_initialize         004fc3e8 f   libucrt:initialization.obj
 0001:000fb3fa       ___acrt_uninitialize       004fc3fa f   libucrt:initialization.obj
 0001:000fb40c       _terminate                 004fc40c f   libucrt:terminate.obj
 0001:000fb448       __errcode                  004fc448 f   libucrt:fpexcept.obj
 0001:000fb47c       __except1                  004fc47c f   libucrt:fpexcept.obj
 0001:000fb54a       __handle_exc               004fc54a f   libucrt:fpexcept.obj
 0001:000fb72a       __raise_exc                004fc72a f   libucrt:fpexcept.obj
 0001:000fb74d       __raise_exc_ex             004fc74d f   libucrt:fpexcept.obj
 0001:000fba3e       __set_errno_from_matherr   004fca3e f   libucrt:fpexcept.obj
 0001:000fba6d       __umatherr                 004fca6d f   libucrt:fpexcept.obj
 0001:000fbb0f       __controlfp_s              004fcb0f f   libucrt:contrlfp.obj
 0001:000fbb6e       _abort                     004fcb6e f   libucrt:abort.obj
 0001:000fbbb1       _free                      004fcbb1 f   libucrt:free.obj
 0001:000fbbb6       _malloc                    004fcbb6 f   libucrt:malloc.obj
 0001:000fbbc1       _strcpy_s                  004fcbc1 f   libucrt:strcpy_s.obj
 0001:000fbc1b       __free_base                004fcc1b f   libucrt:free_base.obj
 0001:000fbc55       __malloc_base              004fcc55 f   libucrt:malloc_base.obj
 0001:000fbca3       __calloc_base              004fcca3 f   libucrt:calloc_base.obj
 0001:000fbd00       ___acrt_errno_from_os_error 004fcd00 f   libucrt:errno.obj
 0001:000fbd43       ___acrt_errno_map_os_error 004fcd43 f   libucrt:errno.obj
 0001:000fbd66       ___doserrno                004fcd66 f   libucrt:errno.obj
 0001:000fbd79       __errno                    004fcd79 f   libucrt:errno.obj
 0001:000fbd8c       ___pctype_func             004fcd8c f   libucrt:ctype.obj
 0001:000fbdb2       _iswctype                  004fcdb2 f   libucrt:iswctype.obj
 0001:000fbe11       __isctype_l                004fce11 f   libucrt:isctype.obj
 0001:000fbee3       ??$?RV<lambda_3518db117f0e7cdb002338c5d3c47b6c>@@AAV<lambda_b2ea41f6bbb362cd97d94c6828d90b61>@@V<lambda_abdedf541bb04549bc734292b4a045d4>@@@?$__crt_seh_guarded_call@X@@QAEX$$QAV<lambda_3518db117f0e7cdb002338c5d3c47b6c>@@AAV<lambda_b2ea41f6bbb362cd97d94c6828d90b61>@@$$QAV<lambda_abdedf541bb04549bc734292b4a045d4>@@@Z 004fcee3 f i libucrt:per_thread_data.obj
 0001:000fbf33       ??$?RV<lambda_51b6e8b1eb166f2a3faf91f424b38130>@@AAV<lambda_6250bd4b2a391816dd638c3bf72b0bcb>@@V<lambda_0b5a4a3e68152e1d9b943535f5f47bed>@@@?$__crt_seh_guarded_call@X@@QAEX$$QAV<lambda_51b6e8b1eb166f2a3faf91f424b38130>@@AAV<lambda_6250bd4b2a391816dd638c3bf72b0bcb>@@$$QAV<lambda_0b5a4a3e68152e1d9b943535f5f47bed>@@@Z 004fcf33 f i libucrt:per_thread_data.obj
 0001:000fbf94       ??$?RV<lambda_5b71d36f03204c0beab531769a5b5694>@@AAV<lambda_be2b3da3f62db62e9dad5dc70221a656>@@V<lambda_8f9ce462984622f9bf76b59e2aaaf805>@@@?$__crt_seh_guarded_call@X@@QAEX$$QAV<lambda_5b71d36f03204c0beab531769a5b5694>@@AAV<lambda_be2b3da3f62db62e9dad5dc70221a656>@@$$QAV<lambda_8f9ce462984622f9bf76b59e2aaaf805>@@@Z 004fcf94 f i libucrt:per_thread_data.obj
 0001:000fbfdf       ??$?RV<lambda_9df27f884b057bc3edfc946cb5b7cf47>@@AAV<lambda_e69574bed617af4e071282c136b37893>@@V<lambda_cc0d902bcbbeb830f749456577db4721>@@@?$__crt_seh_guarded_call@X@@QAEX$$QAV<lambda_9df27f884b057bc3edfc946cb5b7cf47>@@AAV<lambda_e69574bed617af4e071282c136b37893>@@$$QAV<lambda_cc0d902bcbbeb830f749456577db4721>@@@Z 004fcfdf f i libucrt:per_thread_data.obj
 0001:000fc027       ??$__acrt_lock_and_call@V<lambda_6250bd4b2a391816dd638c3bf72b0bcb>@@@@YAXW4__acrt_lock_id@@$$QAV<lambda_6250bd4b2a391816dd638c3bf72b0bcb>@@@Z 004fd027 f i libucrt:per_thread_data.obj
 0001:000fc04f       ??$__acrt_lock_and_call@V<lambda_b2ea41f6bbb362cd97d94c6828d90b61>@@@@YAXW4__acrt_lock_id@@$$QAV<lambda_b2ea41f6bbb362cd97d94c6828d90b61>@@@Z 004fd04f f i libucrt:per_thread_data.obj
 0001:000fc077       ??$__acrt_lock_and_call@V<lambda_be2b3da3f62db62e9dad5dc70221a656>@@@@YAXW4__acrt_lock_id@@$$QAV<lambda_be2b3da3f62db62e9dad5dc70221a656>@@@Z 004fd077 f i libucrt:per_thread_data.obj
 0001:000fc09f       ??$__acrt_lock_and_call@V<lambda_e69574bed617af4e071282c136b37893>@@@@YAXW4__acrt_lock_id@@$$QAV<lambda_e69574bed617af4e071282c136b37893>@@@Z 004fd09f f i libucrt:per_thread_data.obj
 0001:000fc255       ___acrt_getptd             004fd255 f   libucrt:per_thread_data.obj
 0001:000fc2d9       ___acrt_getptd_noexit      004fd2d9 f   libucrt:per_thread_data.obj
 0001:000fc35e       ___acrt_initialize_ptd     004fd35e f   libucrt:per_thread_data.obj
 0001:000fc38a       ___acrt_uninitialize_ptd   004fd38a f   libucrt:per_thread_data.obj
 0001:000fc3a4       ___acrt_update_locale_info 004fd3a4 f   libucrt:locale_update.obj
 0001:000fc3d1       ___acrt_update_multibyte_info 004fd3d1 f   libucrt:locale_update.obj
 0001:000fc41c       __fFATN2                   004fd41c     libucrt:87triga.obj
 0001:000fc46c       __rtpiby2                  004fd46c     libucrt:87triga.obj
 0001:000fc4b0       __cintrindisp2             004fd4b0 f   libucrt:87cdisp.obj
 0001:000fc4f4       __cintrindisp1             004fd4f4 f   libucrt:87cdisp.obj
 0001:000fc537       __ctrandisp2               004fd537 f   libucrt:87cdisp.obj
 0001:000fc6c6       __ctrandisp1               004fd6c6 f   libucrt:87cdisp.obj
 0001:000fc6f9       __fload                    004fd6f9 f   libucrt:87cdisp.obj
 0001:000fc740       _cos                       004fd740 f   libucrt:cos.obj
 0001:000fc780       __CIcos                    004fd780 f   libucrt:cos.obj
 0001:000fc7bb       __CIcos_default            004fd7bb f   libucrt:cos.obj
 0001:000fc7cf       __cos_default              004fd7cf     libucrt:cos.obj
 0001:000fc862       ___libm_error_support      004fd862 f   libucrt:libm_error.obj
 0001:000fca80       _exp                       004fda80 f   libucrt:87ctran.obj
 0001:000fcabc       __CIexp                    004fdabc f   libucrt:87ctran.obj
 0001:000fcaf7       __exp_default              004fdaf7 f   libucrt:87ctran.obj
 0001:000fcb01       __CIexp_default            004fdb01 f   libucrt:87ctran.obj
 0001:000fcb10       _pow                       004fdb10 f   libucrt:pow.obj
 0001:000fcb50       __CIpow                    004fdb50 f   libucrt:pow.obj
 0001:000fcb8b       __CIpow_default            004fdb8b f   libucrt:pow.obj
 0001:000fcba4       __pow_default              004fdba4     libucrt:pow.obj
 0001:000fcda0       _sin                       004fdda0 f   libucrt:sin.obj
 0001:000fcde0       __CIsin                    004fdde0 f   libucrt:sin.obj
 0001:000fce1b       __CIsin_default            004fde1b f   libucrt:sin.obj
 0001:000fce2f       __sin_default              004fde2f     libucrt:sin.obj
 0001:000fced0       __CIsqrt                   004fded0 f   libucrt:sqrt.obj
 0001:000fcee4       _sqrt                      004fdee4     libucrt:sqrt.obj
 0001:000fcf8a       __isleadbyte_l             004fdf8a f i libucrt:_wctype.obj
 0001:000fd1e0       ___acrt_LCMapStringA       004fe1e0 f   libucrt:lcmapstringa.obj
 0001:000fd22b       __freea_crt                004fe22b f i libucrt:lcmapstringa.obj
 0001:000fd24b       __mbtowc_l                 004fe24b f   libucrt:mbtowc.obj
 0001:000fd345       _mbtowc                    004fe345 f   libucrt:mbtowc.obj
 0001:000fd35f       __wctomb_s_l               004fe35f f   libucrt:wctomb.obj
 0001:000fd480       _wctomb_s                  004fe480 f   libucrt:wctomb.obj
 0001:000fd49d       _strnlen                   004fe49d f   libucrt:strnlen.obj
 0001:000fd5c4       _wcsnlen                   004fe5c4 f   libucrt:strnlen.obj
 0001:000fd77b       ?__acrt_fp_classify@@YA?AW4__acrt_fp_class@@ABN@Z 004fe77b f i libucrt:cvt.obj
 0001:000fd7e7       ?__acrt_fp_is_negative@@YA_NABN@Z 004fe7e7 f i libucrt:cvt.obj
 0001:000fe046       ___acrt_fp_format          004ff046 f   libucrt:cvt.obj
 0001:000fe190       __fileno                   004ff190 f   libucrt:fileno.obj
 0001:000fe1b6       ___acrt_initialize_stdio   004ff1b6 f   libucrt:_file.obj
 0001:000fe27e       ___acrt_uninitialize_stdio 004ff27e f   libucrt:_file.obj
 0001:000fe2ca       __lock_file                004ff2ca f   libucrt:_file.obj
 0001:000fe2de       __unlock_file              004ff2de f   libucrt:_file.obj
 0001:000fe2f2       __get_printf_count_output  004ff2f2 f   libucrt:printf_count_output.obj
 0001:000fe473       ___acrt_initialize_lowio   004ff473 f   libucrt:ioinit.obj
 0001:000fe4c9       ___acrt_uninitialize_lowio 004ff4c9 f   libucrt:ioinit.obj
 0001:000fe4f5       ___acrt_initialize_sse2    004ff4f5 f   libucrt:mathfcns.obj
 0001:000fe504       __floor_default            004ff504 f   libucrt:floor.obj
 0001:000fe97f       ??1?$argument_list@D@?A0xb0e4b824@@QAE@XZ 004ff97f f i libucrt:argv_wildcards.obj
 0001:000fe9a4       ?append@?$argument_list@D@?A0xb0e4b824@@QAEHQAD@Z 004ff9a4 f i libucrt:argv_wildcards.obj
 0001:000fe9d9       ?expand_if_necessary@?$argument_list@D@?A0xb0e4b824@@AAEHXZ 004ff9d9 f i libucrt:argv_wildcards.obj
 0001:000fea60       ___acrt_expand_narrow_argv_wildcards 004ffa60 f   libucrt:argv_wildcards.obj
 0001:000fea6b       ??$?RV<lambda_978dc153c237d78434369da87b74ff60>@@AAV<lambda_ad1ced32f4ac17aa236e5ef05d6b3b7c>@@V<lambda_4a8533e2866a575feecb8298ce776b0d>@@@?$__crt_seh_guarded_call@X@@QAEX$$QAV<lambda_978dc153c237d78434369da87b74ff60>@@AAV<lambda_ad1ced32f4ac17aa236e5ef05d6b3b7c>@@$$QAV<lambda_4a8533e2866a575feecb8298ce776b0d>@@@Z 004ffa6b f i libucrt:mbctype.obj
 0001:000feaae       ??$__acrt_lock_and_call@V<lambda_ad1ced32f4ac17aa236e5ef05d6b3b7c>@@@@YAXW4__acrt_lock_id@@$$QAV<lambda_ad1ced32f4ac17aa236e5ef05d6b3b7c>@@@Z 004ffaae f i libucrt:mbctype.obj
 0001:000fef45       ___acrt_initialize_multibyte 004fff45 f   libucrt:mbctype.obj
 0001:000fef63       ___acrt_update_thread_multibyte_data 004fff63 f   libucrt:mbctype.obj
 0001:000ff005       __setmbcp_nolock           00500005 f   libucrt:mbctype.obj
 0001:000ff24f       __ismbblead                0050024f f   libucrt:ismbbyte.obj
 0001:000ff267       ___acrt_initialize_command_line 00500267 f   libucrt:argv_data.obj
 0001:000ff2b7       ___dcrt_get_narrow_environment_from_os 005002b7 f   libucrt:get_environment_from_os.obj
 0001:000ff33a       ___acrt_initialize_locks   0050033a f   libucrt:locks.obj
 0001:000ff37b       ___acrt_lock               0050037b f   libucrt:locks.obj
 0001:000ff392       ___acrt_uninitialize_locks 00500392 f   libucrt:locks.obj
 0001:000ff3c3       ___acrt_unlock             005003c3 f   libucrt:locks.obj
 0001:000ff4f1       ___acrt_FlsAlloc@4         005004f1 f   libucrt:winapi_thunks.obj
 0001:000ff547       ___acrt_FlsFree@4          00500547 f   libucrt:winapi_thunks.obj
 0001:000ff59d       ___acrt_FlsGetValue@4      0050059d f   libucrt:winapi_thunks.obj
 0001:000ff5f3       ___acrt_FlsSetValue@8      005005f3 f   libucrt:winapi_thunks.obj
 0001:000ff64c       ___acrt_InitializeCriticalSectionEx@12 0050064c f   libucrt:winapi_thunks.obj
 0001:000ff6ae       ___acrt_LCMapStringEx@36   005006ae f   libucrt:winapi_thunks.obj
 0001:000ff736       ___acrt_LocaleNameToLCID@8 00500736 f   libucrt:winapi_thunks.obj
 0001:000ff792       ___acrt_initialize_winapi_thunks 00500792 f   libucrt:winapi_thunks.obj
 0001:000ff7b8       ___acrt_is_packaged_app    005007b8 f   libucrt:winapi_thunks.obj
 0001:000ff83f       ___acrt_uninitialize_winapi_thunks 0050083f f   libucrt:winapi_thunks.obj
 0001:000ff875       ___acrt_lowio_create_handle_array 00500875 f   libucrt:osfinfo.obj
 0001:000ff8ef       ___acrt_lowio_destroy_handle_array 005008ef f   libucrt:osfinfo.obj
 0001:000ff924       ___acrt_lowio_ensure_fh_exists 00500924 f   libucrt:osfinfo.obj
 0001:000ff9bc       ___acrt_lowio_lock_fh      005009bc f   libucrt:osfinfo.obj
 0001:000ff9df       ___acrt_lowio_unlock_fh    005009df f   libucrt:osfinfo.obj
 0001:000ffa02       __free_osfhnd              00500a02 f   libucrt:osfinfo.obj
 0001:000ffa93       __get_osfhandle            00500a93 f   libucrt:osfinfo.obj
 0001:000ffafd       ___acrt_locale_free_monetary 00500afd f   libucrt:initmon.obj
 0001:000ffbfb       ___acrt_locale_free_numeric 00500bfb f   libucrt:initnum.obj
 0001:000ffca0       ___acrt_locale_free_time   00500ca0 f   libucrt:inittime.obj
 0001:000ffd84       ___acrt_GetStringTypeA     00500d84 f   libucrt:getstringtypea.obj
 0001:000ffea1       ___acrt_add_locale_ref     00500ea1 f   libucrt:locale_refcounting.obj
 0001:000fff1e       ___acrt_free_locale        00500f1e f   libucrt:locale_refcounting.obj
 0001:00100068       ___acrt_locale_add_lc_time_reference 00501068 f   libucrt:locale_refcounting.obj
 0001:00100091       ___acrt_locale_free_lc_time_if_unreferenced 00501091 f   libucrt:locale_refcounting.obj
 0001:001000c1       ___acrt_locale_release_lc_time_reference 005010c1 f   libucrt:locale_refcounting.obj
 0001:001000ea       ___acrt_release_locale_ref 005010ea f   libucrt:locale_refcounting.obj
 0001:0010016b       ___acrt_update_thread_locale_data 0050116b f   libucrt:locale_refcounting.obj
 0001:001001e2       __updatetlocinfoEx_nolock  005011e2 f   libucrt:locale_refcounting.obj
 0001:00100232       __recalloc                 00501232 f   libucrt:recalloc.obj
 0001:0010023d       __recalloc_base            0050123d f   libucrt:recalloc.obj
 0001:001002aa       ___acrt_initialize_heap    005012aa f   libucrt:heap_handle.obj
 0001:001002bb       ___acrt_uninitialize_heap  005012bb f   libucrt:heap_handle.obj
 0001:001002c5       ___acrt_execute_initializers 005012c5 f   libucrt:shared_initialization.obj
 0001:00100348       ___acrt_execute_uninitializers 00501348 f   libucrt:shared_initialization.obj
 0001:00100395       ___acrt_initialize_new_handler 00501395 f   libucrt:new_handler.obj
 0001:001003a9       __callnewh                 005013a9 f   libucrt:new_handler.obj
 0001:001003ed       __query_new_handler        005013ed f   libucrt:new_handler.obj
 0001:0010043f       ??$?RV<lambda_a048d3beccc847880fc8490e18b82769>@@AAV<lambda_ec61778202f4f5fc7e7711acc23c3bca>@@V<lambda_f7496a158712204296dd6628a163878e>@@@?$__crt_seh_guarded_call@P6AXH@Z@@QAEP6AXH@Z$$QAV<lambda_a048d3beccc847880fc8490e18b82769>@@AAV<lambda_ec61778202f4f5fc7e7711acc23c3bca>@@$$QAV<lambda_f7496a158712204296dd6628a163878e>@@@Z 0050143f f i libucrt:signal.obj
 0001:00100499       ??$__acrt_lock_and_call@V<lambda_ec61778202f4f5fc7e7711acc23c3bca>@@@@YAP6AXH@ZW4__acrt_lock_id@@$$QAV<lambda_ec61778202f4f5fc7e7711acc23c3bca>@@@Z 00501499 f i libucrt:signal.obj
 0001:0010052b       ___acrt_get_sigabrt_handler 0050152b f   libucrt:signal.obj
 0001:00100542       ___acrt_initialize_signal_handlers 00501542 f   libucrt:signal.obj
 0001:0010057d       ___fpecode                 0050157d f   libucrt:signal.obj
 0001:00100586       _raise                     00501586 f   libucrt:signal.obj
 0001:0010078e       __decomp                   0050178e f   libucrt:util.obj
 0001:00100862       __set_exp                  00501862 f   libucrt:util.obj
 0001:00100891       __sptype                   00501891 f   libucrt:util.obj
 0001:001008ef       ___set_fpsr_sse2           005018ef f   libucrt:fpctrl.obj
 0001:00100965       __clrfp                    00501965 f   libucrt:fpctrl.obj
 0001:00100978       __ctrlfp                   00501978 f   libucrt:fpctrl.obj
 0001:001009a4       __set_statfp               005019a4 f   libucrt:fpctrl.obj
 0001:001009ff       __statfp                   005019ff f   libucrt:fpctrl.obj
 0001:00100abc       __clearfp                  00501abc f   libucrt:ieee87.obj
 0001:00100b9a       __control87                00501b9a f   libucrt:ieee87.obj
 0001:00100f40       __trandisp1                00501f40 f   libucrt:87disp.obj
 0001:00100fa7       __trandisp2                00501fa7 f   libucrt:87disp.obj
 0001:00101033       __rttospopde               00502033     libucrt:87disp.obj
